/mnt/bsg/diskbits/dcjung/bsg/bsg_manycore/software/riscv-tools/riscv-install/bin/riscv32-unknown-elf-objdump -M numeric --disassemble-all main.riscv

main.riscv:     file format elf32-littleriscv


Disassembly of section .sdata:

00001000 <__bsg_grp_org_y>:
    1000:	ffff                	0xffff
    1002:	ffff                	0xffff

00001004 <__bsg_grp_org_x>:
    1004:	ffff                	0xffff
    1006:	ffff                	0xffff

00001008 <__bsg_id>:
    1008:	ffff                	0xffff
    100a:	ffff                	0xffff

0000100c <__bsg_y>:
    100c:	ffff                	0xffff
    100e:	ffff                	0xffff

00001010 <__bsg_x>:
    1010:	ffff                	0xffff
    1012:	ffff                	0xffff

Disassembly of section .rodata:

00001014 <_bsg_bin_end_addr-0x20c>:
    1014:	0728                	addi	x10,x2,904
    1016:	8000                	0x8000
    1018:	06b0                	addi	x12,x2,840
    101a:	8000                	0x8000
    101c:	06b0                	addi	x12,x2,840
    101e:	8000                	0x8000
    1020:	071c                	addi	x15,x2,896
    1022:	8000                	0x8000
    1024:	06b0                	addi	x12,x2,840
    1026:	8000                	0x8000
    1028:	06b0                	addi	x12,x2,840
    102a:	8000                	0x8000
    102c:	06b0                	addi	x12,x2,840
    102e:	8000                	0x8000
    1030:	06b0                	addi	x12,x2,840
    1032:	8000                	0x8000
    1034:	06b0                	addi	x12,x2,840
    1036:	8000                	0x8000
    1038:	06b0                	addi	x12,x2,840
    103a:	8000                	0x8000
    103c:	06b0                	addi	x12,x2,840
    103e:	8000                	0x8000
    1040:	0710                	addi	x12,x2,896
    1042:	8000                	0x8000
    1044:	06b0                	addi	x12,x2,840
    1046:	8000                	0x8000
    1048:	0704                	addi	x9,x2,896
    104a:	8000                	0x8000
    104c:	06b0                	addi	x12,x2,840
    104e:	8000                	0x8000
    1050:	06b0                	addi	x12,x2,840
    1052:	8000                	0x8000
    1054:	0694                	addi	x13,x2,832
    1056:	8000                	0x8000
    1058:	0c58                	addi	x14,x2,532
    105a:	8000                	0x8000
    105c:	093c                	addi	x15,x2,152
    105e:	8000                	0x8000
    1060:	093c                	addi	x15,x2,152
    1062:	8000                	0x8000
    1064:	093c                	addi	x15,x2,152
    1066:	8000                	0x8000
    1068:	093c                	addi	x15,x2,152
    106a:	8000                	0x8000
    106c:	093c                	addi	x15,x2,152
    106e:	8000                	0x8000
    1070:	093c                	addi	x15,x2,152
    1072:	8000                	0x8000
    1074:	093c                	addi	x15,x2,152
    1076:	8000                	0x8000
    1078:	093c                	addi	x15,x2,152
    107a:	8000                	0x8000
    107c:	093c                	addi	x15,x2,152
    107e:	8000                	0x8000
    1080:	093c                	addi	x15,x2,152
    1082:	8000                	0x8000
    1084:	093c                	addi	x15,x2,152
    1086:	8000                	0x8000
    1088:	093c                	addi	x15,x2,152
    108a:	8000                	0x8000
    108c:	093c                	addi	x15,x2,152
    108e:	8000                	0x8000
    1090:	093c                	addi	x15,x2,152
    1092:	8000                	0x8000
    1094:	093c                	addi	x15,x2,152
    1096:	8000                	0x8000
    1098:	093c                	addi	x15,x2,152
    109a:	8000                	0x8000
    109c:	093c                	addi	x15,x2,152
    109e:	8000                	0x8000
    10a0:	093c                	addi	x15,x2,152
    10a2:	8000                	0x8000
    10a4:	093c                	addi	x15,x2,152
    10a6:	8000                	0x8000
    10a8:	093c                	addi	x15,x2,152
    10aa:	8000                	0x8000
    10ac:	093c                	addi	x15,x2,152
    10ae:	8000                	0x8000
    10b0:	093c                	addi	x15,x2,152
    10b2:	8000                	0x8000
    10b4:	07e4                	addi	x9,x2,972
    10b6:	8000                	0x8000
    10b8:	093c                	addi	x15,x2,152
    10ba:	8000                	0x8000
    10bc:	093c                	addi	x15,x2,152
    10be:	8000                	0x8000
    10c0:	093c                	addi	x15,x2,152
    10c2:	8000                	0x8000
    10c4:	093c                	addi	x15,x2,152
    10c6:	8000                	0x8000
    10c8:	093c                	addi	x15,x2,152
    10ca:	8000                	0x8000
    10cc:	093c                	addi	x15,x2,152
    10ce:	8000                	0x8000
    10d0:	093c                	addi	x15,x2,152
    10d2:	8000                	0x8000
    10d4:	093c                	addi	x15,x2,152
    10d6:	8000                	0x8000
    10d8:	0af4                	addi	x13,x2,348
    10da:	8000                	0x8000
    10dc:	093c                	addi	x15,x2,152
    10de:	8000                	0x8000
    10e0:	08e8                	addi	x10,x2,92
    10e2:	8000                	0x8000
    10e4:	0c3c                	addi	x15,x2,536
    10e6:	8000                	0x8000
    10e8:	093c                	addi	x15,x2,152
    10ea:	8000                	0x8000
    10ec:	093c                	addi	x15,x2,152
    10ee:	8000                	0x8000
    10f0:	093c                	addi	x15,x2,152
    10f2:	8000                	0x8000
    10f4:	093c                	addi	x15,x2,152
    10f6:	8000                	0x8000
    10f8:	0c3c                	addi	x15,x2,536
    10fa:	8000                	0x8000
    10fc:	093c                	addi	x15,x2,152
    10fe:	8000                	0x8000
    1100:	093c                	addi	x15,x2,152
    1102:	8000                	0x8000
    1104:	093c                	addi	x15,x2,152
    1106:	8000                	0x8000
    1108:	093c                	addi	x15,x2,152
    110a:	8000                	0x8000
    110c:	093c                	addi	x15,x2,152
    110e:	8000                	0x8000
    1110:	08dc                	addi	x15,x2,84
    1112:	8000                	0x8000
    1114:	08b0                	addi	x12,x2,88
    1116:	8000                	0x8000
    1118:	093c                	addi	x15,x2,152
    111a:	8000                	0x8000
    111c:	093c                	addi	x15,x2,152
    111e:	8000                	0x8000
    1120:	081c                	addi	x15,x2,16
    1122:	8000                	0x8000
    1124:	093c                	addi	x15,x2,152
    1126:	8000                	0x8000
    1128:	0810                	addi	x12,x2,16
    112a:	8000                	0x8000
    112c:	093c                	addi	x15,x2,152
    112e:	8000                	0x8000
    1130:	093c                	addi	x15,x2,152
    1132:	8000                	0x8000
    1134:	0ae8                	addi	x10,x2,348
    1136:	8000                	0x8000
    1138:	09d0                	addi	x12,x2,212
    113a:	8000                	0x8000
    113c:	0944                	addi	x9,x2,148
    113e:	8000                	0x8000
    1140:	0944                	addi	x9,x2,148
    1142:	8000                	0x8000
    1144:	0944                	addi	x9,x2,148
    1146:	8000                	0x8000
    1148:	0944                	addi	x9,x2,148
    114a:	8000                	0x8000
    114c:	0944                	addi	x9,x2,148
    114e:	8000                	0x8000
    1150:	0944                	addi	x9,x2,148
    1152:	8000                	0x8000
    1154:	0944                	addi	x9,x2,148
    1156:	8000                	0x8000
    1158:	0944                	addi	x9,x2,148
    115a:	8000                	0x8000
    115c:	0944                	addi	x9,x2,148
    115e:	8000                	0x8000
    1160:	0944                	addi	x9,x2,148
    1162:	8000                	0x8000
    1164:	0944                	addi	x9,x2,148
    1166:	8000                	0x8000
    1168:	0944                	addi	x9,x2,148
    116a:	8000                	0x8000
    116c:	0944                	addi	x9,x2,148
    116e:	8000                	0x8000
    1170:	0944                	addi	x9,x2,148
    1172:	8000                	0x8000
    1174:	0944                	addi	x9,x2,148
    1176:	8000                	0x8000
    1178:	0944                	addi	x9,x2,148
    117a:	8000                	0x8000
    117c:	0944                	addi	x9,x2,148
    117e:	8000                	0x8000
    1180:	0944                	addi	x9,x2,148
    1182:	8000                	0x8000
    1184:	0944                	addi	x9,x2,148
    1186:	8000                	0x8000
    1188:	0944                	addi	x9,x2,148
    118a:	8000                	0x8000
    118c:	0944                	addi	x9,x2,148
    118e:	8000                	0x8000
    1190:	0944                	addi	x9,x2,148
    1192:	8000                	0x8000
    1194:	07e8                	addi	x10,x2,972
    1196:	8000                	0x8000
    1198:	0944                	addi	x9,x2,148
    119a:	8000                	0x8000
    119c:	0944                	addi	x9,x2,148
    119e:	8000                	0x8000
    11a0:	0944                	addi	x9,x2,148
    11a2:	8000                	0x8000
    11a4:	0944                	addi	x9,x2,148
    11a6:	8000                	0x8000
    11a8:	0944                	addi	x9,x2,148
    11aa:	8000                	0x8000
    11ac:	0944                	addi	x9,x2,148
    11ae:	8000                	0x8000
    11b0:	0944                	addi	x9,x2,148
    11b2:	8000                	0x8000
    11b4:	0944                	addi	x9,x2,148
    11b6:	8000                	0x8000
    11b8:	0ac8                	addi	x10,x2,340
    11ba:	8000                	0x8000
    11bc:	0944                	addi	x9,x2,148
    11be:	8000                	0x8000
    11c0:	08ec                	addi	x11,x2,92
    11c2:	8000                	0x8000
    11c4:	09b8                	addi	x14,x2,216
    11c6:	8000                	0x8000
    11c8:	0944                	addi	x9,x2,148
    11ca:	8000                	0x8000
    11cc:	0944                	addi	x9,x2,148
    11ce:	8000                	0x8000
    11d0:	0944                	addi	x9,x2,148
    11d2:	8000                	0x8000
    11d4:	0944                	addi	x9,x2,148
    11d6:	8000                	0x8000
    11d8:	09b8                	addi	x14,x2,216
    11da:	8000                	0x8000
    11dc:	0944                	addi	x9,x2,148
    11de:	8000                	0x8000
    11e0:	0944                	addi	x9,x2,148
    11e2:	8000                	0x8000
    11e4:	0944                	addi	x9,x2,148
    11e6:	8000                	0x8000
    11e8:	0944                	addi	x9,x2,148
    11ea:	8000                	0x8000
    11ec:	0944                	addi	x9,x2,148
    11ee:	8000                	0x8000
    11f0:	08e0                	addi	x8,x2,92
    11f2:	8000                	0x8000
    11f4:	08b4                	addi	x13,x2,88
    11f6:	8000                	0x8000
    11f8:	0944                	addi	x9,x2,148
    11fa:	8000                	0x8000
    11fc:	0944                	addi	x9,x2,148
    11fe:	8000                	0x8000
    1200:	0820                	addi	x8,x2,24
    1202:	8000                	0x8000
    1204:	0944                	addi	x9,x2,148
    1206:	8000                	0x8000
    1208:	0814                	addi	x13,x2,16
    120a:	8000                	0x8000
    120c:	0944                	addi	x9,x2,148
    120e:	8000                	0x8000
    1210:	0944                	addi	x9,x2,148
    1212:	8000                	0x8000
    1214:	07ec                	addi	x11,x2,972
    1216:	8000                	0x8000

Disassembly of section .text:

80000000 <_start>:
80000000:	00000093          	li	x1,0
80000004:	00000193          	li	x3,0
80000008:	00000213          	li	x4,0
8000000c:	00000293          	li	x5,0
80000010:	00000313          	li	x6,0
80000014:	00000393          	li	x7,0
80000018:	00000413          	li	x8,0
8000001c:	00000493          	li	x9,0
80000020:	00000513          	li	x10,0
80000024:	00000593          	li	x11,0
80000028:	00000613          	li	x12,0
8000002c:	00000693          	li	x13,0
80000030:	00000713          	li	x14,0
80000034:	00000793          	li	x15,0
80000038:	00000813          	li	x16,0
8000003c:	00000893          	li	x17,0
80000040:	00000913          	li	x18,0
80000044:	00000993          	li	x19,0
80000048:	00000a13          	li	x20,0
8000004c:	00000a93          	li	x21,0
80000050:	00000b13          	li	x22,0
80000054:	00000b93          	li	x23,0
80000058:	00000c13          	li	x24,0
8000005c:	00000c93          	li	x25,0
80000060:	00000d13          	li	x26,0
80000064:	00000d93          	li	x27,0
80000068:	00000e13          	li	x28,0
8000006c:	00000e93          	li	x29,0
80000070:	00000f13          	li	x30,0
80000074:	00000f93          	li	x31,0
80000078:	f0000053          	fmv.w.x	f0,x0
8000007c:	f00000d3          	fmv.w.x	f1,x0
80000080:	f0000153          	fmv.w.x	f2,x0
80000084:	f00001d3          	fmv.w.x	f3,x0
80000088:	f0000253          	fmv.w.x	f4,x0
8000008c:	f00002d3          	fmv.w.x	f5,x0
80000090:	f0000353          	fmv.w.x	f6,x0
80000094:	f00003d3          	fmv.w.x	f7,x0
80000098:	f0000453          	fmv.w.x	f8,x0
8000009c:	f00004d3          	fmv.w.x	f9,x0
800000a0:	f0000553          	fmv.w.x	f10,x0
800000a4:	f00005d3          	fmv.w.x	f11,x0
800000a8:	f0000653          	fmv.w.x	f12,x0
800000ac:	f00006d3          	fmv.w.x	f13,x0
800000b0:	f0000753          	fmv.w.x	f14,x0
800000b4:	f00007d3          	fmv.w.x	f15,x0
800000b8:	f0000853          	fmv.w.x	f16,x0
800000bc:	f00008d3          	fmv.w.x	f17,x0
800000c0:	f0000953          	fmv.w.x	f18,x0
800000c4:	f00009d3          	fmv.w.x	f19,x0
800000c8:	f0000a53          	fmv.w.x	f20,x0
800000cc:	f0000ad3          	fmv.w.x	f21,x0
800000d0:	f0000b53          	fmv.w.x	f22,x0
800000d4:	f0000bd3          	fmv.w.x	f23,x0
800000d8:	f0000c53          	fmv.w.x	f24,x0
800000dc:	f0000cd3          	fmv.w.x	f25,x0
800000e0:	f0000d53          	fmv.w.x	f26,x0
800000e4:	f0000dd3          	fmv.w.x	f27,x0
800000e8:	f0000e53          	fmv.w.x	f28,x0
800000ec:	f0000ed3          	fmv.w.x	f29,x0
800000f0:	f0000f53          	fmv.w.x	f30,x0
800000f4:	f0000fd3          	fmv.w.x	f31,x0
800000f8:	03000293          	li	x5,48
800000fc:	3002b073          	csrc	mstatus,x5
80000100:	00800293          	li	x5,8
80000104:	3002a073          	csrs	mstatus,x5
80000108:	000032b7          	lui	x5,0x3
8000010c:	3002a073          	csrs	mstatus,x5
80000110:	0000c2b7          	lui	x5,0xc
80000114:	3002a073          	csrs	mstatus,x5
80000118:	300022f3          	csrr	x5,mstatus
8000011c:	0000c337          	lui	x6,0xc
80000120:	0062f333          	and	x6,x5,x6
80000124:	00003337          	lui	x6,0x3
80000128:	0062f333          	and	x6,x5,x6
8000012c:	00030263          	beqz	x6,80000130 <_start+0x130>
80000130:	80001197          	auipc	x3,0x80001
80000134:	6d018193          	addi	x3,x3,1744 # 1800 <_gp>
80000138:	80001217          	auipc	x4,0x80001
8000013c:	12720213          	addi	x4,x4,295 # 125f <_bsg_bin_end_addr+0x3f>
80000140:	fc027213          	andi	x4,x4,-64
80000144:	00002137          	lui	x2,0x2
80000148:	ffc10113          	addi	x2,x2,-4 # 1ffc <_gp+0x7fc>
8000014c:	5510006f          	j	80000e9c <main>
80000150:	0000006f          	j	80000150 <_start+0x150>

80000154 <trap_entry>:
	...

80000184 <calculate_sum>:
80000184:	f00007d3          	fmv.w.x	f15,x0
80000188:	40050793          	addi	x15,x10,1024
8000018c:	00052707          	flw	f14,0(x10)
80000190:	00450513          	addi	x10,x10,4
80000194:	00e7f7d3          	fadd.s	f15,f15,f14
80000198:	fef51ae3          	bne	x10,x15,8000018c <calculate_sum+0x8>
8000019c:	e0078553          	fmv.x.w	x10,f15
800001a0:	00008067          	ret

800001a4 <bsg_set_tile_x_y>:
800001a4:	00001737          	lui	x14,0x1
800001a8:	200007b7          	lui	x15,0x20000
800001ac:	01070513          	addi	x10,x14,16 # 1010 <__bsg_x>
800001b0:	000016b7          	lui	x13,0x1
800001b4:	00f56833          	or	x16,x10,x15
800001b8:	00c68593          	addi	x11,x13,12 # 100c <__bsg_y>
800001bc:	00082023          	sw	x0,0(x16)
800001c0:	00f5e633          	or	x12,x11,x15
800001c4:	00062023          	sw	x0,0(x12)
800001c8:	01072783          	lw	x15,16(x14)
800001cc:	fe07cee3          	bltz	x15,800001c8 <bsg_set_tile_x_y+0x24>
800001d0:	00c6a783          	lw	x15,12(x13)
800001d4:	fe07cee3          	bltz	x15,800001d0 <bsg_set_tile_x_y+0x2c>
800001d8:	01072783          	lw	x15,16(x14)
800001dc:	04079a63          	bnez	x15,80000230 <bsg_set_tile_x_y+0x8c>
800001e0:	00c6a783          	lw	x15,12(x13)
800001e4:	04079663          	bnez	x15,80000230 <bsg_set_tile_x_y+0x8c>
800001e8:	00082023          	sw	x0,0(x16)
800001ec:	21000837          	lui	x16,0x21000
800001f0:	00062023          	sw	x0,0(x12)
800001f4:	010567b3          	or	x15,x10,x16
800001f8:	0007a023          	sw	x0,0(x15) # 20000000 <_gp+0x1fffe800>
800001fc:	0105e833          	or	x16,x11,x16
80000200:	00100793          	li	x15,1
80000204:	20040637          	lui	x12,0x20040
80000208:	00f82023          	sw	x15,0(x16) # 21000000 <_gp+0x20ffe800>
8000020c:	00c56833          	or	x16,x10,x12
80000210:	00f82023          	sw	x15,0(x16)
80000214:	00c5e633          	or	x12,x11,x12
80000218:	21040837          	lui	x16,0x21040
8000021c:	00062023          	sw	x0,0(x12) # 20040000 <_gp+0x2003e800>
80000220:	01056533          	or	x10,x10,x16
80000224:	00f52023          	sw	x15,0(x10)
80000228:	0105e5b3          	or	x11,x11,x16
8000022c:	00f5a023          	sw	x15,0(x11)
80000230:	00c6a583          	lw	x11,12(x13)
80000234:	01072783          	lw	x15,16(x14)
80000238:	200206b7          	lui	x13,0x20020
8000023c:	01859713          	slli	x14,x11,0x18
80000240:	01279613          	slli	x12,x15,0x12
80000244:	00c76733          	or	x14,x14,x12
80000248:	00468613          	addi	x12,x13,4 # 20020004 <_gp+0x2001e804>
8000024c:	00c76633          	or	x12,x14,x12
80000250:	00062603          	lw	x12,0(x12)
80000254:	00868693          	addi	x13,x13,8
80000258:	00d76733          	or	x14,x14,x13
8000025c:	000016b7          	lui	x13,0x1
80000260:	00c6a223          	sw	x12,4(x13) # 1004 <__bsg_grp_org_x>
80000264:	00072683          	lw	x13,0(x14)
80000268:	00179793          	slli	x15,x15,0x1
8000026c:	00001737          	lui	x14,0x1
80000270:	00b787b3          	add	x15,x15,x11
80000274:	00d72023          	sw	x13,0(x14) # 1000 <__bsg_grp_org_y>
80000278:	00001737          	lui	x14,0x1
8000027c:	00f72423          	sw	x15,8(x14) # 1008 <__bsg_id>
80000280:	00008067          	ret

80000284 <number>:
80000284:	fa010113          	addi	x2,x2,-96
80000288:	04812e23          	sw	x8,92(x2)
8000028c:	04912c23          	sw	x9,88(x2)
80000290:	05212a23          	sw	x18,84(x2)
80000294:	05312823          	sw	x19,80(x2)
80000298:	0407f813          	andi	x16,x15,64
8000029c:	1e080463          	beqz	x16,80000484 <number+0x200>
800002a0:	80001fb7          	lui	x31,0x80001
800002a4:	f80f8f93          	addi	x31,x31,-128 # 80000f80 <_bsg_dram_end_addr+0xfffffbd0>
800002a8:	0107f413          	andi	x8,x15,16
800002ac:	1a041e63          	bnez	x8,80000468 <number+0x1e4>
800002b0:	0017f813          	andi	x16,x15,1
800002b4:	0117f993          	andi	x19,x15,17
800002b8:	03000393          	li	x7,48
800002bc:	1a080a63          	beqz	x16,80000470 <number+0x1ec>
800002c0:	0027f813          	andi	x16,x15,2
800002c4:	0207f493          	andi	x9,x15,32
800002c8:	1c080463          	beqz	x16,80000490 <number+0x20c>
800002cc:	1c05c663          	bltz	x11,80000498 <number+0x214>
800002d0:	0047f813          	andi	x16,x15,4
800002d4:	20081863          	bnez	x16,800004e4 <number+0x260>
800002d8:	0087f793          	andi	x15,x15,8
800002dc:	00000913          	li	x18,0
800002e0:	00078663          	beqz	x15,800002ec <number+0x68>
800002e4:	fff68693          	addi	x13,x13,-1
800002e8:	02000913          	li	x18,32
800002ec:	00048c63          	beqz	x9,80000304 <number+0x80>
800002f0:	01000793          	li	x15,16
800002f4:	20f60a63          	beq	x12,x15,80000508 <number+0x284>
800002f8:	ff860793          	addi	x15,x12,-8
800002fc:	0017b793          	seqz	x15,x15
80000300:	40f686b3          	sub	x13,x13,x15
80000304:	1a059263          	bnez	x11,800004a8 <number+0x224>
80000308:	03000793          	li	x15,48
8000030c:	00f10623          	sb	x15,12(x2)
80000310:	00000313          	li	x6,0
80000314:	03000813          	li	x16,48
80000318:	00100293          	li	x5,1
8000031c:	00100e13          	li	x28,1
80000320:	00c10793          	addi	x15,x2,12
80000324:	00028e93          	mv	x29,x5
80000328:	00e2d463          	bge	x5,x14,80000330 <number+0xac>
8000032c:	00070e93          	mv	x29,x14
80000330:	41d686b3          	sub	x13,x13,x29
80000334:	fff68893          	addi	x17,x13,-1
80000338:	02099263          	bnez	x19,8000035c <number+0xd8>
8000033c:	00d505b3          	add	x11,x10,x13
80000340:	02000713          	li	x14,32
80000344:	1ed05263          	blez	x13,80000528 <number+0x2a4>
80000348:	00150513          	addi	x10,x10,1
8000034c:	fee50fa3          	sb	x14,-1(x10)
80000350:	feb51ce3          	bne	x10,x11,80000348 <number+0xc4>
80000354:	ffe00893          	li	x17,-2
80000358:	fff00693          	li	x13,-1
8000035c:	00090663          	beqz	x18,80000368 <number+0xe4>
80000360:	01250023          	sb	x18,0(x10)
80000364:	00150513          	addi	x10,x10,1
80000368:	00048a63          	beqz	x9,8000037c <number+0xf8>
8000036c:	00800713          	li	x14,8
80000370:	1ae60063          	beq	x12,x14,80000510 <number+0x28c>
80000374:	01000713          	li	x14,16
80000378:	16e60c63          	beq	x12,x14,800004f0 <number+0x26c>
8000037c:	04041463          	bnez	x8,800003c4 <number+0x140>
80000380:	00050713          	mv	x14,x10
80000384:	00100613          	li	x12,1
80000388:	1ad05863          	blez	x13,80000538 <number+0x2b4>
8000038c:	00170713          	addi	x14,x14,1
80000390:	40e606b3          	sub	x13,x12,x14
80000394:	011686b3          	add	x13,x13,x17
80000398:	fe770fa3          	sb	x7,-1(x14)
8000039c:	00d506b3          	add	x13,x10,x13
800003a0:	fed046e3          	bgtz	x13,8000038c <number+0x108>
800003a4:	fff8c713          	not	x14,x17
800003a8:	41f75713          	srai	x14,x14,0x1f
800003ac:	00e8f733          	and	x14,x17,x14
800003b0:	fff88693          	addi	x13,x17,-1
800003b4:	40e686b3          	sub	x13,x13,x14
800003b8:	00170713          	addi	x14,x14,1
800003bc:	00e50533          	add	x10,x10,x14
800003c0:	fff68893          	addi	x17,x13,-1
800003c4:	405e8733          	sub	x14,x29,x5
800003c8:	00e50733          	add	x14,x10,x14
800003cc:	03000613          	li	x12,48
800003d0:	15d2d863          	bge	x5,x29,80000520 <number+0x29c>
800003d4:	00150513          	addi	x10,x10,1
800003d8:	fec50fa3          	sb	x12,-1(x10)
800003dc:	fee51ce3          	bne	x10,x14,800003d4 <number+0x150>
800003e0:	006785b3          	add	x11,x15,x6
800003e4:	00070613          	mv	x12,x14
800003e8:	00100513          	li	x10,1
800003ec:	0080006f          	j	800003f4 <number+0x170>
800003f0:	0005c803          	lbu	x16,0(x11)
800003f4:	00160613          	addi	x12,x12,1
800003f8:	40c507b3          	sub	x15,x10,x12
800003fc:	006787b3          	add	x15,x15,x6
80000400:	ff060fa3          	sb	x16,-1(x12)
80000404:	00f707b3          	add	x15,x14,x15
80000408:	fff58593          	addi	x11,x11,-1
8000040c:	fef042e3          	bgtz	x15,800003f0 <number+0x16c>
80000410:	01c70533          	add	x10,x14,x28
80000414:	02d05e63          	blez	x13,80000450 <number+0x1cc>
80000418:	00050713          	mv	x14,x10
8000041c:	02000613          	li	x12,32
80000420:	00100693          	li	x13,1
80000424:	00170713          	addi	x14,x14,1
80000428:	40e687b3          	sub	x15,x13,x14
8000042c:	011787b3          	add	x15,x15,x17
80000430:	fec70fa3          	sb	x12,-1(x14)
80000434:	00f507b3          	add	x15,x10,x15
80000438:	fef046e3          	bgtz	x15,80000424 <number+0x1a0>
8000043c:	fff8c793          	not	x15,x17
80000440:	41f7d793          	srai	x15,x15,0x1f
80000444:	00f8f8b3          	and	x17,x17,x15
80000448:	00188893          	addi	x17,x17,1
8000044c:	01150533          	add	x10,x10,x17
80000450:	05c12403          	lw	x8,92(x2)
80000454:	05812483          	lw	x9,88(x2)
80000458:	05412903          	lw	x18,84(x2)
8000045c:	05012983          	lw	x19,80(x2)
80000460:	06010113          	addi	x2,x2,96
80000464:	00008067          	ret
80000468:	ffe7f793          	andi	x15,x15,-2
8000046c:	00040993          	mv	x19,x8
80000470:	0027f813          	andi	x16,x15,2
80000474:	02000393          	li	x7,32
80000478:	0207f493          	andi	x9,x15,32
8000047c:	00080a63          	beqz	x16,80000490 <number+0x20c>
80000480:	e4dff06f          	j	800002cc <number+0x48>
80000484:	80001fb7          	lui	x31,0x80001
80000488:	f58f8f93          	addi	x31,x31,-168 # 80000f58 <_bsg_dram_end_addr+0xfffffba8>
8000048c:	e1dff06f          	j	800002a8 <number+0x24>
80000490:	00000913          	li	x18,0
80000494:	e59ff06f          	j	800002ec <number+0x68>
80000498:	40b005b3          	neg	x11,x11
8000049c:	fff68693          	addi	x13,x13,-1
800004a0:	02d00913          	li	x18,45
800004a4:	e40496e3          	bnez	x9,800002f0 <number+0x6c>
800004a8:	00000313          	li	x6,0
800004ac:	00c10793          	addi	x15,x2,12
800004b0:	0080006f          	j	800004b8 <number+0x234>
800004b4:	000e0313          	mv	x6,x28
800004b8:	02c5f833          	remu	x16,x11,x12
800004bc:	00130e13          	addi	x28,x6,1 # 3001 <_gp+0x1801>
800004c0:	01c78f33          	add	x30,x15,x28
800004c4:	00058e93          	mv	x29,x11
800004c8:	000e0293          	mv	x5,x28
800004cc:	010f8833          	add	x16,x31,x16
800004d0:	00084803          	lbu	x16,0(x16) # 21040000 <_gp+0x2103e800>
800004d4:	02c5d5b3          	divu	x11,x11,x12
800004d8:	ff0f0fa3          	sb	x16,-1(x30)
800004dc:	fccefce3          	bgeu	x29,x12,800004b4 <number+0x230>
800004e0:	e45ff06f          	j	80000324 <number+0xa0>
800004e4:	fff68693          	addi	x13,x13,-1
800004e8:	02b00913          	li	x18,43
800004ec:	e01ff06f          	j	800002ec <number+0x68>
800004f0:	03000713          	li	x14,48
800004f4:	00e50023          	sb	x14,0(x10)
800004f8:	07800713          	li	x14,120
800004fc:	00e500a3          	sb	x14,1(x10)
80000500:	00250513          	addi	x10,x10,2
80000504:	e79ff06f          	j	8000037c <number+0xf8>
80000508:	ffe68693          	addi	x13,x13,-2
8000050c:	df9ff06f          	j	80000304 <number+0x80>
80000510:	03000713          	li	x14,48
80000514:	00e50023          	sb	x14,0(x10)
80000518:	00150513          	addi	x10,x10,1
8000051c:	e61ff06f          	j	8000037c <number+0xf8>
80000520:	00050713          	mv	x14,x10
80000524:	ebdff06f          	j	800003e0 <number+0x15c>
80000528:	ffe68713          	addi	x14,x13,-2
8000052c:	00088693          	mv	x13,x17
80000530:	00070893          	mv	x17,x14
80000534:	e29ff06f          	j	8000035c <number+0xd8>
80000538:	00088693          	mv	x13,x17
8000053c:	fff88893          	addi	x17,x17,-1
80000540:	e85ff06f          	j	800003c4 <number+0x140>

80000544 <uart_send_char>:
80000544:	400cf7b7          	lui	x15,0x400cf
80000548:	aca78e23          	sb	x10,-1316(x15) # 400ceadc <_gp+0x400cd2dc>
8000054c:	00008067          	ret

80000550 <bsg_printf>:
80000550:	e9010113          	addi	x2,x2,-368
80000554:	13312e23          	sw	x19,316(x2)
80000558:	14112623          	sw	x1,332(x2)
8000055c:	14812423          	sw	x8,328(x2)
80000560:	14912223          	sw	x9,324(x2)
80000564:	15212023          	sw	x18,320(x2)
80000568:	13412c23          	sw	x20,312(x2)
8000056c:	13512a23          	sw	x21,308(x2)
80000570:	13612823          	sw	x22,304(x2)
80000574:	13712623          	sw	x23,300(x2)
80000578:	13812423          	sw	x24,296(x2)
8000057c:	13912223          	sw	x25,292(x2)
80000580:	14b12a23          	sw	x11,340(x2)
80000584:	14c12c23          	sw	x12,344(x2)
80000588:	14d12e23          	sw	x13,348(x2)
8000058c:	16e12023          	sw	x14,352(x2)
80000590:	16f12223          	sw	x15,356(x2)
80000594:	17012423          	sw	x16,360(x2)
80000598:	17112623          	sw	x17,364(x2)
8000059c:	00054783          	lbu	x15,0(x10)
800005a0:	15410993          	addi	x19,x2,340
800005a4:	01312223          	sw	x19,4(x2)
800005a8:	74078663          	beqz	x15,80000cf4 <bsg_printf+0x7a4>
800005ac:	02010913          	addi	x18,x2,32
800005b0:	00001a37          	lui	x20,0x1
800005b4:	000014b7          	lui	x9,0x1
800005b8:	80001437          	lui	x8,0x80001
800005bc:	00050313          	mv	x6,x10
800005c0:	014a0a13          	addi	x20,x20,20 # 1014 <_tls_data>
800005c4:	00090513          	mv	x10,x18
800005c8:	05848493          	addi	x9,x9,88 # 1058 <_tls_data+0x44>
800005cc:	f5840413          	addi	x8,x8,-168 # 80000f58 <_bsg_dram_end_addr+0xfffffba8>
800005d0:	02500713          	li	x14,37
800005d4:	08e78a63          	beq	x15,x14,80000668 <bsg_printf+0x118>
800005d8:	00f50023          	sb	x15,0(x10)
800005dc:	00134783          	lbu	x15,1(x6)
800005e0:	00150513          	addi	x10,x10,1
800005e4:	00130313          	addi	x6,x6,1
800005e8:	fe0794e3          	bnez	x15,800005d0 <bsg_printf+0x80>
800005ec:	00050023          	sb	x0,0(x10)
800005f0:	400c06b7          	lui	x13,0x400c0
800005f4:	00100713          	li	x14,1
800005f8:	0c06a7af          	amoswap.w.aq	x15,x0,(x13)
800005fc:	fee78ee3          	beq	x15,x14,800005f8 <bsg_printf+0xa8>
80000600:	02014703          	lbu	x14,32(x2)
80000604:	6e070e63          	beqz	x14,80000d00 <bsg_printf+0x7b0>
80000608:	00100693          	li	x13,1
8000060c:	00090793          	mv	x15,x18
80000610:	400cf637          	lui	x12,0x400cf
80000614:	412686b3          	sub	x13,x13,x18
80000618:	00d78533          	add	x10,x15,x13
8000061c:	ace60e23          	sb	x14,-1316(x12) # 400ceadc <_gp+0x400cd2dc>
80000620:	00178793          	addi	x15,x15,1
80000624:	0007c703          	lbu	x14,0(x15)
80000628:	fe0718e3          	bnez	x14,80000618 <bsg_printf+0xc8>
8000062c:	400c07b7          	lui	x15,0x400c0
80000630:	0a07a02f          	amoswap.w.rl	x0,x0,(x15)
80000634:	14c12083          	lw	x1,332(x2)
80000638:	14812403          	lw	x8,328(x2)
8000063c:	14412483          	lw	x9,324(x2)
80000640:	14012903          	lw	x18,320(x2)
80000644:	13c12983          	lw	x19,316(x2)
80000648:	13812a03          	lw	x20,312(x2)
8000064c:	13412a83          	lw	x21,308(x2)
80000650:	13012b03          	lw	x22,304(x2)
80000654:	12c12b83          	lw	x23,300(x2)
80000658:	12812c03          	lw	x24,296(x2)
8000065c:	12412c83          	lw	x25,292(x2)
80000660:	17010113          	addi	x2,x2,368
80000664:	00008067          	ret
80000668:	00134583          	lbu	x11,1(x6)
8000066c:	01000693          	li	x13,16
80000670:	00000793          	li	x15,0
80000674:	fe058713          	addi	x14,x11,-32
80000678:	0ff77713          	andi	x14,x14,255
8000067c:	00130613          	addi	x12,x6,1
80000680:	02e6e863          	bltu	x13,x14,800006b0 <bsg_printf+0x160>
80000684:	00271713          	slli	x14,x14,0x2
80000688:	01470733          	add	x14,x14,x20
8000068c:	00072703          	lw	x14,0(x14)
80000690:	00070067          	jr	x14
80000694:	0017e793          	ori	x15,x15,1
80000698:	00060313          	mv	x6,x12
8000069c:	00134583          	lbu	x11,1(x6)
800006a0:	00130613          	addi	x12,x6,1
800006a4:	fe058713          	addi	x14,x11,-32
800006a8:	0ff77713          	andi	x14,x14,255
800006ac:	fce6fce3          	bgeu	x13,x14,80000684 <bsg_printf+0x134>
800006b0:	fd058713          	addi	x14,x11,-48
800006b4:	0ff77713          	andi	x14,x14,255
800006b8:	00900693          	li	x13,9
800006bc:	0ce6fa63          	bgeu	x13,x14,80000790 <bsg_printf+0x240>
800006c0:	02a00713          	li	x14,42
800006c4:	fff00693          	li	x13,-1
800006c8:	0ee58e63          	beq	x11,x14,800007c4 <bsg_printf+0x274>
800006cc:	02e00813          	li	x16,46
800006d0:	fff00713          	li	x14,-1
800006d4:	09058863          	beq	x11,x16,80000764 <bsg_printf+0x214>
800006d8:	0df5f813          	andi	x16,x11,223
800006dc:	04c00893          	li	x17,76
800006e0:	05180a63          	beq	x16,x17,80000734 <bsg_printf+0x1e4>
800006e4:	fbf58813          	addi	x16,x11,-65
800006e8:	0ff87813          	andi	x16,x16,255
800006ec:	03700893          	li	x17,55
800006f0:	2508e663          	bltu	x17,x16,8000093c <bsg_printf+0x3ec>
800006f4:	00281813          	slli	x16,x16,0x2
800006f8:	00980833          	add	x16,x16,x9
800006fc:	00082803          	lw	x16,0(x16)
80000700:	00080067          	jr	x16
80000704:	0107e793          	ori	x15,x15,16
80000708:	00060313          	mv	x6,x12
8000070c:	f91ff06f          	j	8000069c <bsg_printf+0x14c>
80000710:	0047e793          	ori	x15,x15,4
80000714:	00060313          	mv	x6,x12
80000718:	f85ff06f          	j	8000069c <bsg_printf+0x14c>
8000071c:	0207e793          	ori	x15,x15,32
80000720:	00060313          	mv	x6,x12
80000724:	f79ff06f          	j	8000069c <bsg_printf+0x14c>
80000728:	0087e793          	ori	x15,x15,8
8000072c:	00060313          	mv	x6,x12
80000730:	f6dff06f          	j	8000069c <bsg_printf+0x14c>
80000734:	00164303          	lbu	x6,1(x12)
80000738:	03700893          	li	x17,55
8000073c:	00160a93          	addi	x21,x12,1
80000740:	fbf30813          	addi	x16,x6,-65
80000744:	0ff87813          	andi	x16,x16,255
80000748:	1f08ee63          	bltu	x17,x16,80000944 <bsg_printf+0x3f4>
8000074c:	000018b7          	lui	x17,0x1
80000750:	00281813          	slli	x16,x16,0x2
80000754:	13888893          	addi	x17,x17,312 # 1138 <_tls_data+0x124>
80000758:	01180833          	add	x16,x16,x17
8000075c:	00082803          	lw	x16,0(x16)
80000760:	00080067          	jr	x16
80000764:	00164583          	lbu	x11,1(x12)
80000768:	00900893          	li	x17,9
8000076c:	00160813          	addi	x16,x12,1
80000770:	fd058713          	addi	x14,x11,-48
80000774:	0ff77713          	andi	x14,x14,255
80000778:	1ee8f663          	bgeu	x17,x14,80000964 <bsg_printf+0x414>
8000077c:	02a00713          	li	x14,42
80000780:	20e58c63          	beq	x11,x14,80000998 <bsg_printf+0x448>
80000784:	00080613          	mv	x12,x16
80000788:	00000713          	li	x14,0
8000078c:	f4dff06f          	j	800006d8 <bsg_printf+0x188>
80000790:	00000693          	li	x13,0
80000794:	00900813          	li	x16,9
80000798:	00269713          	slli	x14,x13,0x2
8000079c:	00d706b3          	add	x13,x14,x13
800007a0:	00160613          	addi	x12,x12,1
800007a4:	00169693          	slli	x13,x13,0x1
800007a8:	00b686b3          	add	x13,x13,x11
800007ac:	00064583          	lbu	x11,0(x12)
800007b0:	fd068693          	addi	x13,x13,-48 # 400bffd0 <_gp+0x400be7d0>
800007b4:	fd058713          	addi	x14,x11,-48
800007b8:	0ff77713          	andi	x14,x14,255
800007bc:	fce87ee3          	bgeu	x16,x14,80000798 <bsg_printf+0x248>
800007c0:	f0dff06f          	j	800006cc <bsg_printf+0x17c>
800007c4:	0009a683          	lw	x13,0(x19)
800007c8:	00230613          	addi	x12,x6,2
800007cc:	00234583          	lbu	x11,2(x6)
800007d0:	00498993          	addi	x19,x19,4
800007d4:	ee06dce3          	bgez	x13,800006cc <bsg_printf+0x17c>
800007d8:	40d006b3          	neg	x13,x13
800007dc:	0107e793          	ori	x15,x15,16
800007e0:	eedff06f          	j	800006cc <bsg_printf+0x17c>
800007e4:	00060a93          	mv	x21,x12
800007e8:	0407e793          	ori	x15,x15,64
800007ec:	01000613          	li	x12,16
800007f0:	00498813          	addi	x16,x19,4
800007f4:	0009a583          	lw	x11,0(x19)
800007f8:	00080993          	mv	x19,x16
800007fc:	a89ff0ef          	jal	x1,80000284 <number>
80000800:	001ac783          	lbu	x15,1(x21)
80000804:	001a8313          	addi	x6,x21,1
80000808:	dc0794e3          	bnez	x15,800005d0 <bsg_printf+0x80>
8000080c:	de1ff06f          	j	800005ec <bsg_printf+0x9c>
80000810:	00060a93          	mv	x21,x12
80000814:	00a00613          	li	x12,10
80000818:	fd9ff06f          	j	800007f0 <bsg_printf+0x2a0>
8000081c:	00060a93          	mv	x21,x12
80000820:	0009a603          	lw	x12,0(x19)
80000824:	00498993          	addi	x19,x19,4
80000828:	46060863          	beqz	x12,80000c98 <bsg_printf+0x748>
8000082c:	00064583          	lbu	x11,0(x12)
80000830:	50058663          	beqz	x11,80000d3c <bsg_printf+0x7ec>
80000834:	50070463          	beqz	x14,80000d3c <bsg_printf+0x7ec>
80000838:	00060593          	mv	x11,x12
8000083c:	00c0006f          	j	80000848 <bsg_printf+0x2f8>
80000840:	40e58833          	sub	x16,x11,x14
80000844:	00c80863          	beq	x16,x12,80000854 <bsg_printf+0x304>
80000848:	00158593          	addi	x11,x11,1
8000084c:	0005c803          	lbu	x16,0(x11)
80000850:	fe0818e3          	bnez	x16,80000840 <bsg_printf+0x2f0>
80000854:	0107f793          	andi	x15,x15,16
80000858:	40c585b3          	sub	x11,x11,x12
8000085c:	4a078a63          	beqz	x15,80000d10 <bsg_printf+0x7c0>
80000860:	52b05e63          	blez	x11,80000d9c <bsg_printf+0x84c>
80000864:	00b60833          	add	x16,x12,x11
80000868:	00050793          	mv	x15,x10
8000086c:	00160613          	addi	x12,x12,1
80000870:	fff64703          	lbu	x14,-1(x12)
80000874:	00178793          	addi	x15,x15,1 # 400c0001 <_gp+0x400be801>
80000878:	fee78fa3          	sb	x14,-1(x15)
8000087c:	ff0618e3          	bne	x12,x16,8000086c <bsg_printf+0x31c>
80000880:	00b50733          	add	x14,x10,x11
80000884:	40b68533          	sub	x10,x13,x11
80000888:	001a8313          	addi	x6,x21,1
8000088c:	00a70533          	add	x10,x14,x10
80000890:	02000793          	li	x15,32
80000894:	4cd5d863          	bge	x11,x13,80000d64 <bsg_printf+0x814>
80000898:	00170713          	addi	x14,x14,1
8000089c:	fef70fa3          	sb	x15,-1(x14)
800008a0:	fea71ce3          	bne	x14,x10,80000898 <bsg_printf+0x348>
800008a4:	001ac783          	lbu	x15,1(x21)
800008a8:	d20794e3          	bnez	x15,800005d0 <bsg_printf+0x80>
800008ac:	d41ff06f          	j	800005ec <bsg_printf+0x9c>
800008b0:	00060a93          	mv	x21,x12
800008b4:	fff00613          	li	x12,-1
800008b8:	3cc68a63          	beq	x13,x12,80000c8c <bsg_printf+0x73c>
800008bc:	0009a583          	lw	x11,0(x19)
800008c0:	01000613          	li	x12,16
800008c4:	00498993          	addi	x19,x19,4
800008c8:	9bdff0ef          	jal	x1,80000284 <number>
800008cc:	001ac783          	lbu	x15,1(x21)
800008d0:	001a8313          	addi	x6,x21,1
800008d4:	ce079ee3          	bnez	x15,800005d0 <bsg_printf+0x80>
800008d8:	d15ff06f          	j	800005ec <bsg_printf+0x9c>
800008dc:	00060a93          	mv	x21,x12
800008e0:	00800613          	li	x12,8
800008e4:	f0dff06f          	j	800007f0 <bsg_printf+0x2a0>
800008e8:	00060a93          	mv	x21,x12
800008ec:	0107f793          	andi	x15,x15,16
800008f0:	fff68693          	addi	x13,x13,-1
800008f4:	3a078863          	beqz	x15,80000ca4 <bsg_printf+0x754>
800008f8:	0009a603          	lw	x12,0(x19)
800008fc:	00150713          	addi	x14,x10,1
80000900:	00168793          	addi	x15,x13,1
80000904:	00c50023          	sb	x12,0(x10)
80000908:	00498993          	addi	x19,x19,4
8000090c:	00f50533          	add	x10,x10,x15
80000910:	001a8313          	addi	x6,x21,1
80000914:	00070793          	mv	x15,x14
80000918:	02000613          	li	x12,32
8000091c:	44d05463          	blez	x13,80000d64 <bsg_printf+0x814>
80000920:	00178793          	addi	x15,x15,1
80000924:	fec78fa3          	sb	x12,-1(x15)
80000928:	fea79ce3          	bne	x15,x10,80000920 <bsg_printf+0x3d0>
8000092c:	001ac783          	lbu	x15,1(x21)
80000930:	00d70533          	add	x10,x14,x13
80000934:	c8079ee3          	bnez	x15,800005d0 <bsg_printf+0x80>
80000938:	cb5ff06f          	j	800005ec <bsg_printf+0x9c>
8000093c:	00058313          	mv	x6,x11
80000940:	00060a93          	mv	x21,x12
80000944:	02500713          	li	x14,37
80000948:	00150793          	addi	x15,x10,1
8000094c:	30e30e63          	beq	x6,x14,80000c68 <bsg_printf+0x718>
80000950:	00e50023          	sb	x14,0(x10)
80000954:	000ac703          	lbu	x14,0(x21)
80000958:	40071e63          	bnez	x14,80000d74 <bsg_printf+0x824>
8000095c:	00078513          	mv	x10,x15
80000960:	c8dff06f          	j	800005ec <bsg_printf+0x9c>
80000964:	00000713          	li	x14,0
80000968:	00271613          	slli	x12,x14,0x2
8000096c:	00e60733          	add	x14,x12,x14
80000970:	00180813          	addi	x16,x16,1
80000974:	00171713          	slli	x14,x14,0x1
80000978:	00b70733          	add	x14,x14,x11
8000097c:	00084583          	lbu	x11,0(x16)
80000980:	fd070713          	addi	x14,x14,-48
80000984:	fd058613          	addi	x12,x11,-48
80000988:	0ff67613          	andi	x12,x12,255
8000098c:	fcc8fee3          	bgeu	x17,x12,80000968 <bsg_printf+0x418>
80000990:	00080613          	mv	x12,x16
80000994:	d45ff06f          	j	800006d8 <bsg_printf+0x188>
80000998:	0009a703          	lw	x14,0(x19)
8000099c:	00264583          	lbu	x11,2(x12)
800009a0:	00498993          	addi	x19,x19,4
800009a4:	fff74813          	not	x16,x14
800009a8:	41f85813          	srai	x16,x16,0x1f
800009ac:	01077733          	and	x14,x14,x16
800009b0:	00260613          	addi	x12,x12,2
800009b4:	d25ff06f          	j	800006d8 <bsg_printf+0x188>
800009b8:	06c00893          	li	x17,108
800009bc:	0027e793          	ori	x15,x15,2
800009c0:	00498813          	addi	x16,x19,4
800009c4:	00a00613          	li	x12,10
800009c8:	e31586e3          	beq	x11,x17,800007f4 <bsg_printf+0x2a4>
800009cc:	27c0006f          	j	80000c48 <bsg_printf+0x6f8>
800009d0:	06c00813          	li	x16,108
800009d4:	0009a703          	lw	x14,0(x19)
800009d8:	0407e793          	ori	x15,x15,64
800009dc:	00498993          	addi	x19,x19,4
800009e0:	33059463          	bne	x11,x16,80000d08 <bsg_printf+0x7b8>
800009e4:	80001337          	lui	x6,0x80001
800009e8:	f8030313          	addi	x6,x6,-128 # 80000f80 <_bsg_dram_end_addr+0xfffffbd0>
800009ec:	00810e13          	addi	x28,x2,8
800009f0:	01a10e93          	addi	x29,x2,26
800009f4:	000e0813          	mv	x16,x28
800009f8:	03a00f13          	li	x30,58
800009fc:	0080006f          	j	80000a04 <bsg_printf+0x4b4>
80000a00:	ffe80fa3          	sb	x30,-1(x16)
80000a04:	00074583          	lbu	x11,0(x14)
80000a08:	00380813          	addi	x16,x16,3
80000a0c:	00170713          	addi	x14,x14,1
80000a10:	0045d893          	srli	x17,x11,0x4
80000a14:	00f5f593          	andi	x11,x11,15
80000a18:	011308b3          	add	x17,x6,x17
80000a1c:	00b305b3          	add	x11,x6,x11
80000a20:	0008c883          	lbu	x17,0(x17)
80000a24:	0005c583          	lbu	x11,0(x11)
80000a28:	ff180ea3          	sb	x17,-3(x16)
80000a2c:	feb80f23          	sb	x11,-2(x16)
80000a30:	fdd818e3          	bne	x16,x29,80000a00 <bsg_printf+0x4b0>
80000a34:	0107f793          	andi	x15,x15,16
80000a38:	fff68593          	addi	x11,x13,-1
80000a3c:	02079663          	bnez	x15,80000a68 <bsg_printf+0x518>
80000a40:	fef68793          	addi	x15,x13,-17
80000a44:	01100813          	li	x16,17
80000a48:	00f507b3          	add	x15,x10,x15
80000a4c:	02000713          	li	x14,32
80000a50:	32d85e63          	bge	x16,x13,80000d8c <bsg_printf+0x83c>
80000a54:	00150513          	addi	x10,x10,1
80000a58:	fee50fa3          	sb	x14,-1(x10)
80000a5c:	fef51ce3          	bne	x10,x15,80000a54 <bsg_printf+0x504>
80000a60:	00f00593          	li	x11,15
80000a64:	01000693          	li	x13,16
80000a68:	00050813          	mv	x16,x10
80000a6c:	011e0893          	addi	x17,x28,17
80000a70:	00050793          	mv	x15,x10
80000a74:	000e4703          	lbu	x14,0(x28)
80000a78:	00178793          	addi	x15,x15,1
80000a7c:	001e0e13          	addi	x28,x28,1
80000a80:	fee78fa3          	sb	x14,-1(x15)
80000a84:	ffc898e3          	bne	x17,x28,80000a74 <bsg_printf+0x524>
80000a88:	01100793          	li	x15,17
80000a8c:	01150513          	addi	x10,x10,17
80000a90:	02d7d463          	bge	x15,x13,80000ab8 <bsg_printf+0x568>
80000a94:	02000893          	li	x17,32
80000a98:	01200693          	li	x13,18
80000a9c:	01100713          	li	x14,17
80000aa0:	00150513          	addi	x10,x10,1
80000aa4:	40a687b3          	sub	x15,x13,x10
80000aa8:	010787b3          	add	x15,x15,x16
80000aac:	ff150fa3          	sb	x17,-1(x10)
80000ab0:	00b787b3          	add	x15,x15,x11
80000ab4:	fef746e3          	blt	x14,x15,80000aa0 <bsg_printf+0x550>
80000ab8:	00264783          	lbu	x15,2(x12)
80000abc:	00260313          	addi	x6,x12,2
80000ac0:	b00798e3          	bnez	x15,800005d0 <bsg_printf+0x80>
80000ac4:	b29ff06f          	j	800005ec <bsg_printf+0x9c>
80000ac8:	06c00813          	li	x16,108
80000acc:	0009a703          	lw	x14,0(x19)
80000ad0:	00498993          	addi	x19,x19,4
80000ad4:	23059a63          	bne	x11,x16,80000d08 <bsg_printf+0x7b8>
80000ad8:	0407f593          	andi	x11,x15,64
80000adc:	00040313          	mv	x6,x8
80000ae0:	f00586e3          	beqz	x11,800009ec <bsg_printf+0x49c>
80000ae4:	f01ff06f          	j	800009e4 <bsg_printf+0x494>
80000ae8:	00060a93          	mv	x21,x12
80000aec:	01000613          	li	x12,16
80000af0:	d01ff06f          	j	800007f0 <bsg_printf+0x2a0>
80000af4:	0009a703          	lw	x14,0(x19)
80000af8:	00498993          	addi	x19,x19,4
80000afc:	00074583          	lbu	x11,0(x14)
80000b00:	00000893          	li	x17,0
80000b04:	00470313          	addi	x6,x14,4
80000b08:	06300f93          	li	x31,99
80000b0c:	00900393          	li	x7,9
80000b10:	00a00e93          	li	x29,10
80000b14:	06400293          	li	x5,100
80000b18:	03000f13          	li	x30,48
80000b1c:	02e00e13          	li	x28,46
80000b20:	00188813          	addi	x16,x17,1
80000b24:	02059a63          	bnez	x11,80000b58 <bsg_printf+0x608>
80000b28:	12010593          	addi	x11,x2,288
80000b2c:	011588b3          	add	x17,x11,x17
80000b30:	efe88423          	sb	x30,-280(x17)
80000b34:	00170713          	addi	x14,x14,1
80000b38:	06e30e63          	beq	x6,x14,80000bb4 <bsg_printf+0x664>
80000b3c:	12010593          	addi	x11,x2,288
80000b40:	010585b3          	add	x11,x11,x16
80000b44:	efc58423          	sb	x28,-280(x11)
80000b48:	00074583          	lbu	x11,0(x14)
80000b4c:	00180893          	addi	x17,x16,1
80000b50:	00188813          	addi	x16,x17,1
80000b54:	fc058ae3          	beqz	x11,80000b28 <bsg_printf+0x5d8>
80000b58:	16bfd663          	bge	x31,x11,80000cc4 <bsg_printf+0x774>
80000b5c:	0255ebb3          	rem	x23,x11,x5
80000b60:	12010a93          	addi	x21,x2,288
80000b64:	011a8cb3          	add	x25,x21,x17
80000b68:	010a8c33          	add	x24,x21,x16
80000b6c:	00288b13          	addi	x22,x17,2
80000b70:	00388813          	addi	x16,x17,3
80000b74:	0255cab3          	div	x21,x11,x5
80000b78:	03dbc8b3          	div	x17,x23,x29
80000b7c:	01540ab3          	add	x21,x8,x21
80000b80:	000ac583          	lbu	x11,0(x21)
80000b84:	eebc8423          	sb	x11,-280(x25)
80000b88:	03dbe5b3          	rem	x11,x23,x29
80000b8c:	011408b3          	add	x17,x8,x17
80000b90:	0008c883          	lbu	x17,0(x17)
80000b94:	ef1c0423          	sb	x17,-280(x24)
80000b98:	00b405b3          	add	x11,x8,x11
80000b9c:	0005c883          	lbu	x17,0(x11)
80000ba0:	12010593          	addi	x11,x2,288
80000ba4:	016585b3          	add	x11,x11,x22
80000ba8:	ef158423          	sb	x17,-280(x11)
80000bac:	00170713          	addi	x14,x14,1
80000bb0:	f8e316e3          	bne	x6,x14,80000b3c <bsg_printf+0x5ec>
80000bb4:	0107f793          	andi	x15,x15,16
80000bb8:	fff68893          	addi	x17,x13,-1
80000bbc:	02079663          	bnez	x15,80000be8 <bsg_printf+0x698>
80000bc0:	410687b3          	sub	x15,x13,x16
80000bc4:	00f507b3          	add	x15,x10,x15
80000bc8:	02000713          	li	x14,32
80000bcc:	1ad85863          	bge	x16,x13,80000d7c <bsg_printf+0x82c>
80000bd0:	00150513          	addi	x10,x10,1
80000bd4:	fee50fa3          	sb	x14,-1(x10)
80000bd8:	fea79ce3          	bne	x15,x10,80000bd0 <bsg_printf+0x680>
80000bdc:	40d806b3          	sub	x13,x16,x13
80000be0:	011686b3          	add	x13,x13,x17
80000be4:	fff68893          	addi	x17,x13,-1
80000be8:	00810793          	addi	x15,x2,8
80000bec:	01050733          	add	x14,x10,x16
80000bf0:	0007c583          	lbu	x11,0(x15)
80000bf4:	00150513          	addi	x10,x10,1
80000bf8:	00178793          	addi	x15,x15,1
80000bfc:	feb50fa3          	sb	x11,-1(x10)
80000c00:	fea718e3          	bne	x14,x10,80000bf0 <bsg_printf+0x6a0>
80000c04:	02d85463          	bge	x16,x13,80000c2c <bsg_printf+0x6dc>
80000c08:	00070513          	mv	x10,x14
80000c0c:	02000593          	li	x11,32
80000c10:	00100693          	li	x13,1
80000c14:	00150513          	addi	x10,x10,1
80000c18:	40a687b3          	sub	x15,x13,x10
80000c1c:	011787b3          	add	x15,x15,x17
80000c20:	feb50fa3          	sb	x11,-1(x10)
80000c24:	00f707b3          	add	x15,x14,x15
80000c28:	fef846e3          	blt	x16,x15,80000c14 <bsg_printf+0x6c4>
80000c2c:	00164783          	lbu	x15,1(x12)
80000c30:	00160313          	addi	x6,x12,1
80000c34:	98079ee3          	bnez	x15,800005d0 <bsg_printf+0x80>
80000c38:	9b5ff06f          	j	800005ec <bsg_printf+0x9c>
80000c3c:	0027e793          	ori	x15,x15,2
80000c40:	00498813          	addi	x16,x19,4
80000c44:	00060a93          	mv	x21,x12
80000c48:	0009a583          	lw	x11,0(x19)
80000c4c:	00a00613          	li	x12,10
80000c50:	00080993          	mv	x19,x16
80000c54:	ba9ff06f          	j	800007fc <bsg_printf+0x2ac>
80000c58:	0009a703          	lw	x14,0(x19)
80000c5c:	0407e793          	ori	x15,x15,64
80000c60:	00498993          	addi	x19,x19,4
80000c64:	e99ff06f          	j	80000afc <bsg_printf+0x5ac>
80000c68:	000ac703          	lbu	x14,0(x21)
80000c6c:	00078693          	mv	x13,x15
80000c70:	00050793          	mv	x15,x10
80000c74:	00068513          	mv	x10,x13
80000c78:	00e78023          	sb	x14,0(x15)
80000c7c:	001ac783          	lbu	x15,1(x21)
80000c80:	001a8313          	addi	x6,x21,1
80000c84:	940796e3          	bnez	x15,800005d0 <bsg_printf+0x80>
80000c88:	965ff06f          	j	800005ec <bsg_printf+0x9c>
80000c8c:	0017e793          	ori	x15,x15,1
80000c90:	00800693          	li	x13,8
80000c94:	c29ff06f          	j	800008bc <bsg_printf+0x36c>
80000c98:	80001637          	lui	x12,0x80001
80000c9c:	fa860613          	addi	x12,x12,-88 # 80000fa8 <_bsg_dram_end_addr+0xfffffbf8>
80000ca0:	b95ff06f          	j	80000834 <bsg_printf+0x2e4>
80000ca4:	00d50733          	add	x14,x10,x13
80000ca8:	02000793          	li	x15,32
80000cac:	0ad05263          	blez	x13,80000d50 <bsg_printf+0x800>
80000cb0:	00150513          	addi	x10,x10,1
80000cb4:	fef50fa3          	sb	x15,-1(x10)
80000cb8:	fee51ce3          	bne	x10,x14,80000cb0 <bsg_printf+0x760>
80000cbc:	fff00693          	li	x13,-1
80000cc0:	c39ff06f          	j	800008f8 <bsg_printf+0x3a8>
80000cc4:	00088b13          	mv	x22,x17
80000cc8:	ecb3d8e3          	bge	x7,x11,80000b98 <bsg_printf+0x648>
80000ccc:	03d5cab3          	div	x21,x11,x29
80000cd0:	12010b13          	addi	x22,x2,288
80000cd4:	011b0bb3          	add	x23,x22,x17
80000cd8:	00080b13          	mv	x22,x16
80000cdc:	00288813          	addi	x16,x17,2
80000ce0:	015408b3          	add	x17,x8,x21
80000ce4:	0008c883          	lbu	x17,0(x17)
80000ce8:	03d5e5b3          	rem	x11,x11,x29
80000cec:	ef1b8423          	sb	x17,-280(x23)
80000cf0:	ea9ff06f          	j	80000b98 <bsg_printf+0x648>
80000cf4:	02010913          	addi	x18,x2,32
80000cf8:	00090513          	mv	x10,x18
80000cfc:	8f1ff06f          	j	800005ec <bsg_printf+0x9c>
80000d00:	00000513          	li	x10,0
80000d04:	929ff06f          	j	8000062c <bsg_printf+0xdc>
80000d08:	000a8613          	mv	x12,x21
80000d0c:	df1ff06f          	j	80000afc <bsg_printf+0x5ac>
80000d10:	fff68813          	addi	x16,x13,-1
80000d14:	0ad5d263          	bge	x11,x13,80000db8 <bsg_printf+0x868>
80000d18:	40b687b3          	sub	x15,x13,x11
80000d1c:	00f507b3          	add	x15,x10,x15
80000d20:	02000713          	li	x14,32
80000d24:	00150513          	addi	x10,x10,1
80000d28:	fee50fa3          	sb	x14,-1(x10)
80000d2c:	fef51ce3          	bne	x10,x15,80000d24 <bsg_printf+0x7d4>
80000d30:	40d586b3          	sub	x13,x11,x13
80000d34:	010686b3          	add	x13,x13,x16
80000d38:	b29ff06f          	j	80000860 <bsg_printf+0x310>
80000d3c:	0107f593          	andi	x11,x15,16
80000d40:	06058263          	beqz	x11,80000da4 <bsg_printf+0x854>
80000d44:	00050713          	mv	x14,x10
80000d48:	00000593          	li	x11,0
80000d4c:	b39ff06f          	j	80000884 <bsg_printf+0x334>
80000d50:	0009a783          	lw	x15,0(x19)
80000d54:	00150713          	addi	x14,x10,1
80000d58:	00498993          	addi	x19,x19,4
80000d5c:	00f50023          	sb	x15,0(x10)
80000d60:	001a8313          	addi	x6,x21,1
80000d64:	001ac783          	lbu	x15,1(x21)
80000d68:	00070513          	mv	x10,x14
80000d6c:	860792e3          	bnez	x15,800005d0 <bsg_printf+0x80>
80000d70:	87dff06f          	j	800005ec <bsg_printf+0x9c>
80000d74:	00250513          	addi	x10,x10,2
80000d78:	f01ff06f          	j	80000c78 <bsg_printf+0x728>
80000d7c:	ffe68793          	addi	x15,x13,-2
80000d80:	00088693          	mv	x13,x17
80000d84:	00078893          	mv	x17,x15
80000d88:	e61ff06f          	j	80000be8 <bsg_printf+0x698>
80000d8c:	ffe68793          	addi	x15,x13,-2
80000d90:	00058693          	mv	x13,x11
80000d94:	00078593          	mv	x11,x15
80000d98:	cd1ff06f          	j	80000a68 <bsg_printf+0x518>
80000d9c:	00050713          	mv	x14,x10
80000da0:	ae5ff06f          	j	80000884 <bsg_printf+0x334>
80000da4:	fff68813          	addi	x16,x13,-1
80000da8:	f6d048e3          	bgtz	x13,80000d18 <bsg_printf+0x7c8>
80000dac:	00080693          	mv	x13,x16
80000db0:	00050713          	mv	x14,x10
80000db4:	ad1ff06f          	j	80000884 <bsg_printf+0x334>
80000db8:	00080693          	mv	x13,x16
80000dbc:	aa5ff06f          	j	80000860 <bsg_printf+0x310>

80000dc0 <memset>:
80000dc0:	00f00313          	li	x6,15
80000dc4:	00050713          	mv	x14,x10
80000dc8:	02c37e63          	bgeu	x6,x12,80000e04 <memset+0x44>
80000dcc:	00f77793          	andi	x15,x14,15
80000dd0:	0a079063          	bnez	x15,80000e70 <memset+0xb0>
80000dd4:	08059263          	bnez	x11,80000e58 <memset+0x98>
80000dd8:	ff067693          	andi	x13,x12,-16
80000ddc:	00f67613          	andi	x12,x12,15
80000de0:	00e686b3          	add	x13,x13,x14
80000de4:	00b72023          	sw	x11,0(x14)
80000de8:	00b72223          	sw	x11,4(x14)
80000dec:	00b72423          	sw	x11,8(x14)
80000df0:	00b72623          	sw	x11,12(x14)
80000df4:	01070713          	addi	x14,x14,16
80000df8:	fed766e3          	bltu	x14,x13,80000de4 <memset+0x24>
80000dfc:	00061463          	bnez	x12,80000e04 <memset+0x44>
80000e00:	00008067          	ret
80000e04:	40c306b3          	sub	x13,x6,x12
80000e08:	00269693          	slli	x13,x13,0x2
80000e0c:	00000297          	auipc	x5,0x0
80000e10:	005686b3          	add	x13,x13,x5
80000e14:	00c68067          	jr	12(x13)
80000e18:	00b70723          	sb	x11,14(x14)
80000e1c:	00b706a3          	sb	x11,13(x14)
80000e20:	00b70623          	sb	x11,12(x14)
80000e24:	00b705a3          	sb	x11,11(x14)
80000e28:	00b70523          	sb	x11,10(x14)
80000e2c:	00b704a3          	sb	x11,9(x14)
80000e30:	00b70423          	sb	x11,8(x14)
80000e34:	00b703a3          	sb	x11,7(x14)
80000e38:	00b70323          	sb	x11,6(x14)
80000e3c:	00b702a3          	sb	x11,5(x14)
80000e40:	00b70223          	sb	x11,4(x14)
80000e44:	00b701a3          	sb	x11,3(x14)
80000e48:	00b70123          	sb	x11,2(x14)
80000e4c:	00b700a3          	sb	x11,1(x14)
80000e50:	00b70023          	sb	x11,0(x14)
80000e54:	00008067          	ret
80000e58:	0ff5f593          	andi	x11,x11,255
80000e5c:	00859693          	slli	x13,x11,0x8
80000e60:	00d5e5b3          	or	x11,x11,x13
80000e64:	01059693          	slli	x13,x11,0x10
80000e68:	00d5e5b3          	or	x11,x11,x13
80000e6c:	f6dff06f          	j	80000dd8 <memset+0x18>
80000e70:	00279693          	slli	x13,x15,0x2
80000e74:	00000297          	auipc	x5,0x0
80000e78:	005686b3          	add	x13,x13,x5
80000e7c:	00008293          	mv	x5,x1
80000e80:	fa0680e7          	jalr	-96(x13)
80000e84:	00028093          	mv	x1,x5
80000e88:	ff078793          	addi	x15,x15,-16
80000e8c:	40f70733          	sub	x14,x14,x15
80000e90:	00f60633          	add	x12,x12,x15
80000e94:	f6c378e3          	bgeu	x6,x12,80000e04 <memset+0x44>
80000e98:	f3dff06f          	j	80000dd4 <memset+0x14>

80000e9c <main>:
80000e9c:	bf010113          	addi	x2,x2,-1040
80000ea0:	40812423          	sw	x8,1032(x2)
80000ea4:	40912223          	sw	x9,1028(x2)
80000ea8:	40112623          	sw	x1,1036(x2)
80000eac:	00001437          	lui	x8,0x1
80000eb0:	af4ff0ef          	jal	x1,800001a4 <bsg_set_tile_x_y>
80000eb4:	000014b7          	lui	x9,0x1
80000eb8:	01042783          	lw	x15,16(x8) # 1010 <__bsg_x>
80000ebc:	00c4a703          	lw	x14,12(x9) # 100c <__bsg_y>
80000ec0:	00e7e7b3          	or	x15,x15,x14
80000ec4:	08079263          	bnez	x15,80000f48 <main+0xac>
80000ec8:	40000613          	li	x12,1024
80000ecc:	00000593          	li	x11,0
80000ed0:	00010513          	mv	x10,x2
80000ed4:	eedff0ef          	jal	x1,80000dc0 <memset>
80000ed8:	800017b7          	lui	x15,0x80001
80000edc:	fb078793          	addi	x15,x15,-80 # 80000fb0 <_bsg_dram_end_addr+0xfffffc00>
80000ee0:	00010713          	mv	x14,x2
80000ee4:	40078613          	addi	x12,x15,1024
80000ee8:	00010693          	mv	x13,x2
80000eec:	0007a787          	flw	f15,0(x15)
80000ef0:	00468693          	addi	x13,x13,4
80000ef4:	00478793          	addi	x15,x15,4
80000ef8:	fef6ae27          	fsw	f15,-4(x13)
80000efc:	fec798e3          	bne	x15,x12,80000eec <main+0x50>
80000f00:	00000593          	li	x11,0
80000f04:	40010793          	addi	x15,x2,1024
80000f08:	00072787          	flw	f15,0(x14)
80000f0c:	f0058753          	fmv.w.x	f14,x11
80000f10:	00470713          	addi	x14,x14,4
80000f14:	00f777d3          	fadd.s	f15,f14,f15
80000f18:	e00785d3          	fmv.x.w	x11,f15
80000f1c:	fef716e3          	bne	x14,x15,80000f08 <main+0x6c>
80000f20:	80001537          	lui	x10,0x80001
80000f24:	f4c50513          	addi	x10,x10,-180 # 80000f4c <_bsg_dram_end_addr+0xfffffb9c>
80000f28:	e28ff0ef          	jal	x1,80000550 <bsg_printf>
80000f2c:	00c4a783          	lw	x15,12(x9)
80000f30:	01042703          	lw	x14,16(x8)
80000f34:	01079793          	slli	x15,x15,0x10
80000f38:	00e787b3          	add	x15,x15,x14
80000f3c:	400cf737          	lui	x14,0x400cf
80000f40:	acf72823          	sw	x15,-1328(x14) # 400cead0 <_gp+0x400cd2d0>
80000f44:	0000006f          	j	80000f44 <main+0xa8>
80000f48:	0000006f          	j	80000f48 <main+0xac>
80000f4c:	3a6d7573          	csrrci	x10,0x3a6,26
80000f50:	2520                	fld	f8,72(x10)
80000f52:	0a78                	addi	x14,x2,284
80000f54:	0000                	unimp
80000f56:	0000                	unimp
80000f58:	3130                	fld	f12,96(x10)
80000f5a:	3332                	fld	f6,296(x2)
80000f5c:	3534                	fld	f13,104(x10)
80000f5e:	3736                	fld	f14,360(x2)
80000f60:	3938                	fld	f14,112(x10)
80000f62:	6261                	lui	x4,0x18
80000f64:	66656463          	bltu	x10,x6,800015cc <_bsg_dram_end_addr+0x21c>
80000f68:	6a696867          	0x6a696867
80000f6c:	6e6d6c6b          	0x6e6d6c6b
80000f70:	7271706f          	j	80018e96 <_bsg_dram_end_addr+0x17ae6>
80000f74:	76757473          	csrrci	x8,0x767,10
80000f78:	7a797877          	0x7a797877
80000f7c:	0000                	unimp
80000f7e:	0000                	unimp
80000f80:	3130                	fld	f12,96(x10)
80000f82:	3332                	fld	f6,296(x2)
80000f84:	3534                	fld	f13,104(x10)
80000f86:	3736                	fld	f14,360(x2)
80000f88:	3938                	fld	f14,112(x10)
80000f8a:	4241                	li	x4,16
80000f8c:	46454443          	fmadd.q	f8,f10,f4,f8,rmm
80000f90:	4a494847          	fmsub.d	f16,f18,f4,f9,rmm
80000f94:	4e4d4c4b          	fnmsub.q	f24,f26,f4,f9,rmm
80000f98:	5251504f          	fnmadd.d	f0,f2,f5,f10,unknown
80000f9c:	56555453          	0x56555453
80000fa0:	5a595857          	0x5a595857
80000fa4:	0000                	unimp
80000fa6:	0000                	unimp
80000fa8:	4e3c                	lw	x15,88(x12)
80000faa:	4c55                	li	x24,21
80000fac:	3e4c                	fld	f11,184(x12)
	...

80000fb0 <data>:
80000fb0:	c4cc                	sw	x11,12(x9)
80000fb2:	4289                	li	x5,2
80000fb4:	5d10                	lw	x12,56(x10)
80000fb6:	424e                	lw	x4,208(x2)
80000fb8:	c17e2bc3          	fmadd.s	f23,f28,f23,f24,rdn
80000fbc:	ddd9                	beqz	x11,80000f5a <main+0xbe>
80000fbe:	c240                	sw	x8,4(x12)
80000fc0:	5101                	li	x2,-32
80000fc2:	4010                	lw	x12,0(x8)
80000fc4:	1afa                	slli	x21,x21,0x3e
80000fc6:	c198                	sw	x14,0(x11)
80000fc8:	09f4                	addi	x13,x2,220
80000fca:	598e4263          	blt	x28,x24,8000154e <_bsg_dram_end_addr+0x19e>
80000fce:	c21d                	beqz	x12,80000ff4 <data+0x44>
80000fd0:	c78d                	beqz	x15,80000ffa <data+0x4a>
80000fd2:	c095                	beqz	x9,80000ff6 <data+0x46>
80000fd4:	6949                	lui	x18,0x12
80000fd6:	4185                	li	x3,1
80000fd8:	3ec2                	fld	f29,48(x2)
80000fda:	f78c42a3          	0xf78c42a3
80000fde:	879c3f6f          	jal	x30,7ffc4856 <_gp+0x7ffc3056>
80000fe2:	c22e                	sw	x11,4(x2)
80000fe4:	a4b4                	fsd	f13,72(x9)
80000fe6:	424c                	lw	x11,4(x12)
80000fe8:	63f1                	lui	x7,0x1c
80000fea:	41bd                	li	x3,15
80000fec:	984d                	andi	x8,x8,-13
80000fee:	e604c247          	fmsub.q	f4,f9,f0,f28,rmm
80000ff2:	1d3c42a3          	0x1d3c42a3
80000ff6:	42c1                	li	x5,16
80000ff8:	2c7d                	jal	800012b6 <data+0x306>
80000ffa:	4278                	lw	x14,68(x12)
80000ffc:	42a0ddcb          	fnmsub.d	f27,f1,f10,f8,unknown
80001000:	c217e1c7          	fmsub.d	f3,f15,f1,f24,unknown
80001004:	4237dd8b          	0x4237dd8b
80001008:	890a                	mv	x18,x2
8000100a:	429f 2fe9 4213      	0x42132fe9429f
80001010:	4960                	lw	x8,84(x10)
80001012:	c0b2                	sw	x12,64(x2)
80001014:	b832                	fsd	f12,48(x2)
80001016:	c29f a66f c152      	0xc152a66fc29f
8000101c:	6b4e                	flw	f22,208(x2)
8000101e:	41b1                	li	x3,12
80001020:	3455                	jal	80000ac4 <bsg_printf+0x574>
80001022:	42a5                	li	x5,9
80001024:	a47e                	fsd	f31,8(x2)
80001026:	42ba                	lw	x5,140(x2)
80001028:	c093232f          	amominu.w	x6,x9,(x6)
8000102c:	1fbd                	addi	x31,x31,-17
8000102e:	4292                	lw	x5,4(x2)
80001030:	9b2d                	andi	x14,x14,-21
80001032:	05b3c23f d6784274 	0xd678427405b3c23f
8000103a:	6221411b          	0x6221411b
8000103e:	c2c2                	sw	x16,68(x2)
80001040:	c385                	beqz	x15,80001060 <data+0xb0>
80001042:	e1e1422f          	0xe1e1422f
80001046:	c1a1                	beqz	x11,80001086 <data+0xd6>
80001048:	f020                	fsw	f8,96(x8)
8000104a:	4281                	li	x5,0
8000104c:	85c6                	mv	x11,x17
8000104e:	4206                	lw	x4,64(x2)
80001050:	8afa                	mv	x21,x30
80001052:	681bc2c7          	fmsub.s	f5,f23,f1,f13,rmm
80001056:	bfa4                	fsd	f9,120(x15)
80001058:	0a86                	slli	x21,x21,0x1
8000105a:	df0e4293          	xori	x5,x28,-528
8000105e:	c24c                	sw	x11,4(x12)
80001060:	d625                	beqz	x12,80000fc8 <data+0x18>
80001062:	3041c20b          	0x3041c20b
80001066:	4294                	lw	x13,0(x13)
80001068:	2576                	fld	f10,344(x2)
8000106a:	08ccc277          	0x8ccc277
8000106e:	4158                	lw	x14,4(x10)
80001070:	1b75                	addi	x22,x22,-3
80001072:	c251                	beqz	x12,800010f6 <data+0x146>
80001074:	041f 42bb 8b28      	0x8b2842bb041f
8000107a:	4272                	lw	x4,28(x2)
8000107c:	7f54                	flw	f13,60(x14)
8000107e:	c126                	sw	x9,128(x2)
80001080:	d259                	beqz	x12,80001006 <data+0x56>
80001082:	f4d1c2a7          	fsq	f13,-187(x3)
80001086:	47d0c20f          	0x47d0c20f
8000108a:	222f3fcb          	fnmsub.d	f31,f30,f2,f4,rup
8000108e:	42ad                	li	x5,11
80001090:	607a                	flw	f0,156(x2)
80001092:	c29c                	sw	x15,0(x13)
80001094:	0e21                	addi	x28,x28,8
80001096:	4124                	lw	x9,64(x10)
80001098:	42253fc7          	fmsub.d	f31,f10,f2,f8,rup
8000109c:	cf98                	sw	x14,24(x15)
8000109e:	92d04117          	auipc	x2,0x92d04
800010a2:	e854427b          	0xe854427b
800010a6:	4100                	lw	x8,0(x10)
800010a8:	8911                	andi	x10,x10,4
800010aa:	42b9                	li	x5,14
800010ac:	18d6                	slli	x17,x17,0x35
800010ae:	41a5                	li	x3,9
800010b0:	418c2ff3          	csrrs	x31,0x418,x24
800010b4:	08fe                	slli	x17,x17,0x1f
800010b6:	c130                	sw	x12,64(x10)
800010b8:	0f19                	addi	x30,x30,6
800010ba:	419a                	lw	x3,132(x2)
800010bc:	287e                	fld	f16,472(x2)
800010be:	c1b8                	sw	x14,64(x11)
800010c0:	1550                	addi	x12,x2,676
800010c2:	4172                	lw	x2,28(x2)
800010c4:	bc85                	j	80000b34 <bsg_printf+0x5e4>
800010c6:	7ca8c227          	fsq	f10,1988(x17)
800010ca:	c278                	sw	x14,68(x12)
800010cc:	c27a9dcb          	fnmsub.d	f27,f21,f7,f24,rtz
800010d0:	6fe5                	lui	x31,0x19
800010d2:	41b4                	lw	x13,64(x11)
800010d4:	a7b0                	fsd	f12,72(x15)
800010d6:	41fa                	lw	x3,156(x2)
800010d8:	33a0                	fld	f8,96(x15)
800010da:	c096                	sw	x5,64(x2)
800010dc:	11fc                	addi	x15,x2,236
800010de:	c2a4                	sw	x9,64(x13)
800010e0:	1548                	addi	x10,x2,676
800010e2:	424e                	lw	x4,208(x2)
800010e4:	b549                	j	80000f66 <main+0xca>
800010e6:	4296                	lw	x5,68(x2)
800010e8:	42a95a37          	lui	x20,0x42a95
800010ec:	fbed                	bnez	x15,800010de <data+0x12e>
800010ee:	4288                	lw	x10,0(x13)
800010f0:	44ed                	li	x9,27
800010f2:	429f 3ba4 42a9      	0x42a93ba4429f
800010f8:	eb75                	bnez	x14,800011ec <data+0x23c>
800010fa:	4101                	li	x2,0
800010fc:	c1aded23          	0xc1aded23
80001100:	3a0a                	fld	f20,160(x2)
80001102:	4224                	lw	x9,64(x12)
80001104:	7e22                	flw	f28,40(x2)
80001106:	4d8fc233          	0x4d8fc233
8000110a:	4279                	li	x4,30
8000110c:	cb5d                	beqz	x14,800011c2 <data+0x212>
8000110e:	03fd428b          	0x3fd428b
80001112:	429e                	lw	x5,196(x2)
80001114:	ae91                	j	80001468 <_bsg_dram_end_addr+0xb8>
80001116:	e7ec418f          	0xe7ec418f
8000111a:	062742b3          	0x62742b3
8000111e:	417f                	0x417f
80001120:	32b4                	fld	f13,96(x13)
80001122:	c11e                	sw	x7,128(x2)
80001124:	3241                	jal	80000aa4 <bsg_printf+0x554>
80001126:	4200                	lw	x8,0(x12)
80001128:	80ce                	mv	x1,x19
8000112a:	42c6                	lw	x5,80(x2)
8000112c:	c6c8                	sw	x10,12(x13)
8000112e:	42a6                	lw	x5,72(x2)
80001130:	a8fa                	fsd	f30,80(x2)
80001132:	426a                	lw	x4,152(x2)
80001134:	0d01                	addi	x26,x26,0
80001136:	73f6c2a7          	fsq	f31,1829(x13)
8000113a:	41b4                	lw	x13,64(x11)
8000113c:	83a5                	srli	x15,x15,0x9
8000113e:	c02d                	beqz	x8,800011a0 <data+0x1f0>
80001140:	3c5a                	fld	f24,432(x2)
80001142:	41d0                	lw	x12,4(x11)
80001144:	07f2                	slli	x15,x15,0x1c
80001146:	428a                	lw	x5,128(x2)
80001148:	924e                	add	x4,x4,x19
8000114a:	c24d                	beqz	x12,800011ec <data+0x23c>
8000114c:	30fe                	fld	f1,504(x2)
8000114e:	4239                	li	x4,14
80001150:	c2992573          	csrrs	x10,0xc29,x18
80001154:	c25fa1af          	amominu.w.rl	x3,x5,(x31)
80001158:	aa98                	fsd	f14,16(x13)
8000115a:	f899426b          	0xf899426b
8000115e:	c205                	beqz	x12,8000117e <data+0x1ce>
80001160:	bb00                	fsd	f8,48(x14)
80001162:	427c                	lw	x15,68(x12)
80001164:	c1ca                	sw	x18,192(x2)
80001166:	c29f 74e4 c28d      	0xc28d74e4c29f
8000116c:	22f2                	fld	f5,280(x2)
8000116e:	421e                	lw	x4,196(x2)
80001170:	e808                	fsw	f10,16(x8)
80001172:	c2b5                	beqz	x13,800011d6 <data+0x226>
80001174:	5f0e                	lw	x30,224(x2)
80001176:	416c                	lw	x11,68(x10)
80001178:	01a4                	addi	x9,x2,200
8000117a:	42a4                	lw	x9,64(x13)
8000117c:	ddf4                	sw	x13,124(x11)
8000117e:	40da                	lw	x1,148(x2)
80001180:	78a8                	flw	f10,112(x9)
80001182:	4210                	lw	x12,0(x12)
80001184:	5240                	lw	x8,36(x12)
80001186:	c2bd                	beqz	x13,800011ec <data+0x23c>
80001188:	41d7fff7          	0x41d7fff7
8000118c:	2438                	fld	f14,72(x8)
8000118e:	41aa                	lw	x3,136(x2)
80001190:	0ca8                	addi	x10,x2,600
80001192:	10a04173          	0x10a04173
80001196:	c1ae                	sw	x11,192(x2)
80001198:	c6ae                	sw	x11,76(x2)
8000119a:	34e8c1cf          	0x34e8c1cf
8000119e:	42c0                	lw	x8,4(x13)
800011a0:	7175                	addi	x2,x2,-144
800011a2:	c2b9                	beqz	x13,800011e8 <data+0x238>
800011a4:	586c                	lw	x11,116(x8)
800011a6:	699ac2bf 05bf42b8 	0x5bf42b8699ac2bf
800011ae:	c27c                	sw	x15,68(x12)
800011b0:	c2967123          	0xc2967123
800011b4:	89ee                	mv	x19,x27
800011b6:	98e7c267          	0x98e7c267
800011ba:	4270                	lw	x12,68(x12)
800011bc:	c9a4                	sw	x9,80(x11)
800011be:	42ae                	lw	x5,200(x2)
800011c0:	e310                	fsw	f12,0(x14)
800011c2:	c2be                	sw	x15,68(x2)
800011c4:	050e                	slli	x10,x10,0x3
800011c6:	c16e                	sw	x27,128(x2)
800011c8:	6661                	lui	x12,0x18
800011ca:	c29f 1068 c240      	0xc2401068c29f
800011d0:	562a                	lw	x12,168(x2)
800011d2:	c25f 14c6 41eb      	0x41eb14c6c25f
800011d8:	8798                	0x8798
800011da:	bee5c1ef          	jal	x3,7ff5d5c8 <_gp+0x7ff5bdc8>
800011de:	c27f                	0xc27f
800011e0:	3066                	fld	f0,120(x2)
800011e2:	3f3a                	fld	f30,424(x2)
800011e4:	3f9f c2b8 a1aa      	0xa1aac2b83f9f
800011ea:	c29f 4b48 42c3      	0x42c34b48c29f
800011f0:	c27083ef          	jal	x7,7ff09e16 <_gp+0x7ff08616>
800011f4:	4fc0                	lw	x8,28(x15)
800011f6:	c1e2                	sw	x24,192(x2)
800011f8:	4755                	li	x14,21
800011fa:	4239                	li	x4,14
800011fc:	54a4                	lw	x9,104(x9)
800011fe:	64904287          	flq	f5,1609(x0) # 649 <bsg_group_size+0x645>
80001202:	3aec42a7          	fsq	f14,933(x24)
80001206:	c284                	sw	x9,0(x13)
80001208:	1cca                	slli	x25,x25,0x32
8000120a:	420a                	lw	x4,128(x2)
8000120c:	9e9c                	0x9e9c
8000120e:	42ba                	lw	x5,140(x2)
80001210:	c795                	beqz	x15,8000123c <data+0x28c>
80001212:	c2b0                	sw	x12,64(x13)
80001214:	f620                	fsw	f8,104(x12)
80001216:	420c                	lw	x11,0(x12)
80001218:	428a2b7b          	0x428a2b7b
8000121c:	4cc9                	li	x25,18
8000121e:	c1fc                	sw	x15,68(x11)
80001220:	733c                	flw	f15,96(x14)
80001222:	ddc1c247          	0xddc1c247
80001226:	419a                	lw	x3,132(x2)
80001228:	9858                	0x9858
8000122a:	c138                	sw	x14,64(x10)
8000122c:	127c                	addi	x15,x2,300
8000122e:	c282                	sw	x0,68(x2)
80001230:	98ec                	0x98ec
80001232:	c0b5                	beqz	x9,80001296 <data+0x2e6>
80001234:	26c0                	fld	f8,136(x13)
80001236:	c190                	sw	x12,0(x11)
80001238:	2928                	fld	f10,80(x10)
8000123a:	415d                	li	x2,23
8000123c:	29d0                	fld	f12,144(x11)
8000123e:	3fdc                	fld	f15,184(x15)
80001240:	d7dc                	sw	x15,44(x15)
80001242:	c216                	sw	x5,4(x2)
80001244:	c1e48eab          	0xc1e48eab
80001248:	1081                	addi	x1,x1,-32
8000124a:	40fd4287          	flq	f5,1039(x26)
8000124e:	ebb3c247          	fmsub.d	f4,f7,f27,f29,rmm
80001252:	4141                	li	x2,16
80001254:	0685                	addi	x13,x13,1
80001256:	426fc2c3          	fmadd.d	f5,f31,f6,f8,rmm
8000125a:	4241                	li	x4,16
8000125c:	444a                	lw	x8,144(x2)
8000125e:	b8aec203          	lbu	x4,-1142(x29)
80001262:	c2b5                	beqz	x13,800012c6 <data+0x316>
80001264:	4b21                	li	x22,8
80001266:	e54bc22f          	0xe54bc22f
8000126a:	4072c24f          	fnmadd.s	f4,f5,f7,f8,rmm
8000126e:	42b5                	li	x5,13
80001270:	7069                	c.lui	x0,0xffffa
80001272:	c1ec                	sw	x11,68(x11)
80001274:	b29a                	fsd	f6,352(x2)
80001276:	c229                	beqz	x12,800012b8 <data+0x308>
80001278:	4731                	li	x14,12
8000127a:	c1e1                	beqz	x11,8000133a <data+0x38a>
8000127c:	c328                	sw	x10,64(x14)
8000127e:	42b2                	lw	x5,12(x2)
80001280:	ff1f 41d5 b913      	0xb91341d5ff1f
80001286:	41c1                	li	x3,16
80001288:	7ed8                	flw	f14,60(x13)
8000128a:	422c                	lw	x11,64(x12)
8000128c:	2c24                	fld	f9,88(x8)
8000128e:	ee64c1b3          	0xee64c1b3
80001292:	c188                	sw	x10,0(x11)
80001294:	5524                	lw	x9,104(x10)
80001296:	41f1                	li	x3,28
80001298:	c2c763eb          	0xc2c763eb
8000129c:	2702                	fld	f14,0(x2)
8000129e:	c276                	sw	x29,4(x2)
800012a0:	7a89                	lui	x21,0xfffe2
800012a2:	c204                	sw	x9,0(x12)
800012a4:	779d                	lui	x15,0xfffe7
800012a6:	c250                	sw	x12,4(x12)
800012a8:	41dbd6cb          	fnmsub.s	f13,f23,f29,f8,unknown
800012ac:	29c0                	fld	f8,144(x11)
800012ae:	c1c2                	sw	x16,192(x2)
800012b0:	42962b5b          	0x42962b5b
800012b4:	15a5                	addi	x11,x11,-23
800012b6:	415a                	lw	x2,148(x2)
800012b8:	f324                	fsw	f9,96(x14)
800012ba:	c188                	sw	x10,0(x11)
800012bc:	5f68                	lw	x10,124(x14)
800012be:	c19c                	sw	x15,0(x11)
800012c0:	76b5                	lui	x13,0xfffed
800012c2:	4221                	li	x4,8
800012c4:	c182d667          	0xc182d667
800012c8:	c1b8                	sw	x14,64(x11)
800012ca:	4201                	li	x4,0
800012cc:	c2b549c3          	fmadd.d	f19,f10,f11,f24,rmm
800012d0:	df7c                	sw	x15,124(x14)
800012d2:	c12e                	sw	x11,128(x2)
800012d4:	c2409e53          	0xc2409e53
800012d8:	ece5                	bnez	x9,800013d0 <_bsg_dram_end_addr+0x20>
800012da:	c288                	sw	x10,0(x13)
800012dc:	77d1                	lui	x15,0xffff4
800012de:	40b0                	lw	x12,64(x9)
800012e0:	0015                	c.nop	5
800012e2:	7eeac023          	0x7eeac023
800012e6:	4144                	lw	x9,4(x10)
800012e8:	6348                	flw	f10,4(x14)
800012ea:	424c                	lw	x11,4(x12)
800012ec:	8cd1                	or	x9,x9,x12
800012ee:	4299                	li	x5,6
800012f0:	af04                	fsd	f9,24(x14)
800012f2:	bf8a                	fsd	f2,504(x2)
800012f4:	5a79                	li	x20,-2
800012f6:	c216                	sw	x5,4(x2)
800012f8:	c0d3e3c3          	fmadd.s	f7,f7,f13,f24,unknown
800012fc:	42773c97          	auipc	x25,0x42773
80001300:	01ac                	addi	x11,x2,200
80001302:	4296                	lw	x5,68(x2)
80001304:	ee94                	fsw	f13,24(x13)
80001306:	4279                	li	x4,30
80001308:	9956                	add	x18,x18,x21
8000130a:	c279                	beqz	x12,800013d0 <_bsg_dram_end_addr+0x20>
8000130c:	c4a5                	beqz	x9,80001374 <data+0x3c4>
8000130e:	f12842c7          	fmsub.s	f5,f16,f18,f30,rmm
80001312:	41d4                	lw	x13,4(x11)
80001314:	9cf9                	0x9cf9
80001316:	c2a6                	sw	x9,68(x2)
80001318:	7188                	flw	f10,32(x11)
8000131a:	4234                	lw	x13,64(x12)
8000131c:	ba85                	j	80000c8c <bsg_printf+0x73c>
8000131e:	42c2                	lw	x5,16(x2)
80001320:	17d5                	addi	x15,x15,-11
80001322:	c19d                	beqz	x11,80001348 <data+0x398>
80001324:	cfdf 420e 0eec      	0xeec420ecfdf
8000132a:	2e26c213          	xori	x4,x13,738
8000132e:	c265                	beqz	x12,8000140e <_bsg_dram_end_addr+0x5e>
80001330:	dbfc                	sw	x15,116(x15)
80001332:	422d                	li	x4,11
80001334:	0e96                	slli	x29,x29,0x5
80001336:	17b2c2c7          	fmsub.q	f5,f5,f27,f2,rmm
8000133a:	4281                	li	x5,0
8000133c:	6a0c                	flw	f11,16(x12)
8000133e:	40b5                	li	x1,13
80001340:	e2e2                	fsw	f24,68(x2)
80001342:	c2a0                	sw	x8,64(x13)
80001344:	703e                	flw	f0,236(x2)
80001346:	c298                	sw	x14,0(x13)
80001348:	d31e                	sw	x7,164(x2)
8000134a:	41ee                	lw	x3,216(x2)
8000134c:	42957627          	0x42957627
80001350:	0389                	addi	x7,x7,2
80001352:	c230                	sw	x12,64(x12)
80001354:	67f4                	flw	f13,76(x15)
80001356:	ed7f42bf 9343c29f 	0x9343c29fed7f42bf
8000135e:	428d                	li	x5,3
80001360:	c1a5493f c2a7763b 	0xc2a7763bc1a5493f
80001368:	c2343a9b          	0xc2343a9b
8000136c:	7845                	lui	x16,0xffff1
8000136e:	c116                	sw	x5,128(x2)
80001370:	df8c                	sw	x11,56(x15)
80001372:	4269                	li	x4,26
80001374:	8b41                	andi	x14,x14,16
80001376:	4290                	lw	x12,0(x13)
80001378:	a1bc                	fsd	f15,64(x11)
8000137a:	c292                	sw	x4,68(x2)
8000137c:	8a16                	mv	x20,x5
8000137e:	4085                	li	x1,1
80001380:	40d1                	li	x1,20
80001382:	41f1                	li	x3,28
80001384:	b716                	fsd	f5,424(x2)
80001386:	c1f4                	sw	x13,68(x11)
80001388:	4294bedb          	0x4294bedb
8000138c:	c23145ab          	0xc23145ab
80001390:	91fd                	srli	x11,x11,0x3f
80001392:	c2c0                	sw	x8,4(x13)
80001394:	bc15                	j	80000dc8 <memset+0x8>
80001396:	cc23c2b7          	lui	x5,0xcc23c
8000139a:	4210                	lw	x12,0(x12)
8000139c:	bd05                	j	800011cc <data+0x21c>
8000139e:	413a                	lw	x2,140(x2)
800013a0:	99dd                	andi	x11,x11,-9
800013a2:	42b2                	lw	x5,12(x2)
800013a4:	6022                	flw	f0,8(x2)
800013a6:	f0c342af          	0xf0c342af
800013aa:	32bc42a3          	0x32bc42a3
800013ae:	          	lui	x5,0xc

Disassembly of section .comment:

00000000 <.comment>:
   0:	3a434347          	fmsub.d	f6,f6,f4,f7,rmm
   4:	2820                	fld	f8,80(x8)
   6:	29554e47          	fmsub.s	f28,f10,f21,f5,rmm
   a:	3820                	fld	f8,112(x8)
   c:	332e                	fld	f6,232(x2)
   e:	302e                	fld	f0,232(x2)
	...

Disassembly of section .riscv.attributes:

00000000 <.riscv.attributes>:
   0:	2841                	jal	90 <bsg_group_size+0x8c>
   2:	0000                	unimp
   4:	7200                	flw	f8,32(x12)
   6:	7369                	lui	x6,0xffffa
   8:	01007663          	bgeu	x0,x16,14 <bsg_group_size+0x10>
   c:	001e                	c.slli	x0,0x7
   e:	0000                	unimp
  10:	7205                	lui	x4,0xfffe1
  12:	3376                	fld	f6,376(x2)
  14:	6932                	flw	f18,12(x2)
  16:	7032                	flw	f0,44(x2)
  18:	5f30                	lw	x12,120(x14)
  1a:	326d                	jal	fffff9c4 <_bsg_dram_end_addr+0x7fffe614>
  1c:	3070                	fld	f12,224(x8)
  1e:	615f 7032 5f30      	0x5f307032615f
  24:	3266                	fld	f4,120(x2)
  26:	3070                	fld	f12,224(x8)
	...
