Toplevel Directory: /home/centos/bsg_bladerunner//bsg_manycore
Dimensions: bsg_tiles_org_[X,Y] = 0 1; bsg_global_[X,Y] = 2,2+1; bsg_tiles[X,Y] = 2,2; bsg_group_size = 4
CAD Environment: Ignoring cadenv
Machine executable: /home/centos/bsg_bladerunner//bsg_manycore/machines/4x4/simv
/home/centos/bsg_bladerunner//bsg_manycore/software/riscv-tools/riscv-install/bin/riscv32-unknown-elf-objdump -M numeric --disassemble-all -S main.riscv

main.riscv:     file format elf32-littleriscv


Disassembly of section .text.dram:

00000000 <_start>:
       0:	00000093          	li	x1,0
       4:	00000193          	li	x3,0
       8:	00000213          	li	x4,0
       c:	00000293          	li	x5,0
      10:	00000313          	li	x6,0
      14:	00000393          	li	x7,0
      18:	00000413          	li	x8,0
      1c:	00000493          	li	x9,0
      20:	00000513          	li	x10,0
      24:	00000593          	li	x11,0
      28:	00000613          	li	x12,0
      2c:	00000693          	li	x13,0
      30:	00000713          	li	x14,0
      34:	00000793          	li	x15,0
      38:	00000813          	li	x16,0
      3c:	00000893          	li	x17,0
      40:	00000913          	li	x18,0
      44:	00000993          	li	x19,0
      48:	00000a13          	li	x20,0
      4c:	00000a93          	li	x21,0
      50:	00000b13          	li	x22,0
      54:	00000b93          	li	x23,0
      58:	00000c13          	li	x24,0
      5c:	00000c93          	li	x25,0
      60:	00000d13          	li	x26,0
      64:	00000d93          	li	x27,0
      68:	00000e13          	li	x28,0
      6c:	00000e93          	li	x29,0
      70:	00000f13          	li	x30,0
      74:	00000f93          	li	x31,0
      78:	000032b7          	lui	x5,0x3
      7c:	3002a073          	csrs	mstatus,x5
      80:	00301073          	fscsr	x0
      84:	00000293          	li	x5,0
      88:	d0007053          	fcvt.s.w	f0,x0
      8c:	d00070d3          	fcvt.s.w	f1,x0
      90:	d0007153          	fcvt.s.w	f2,x0
      94:	d00071d3          	fcvt.s.w	f3,x0
      98:	d0007253          	fcvt.s.w	f4,x0
      9c:	d00072d3          	fcvt.s.w	f5,x0
      a0:	d0007353          	fcvt.s.w	f6,x0
      a4:	d00073d3          	fcvt.s.w	f7,x0
      a8:	d0007453          	fcvt.s.w	f8,x0
      ac:	d00074d3          	fcvt.s.w	f9,x0
      b0:	d0007553          	fcvt.s.w	f10,x0
      b4:	d00075d3          	fcvt.s.w	f11,x0
      b8:	d0007653          	fcvt.s.w	f12,x0
      bc:	d00076d3          	fcvt.s.w	f13,x0
      c0:	d0007753          	fcvt.s.w	f14,x0
      c4:	d00077d3          	fcvt.s.w	f15,x0
      c8:	d0007853          	fcvt.s.w	f16,x0
      cc:	d00078d3          	fcvt.s.w	f17,x0
      d0:	d0007953          	fcvt.s.w	f18,x0
      d4:	d00079d3          	fcvt.s.w	f19,x0
      d8:	d0007a53          	fcvt.s.w	f20,x0
      dc:	d0007ad3          	fcvt.s.w	f21,x0
      e0:	d0007b53          	fcvt.s.w	f22,x0
      e4:	d0007bd3          	fcvt.s.w	f23,x0
      e8:	d0007c53          	fcvt.s.w	f24,x0
      ec:	d0007cd3          	fcvt.s.w	f25,x0
      f0:	d0007d53          	fcvt.s.w	f26,x0
      f4:	d0007dd3          	fcvt.s.w	f27,x0
      f8:	d0007e53          	fcvt.s.w	f28,x0
      fc:	d0007ed3          	fcvt.s.w	f29,x0
     100:	d0007f53          	fcvt.s.w	f30,x0
     104:	d0007fd3          	fcvt.s.w	f31,x0
     108:	00002197          	auipc	x3,0x2
     10c:	b2018193          	addi	x3,x3,-1248 # 1c28 <_gp>
     110:	00001217          	auipc	x4,0x1
     114:	74f20213          	addi	x4,x4,1871 # 185f <_bsg_data_end_addr+0x3f>
     118:	fc027213          	andi	x4,x4,-64
     11c:	00002117          	auipc	x2,0x2
     120:	ee010113          	addi	x2,x2,-288 # 1ffc <_bsg_elf_stack_ptr>
     124:	4e10106f          	j	1e04 <main>
     128:	0000006f          	j	128 <bsg_group_size+0x124>

0000012c <write_finish_signal>:
     12c:	000017b7          	lui	x15,0x1
     130:	4a47a783          	lw	x15,1188(x15) # 14a4 <finitef>
     134:	00079c63          	bnez	x15,14c <write_finish_signal+0x20>
     138:	000017b7          	lui	x15,0x1
     13c:	00001737          	lui	x14,0x1
     140:	4d07a783          	lw	x15,1232(x15) # 14d0 <cuda_finish_signal_addr>
     144:	4cc72703          	lw	x14,1228(x14) # 14cc <cuda_finish_signal_val>
     148:	00e7a023          	sw	x14,0(x15)
     14c:	00008067          	ret

00000150 <bsg_set_tile_x_y>:
     150:	00001737          	lui	x14,0x1
     154:	200007b7          	lui	x15,0x20000
     158:	4ac70513          	addi	x10,x14,1196 # 14ac <__bsg_x>
     15c:	000016b7          	lui	x13,0x1
     160:	00f56833          	or	x16,x10,x15
     164:	4a868593          	addi	x11,x13,1192 # 14a8 <__bsg_y>
     168:	00082023          	sw	x0,0(x16)
     16c:	00f5e633          	or	x12,x11,x15
     170:	00062023          	sw	x0,0(x12)
     174:	4ac72783          	lw	x15,1196(x14)
     178:	fe07cee3          	bltz	x15,174 <bsg_set_tile_x_y+0x24>
     17c:	4a86a783          	lw	x15,1192(x13)
     180:	fe07cee3          	bltz	x15,17c <bsg_set_tile_x_y+0x2c>
     184:	4ac72783          	lw	x15,1196(x14)
     188:	04079a63          	bnez	x15,1dc <bsg_set_tile_x_y+0x8c>
     18c:	4a86a783          	lw	x15,1192(x13)
     190:	04079663          	bnez	x15,1dc <bsg_set_tile_x_y+0x8c>
     194:	00082023          	sw	x0,0(x16)
     198:	21000837          	lui	x16,0x21000
     19c:	00062023          	sw	x0,0(x12)
     1a0:	010567b3          	or	x15,x10,x16
     1a4:	0007a023          	sw	x0,0(x15) # 20000000 <_bsg_elf_vcache_size+0x1ffe0000>
     1a8:	0105e833          	or	x16,x11,x16
     1ac:	00100793          	li	x15,1
     1b0:	20040637          	lui	x12,0x20040
     1b4:	00f82023          	sw	x15,0(x16) # 21000000 <_bsg_elf_vcache_size+0x20fe0000>
     1b8:	00c56833          	or	x16,x10,x12
     1bc:	00f82023          	sw	x15,0(x16)
     1c0:	00c5e633          	or	x12,x11,x12
     1c4:	21040837          	lui	x16,0x21040
     1c8:	00062023          	sw	x0,0(x12) # 20040000 <_bsg_elf_vcache_size+0x20020000>
     1cc:	01056533          	or	x10,x10,x16
     1d0:	00f52023          	sw	x15,0(x10)
     1d4:	0105e5b3          	or	x11,x11,x16
     1d8:	00f5a023          	sw	x15,0(x11)
     1dc:	4a86a783          	lw	x15,1192(x13)
     1e0:	4ac72583          	lw	x11,1196(x14)
     1e4:	200206b7          	lui	x13,0x20020
     1e8:	01879713          	slli	x14,x15,0x18
     1ec:	01259613          	slli	x12,x11,0x12
     1f0:	00c76733          	or	x14,x14,x12
     1f4:	00468613          	addi	x12,x13,4 # 20020004 <_bsg_elf_vcache_size+0x20000004>
     1f8:	00c76633          	or	x12,x14,x12
     1fc:	00062603          	lw	x12,0(x12)
     200:	00868693          	addi	x13,x13,8
     204:	00d76733          	or	x14,x14,x13
     208:	000016b7          	lui	x13,0x1
     20c:	4ac6a023          	sw	x12,1184(x13) # 14a0 <__bsg_grp_org_x>
     210:	00072603          	lw	x12,0(x14)
     214:	000016b7          	lui	x13,0x1
     218:	00179793          	slli	x15,x15,0x1
     21c:	00b787b3          	add	x15,x15,x11
     220:	48c6ae23          	sw	x12,1180(x13) # 149c <__bsg_grp_org_y>
     224:	000016b7          	lui	x13,0x1
     228:	00100713          	li	x14,1
     22c:	4af6a223          	sw	x15,1188(x13) # 14a4 <finitef>
     230:	000017b7          	lui	x15,0x1
     234:	48e7ac23          	sw	x14,1176(x15) # 1498 <__bsg_grid_dim_x>
     238:	000017b7          	lui	x15,0x1
     23c:	48e7aa23          	sw	x14,1172(x15) # 1494 <__bsg_grid_dim_y>
     240:	000017b7          	lui	x15,0x1
     244:	4807a823          	sw	x0,1168(x15) # 1490 <__bsg_tile_group_id_x>
     248:	000017b7          	lui	x15,0x1
     24c:	4807a623          	sw	x0,1164(x15) # 148c <__bsg_tile_group_id_y>
     250:	00008067          	ret

00000254 <number>:
     254:	fa010113          	addi	x2,x2,-96
     258:	04812e23          	sw	x8,92(x2)
     25c:	04912c23          	sw	x9,88(x2)
     260:	0407f813          	andi	x16,x15,64
     264:	1c080063          	beqz	x16,424 <number+0x1d0>
     268:	81000eb7          	lui	x29,0x81000
     26c:	0107f293          	andi	x5,x15,16
     270:	028e8e93          	addi	x29,x29,40 # 81000028 <_end+0xffffffc8>
     274:	1c028063          	beqz	x5,434 <number+0x1e0>
     278:	ffe7f793          	andi	x15,x15,-2
     27c:	00028413          	mv	x8,x5
     280:	0027f813          	andi	x16,x15,2
     284:	02000f93          	li	x31,32
     288:	0207f393          	andi	x7,x15,32
     28c:	1c080263          	beqz	x16,450 <number+0x1fc>
     290:	1c05c463          	bltz	x11,458 <number+0x204>
     294:	0047f813          	andi	x16,x15,4
     298:	20081263          	bnez	x16,49c <number+0x248>
     29c:	0087f793          	andi	x15,x15,8
     2a0:	00000493          	li	x9,0
     2a4:	00078663          	beqz	x15,2b0 <number+0x5c>
     2a8:	fff68693          	addi	x13,x13,-1
     2ac:	02000493          	li	x9,32
     2b0:	00038c63          	beqz	x7,2c8 <number+0x74>
     2b4:	01000793          	li	x15,16
     2b8:	20f60463          	beq	x12,x15,4c0 <number+0x26c>
     2bc:	ff860793          	addi	x15,x12,-8
     2c0:	0017b793          	seqz	x15,x15
     2c4:	40f686b3          	sub	x13,x13,x15
     2c8:	1a059063          	bnez	x11,468 <number+0x214>
     2cc:	03000793          	li	x15,48
     2d0:	00f10623          	sb	x15,12(x2)
     2d4:	00000893          	li	x17,0
     2d8:	03000813          	li	x16,48
     2dc:	00100f13          	li	x30,1
     2e0:	00c10793          	addi	x15,x2,12
     2e4:	000f0e13          	mv	x28,x30
     2e8:	00ef5463          	bge	x30,x14,2f0 <number+0x9c>
     2ec:	00070e13          	mv	x28,x14
     2f0:	41c68333          	sub	x6,x13,x28
     2f4:	fff30593          	addi	x11,x6,-1
     2f8:	02041263          	bnez	x8,31c <number+0xc8>
     2fc:	006506b3          	add	x13,x10,x6
     300:	02000713          	li	x14,32
     304:	1c605e63          	blez	x6,4e0 <number+0x28c>
     308:	00150513          	addi	x10,x10,1
     30c:	fee50fa3          	sb	x14,-1(x10)
     310:	fed51ce3          	bne	x10,x13,308 <number+0xb4>
     314:	ffe00593          	li	x11,-2
     318:	fff00313          	li	x6,-1
     31c:	00048663          	beqz	x9,328 <number+0xd4>
     320:	00950023          	sb	x9,0(x10)
     324:	00150513          	addi	x10,x10,1
     328:	00038a63          	beqz	x7,33c <number+0xe8>
     32c:	00800713          	li	x14,8
     330:	18e60c63          	beq	x12,x14,4c8 <number+0x274>
     334:	01000713          	li	x14,16
     338:	16e60863          	beq	x12,x14,4a8 <number+0x254>
     33c:	04029463          	bnez	x5,384 <number+0x130>
     340:	00050613          	mv	x12,x10
     344:	00100713          	li	x14,1
     348:	1a605463          	blez	x6,4f0 <number+0x29c>
     34c:	00160613          	addi	x12,x12,1
     350:	40c706b3          	sub	x13,x14,x12
     354:	00b686b3          	add	x13,x13,x11
     358:	00d506b3          	add	x13,x10,x13
     35c:	fff60fa3          	sb	x31,-1(x12)
     360:	fed046e3          	bgtz	x13,34c <number+0xf8>
     364:	fff5c713          	not	x14,x11
     368:	41f75713          	srai	x14,x14,0x1f
     36c:	00e5f733          	and	x14,x11,x14
     370:	fff58593          	addi	x11,x11,-1
     374:	40e58333          	sub	x6,x11,x14
     378:	00170713          	addi	x14,x14,1
     37c:	00e50533          	add	x10,x10,x14
     380:	fff30593          	addi	x11,x6,-1
     384:	41ee0733          	sub	x14,x28,x30
     388:	00e50733          	add	x14,x10,x14
     38c:	03000693          	li	x13,48
     390:	15cf5463          	bge	x30,x28,4d8 <number+0x284>
     394:	00150513          	addi	x10,x10,1
     398:	fed50fa3          	sb	x13,-1(x10)
     39c:	fea71ce3          	bne	x14,x10,394 <number+0x140>
     3a0:	01178633          	add	x12,x15,x17
     3a4:	00070693          	mv	x13,x14
     3a8:	00100513          	li	x10,1
     3ac:	0080006f          	j	3b4 <number+0x160>
     3b0:	00064803          	lbu	x16,0(x12)
     3b4:	00168693          	addi	x13,x13,1
     3b8:	40d507b3          	sub	x15,x10,x13
     3bc:	011787b3          	add	x15,x15,x17
     3c0:	00f707b3          	add	x15,x14,x15
     3c4:	ff068fa3          	sb	x16,-1(x13)
     3c8:	fff60613          	addi	x12,x12,-1
     3cc:	fef042e3          	bgtz	x15,3b0 <number+0x15c>
     3d0:	00188513          	addi	x10,x17,1
     3d4:	00a70533          	add	x10,x14,x10
     3d8:	02605e63          	blez	x6,414 <number+0x1c0>
     3dc:	00050713          	mv	x14,x10
     3e0:	02000613          	li	x12,32
     3e4:	00100693          	li	x13,1
     3e8:	00170713          	addi	x14,x14,1
     3ec:	40e687b3          	sub	x15,x13,x14
     3f0:	00b787b3          	add	x15,x15,x11
     3f4:	00f507b3          	add	x15,x10,x15
     3f8:	fec70fa3          	sb	x12,-1(x14)
     3fc:	fef046e3          	bgtz	x15,3e8 <number+0x194>
     400:	fff5c793          	not	x15,x11
     404:	41f7d793          	srai	x15,x15,0x1f
     408:	00f5f5b3          	and	x11,x11,x15
     40c:	00158593          	addi	x11,x11,1
     410:	00b50533          	add	x10,x10,x11
     414:	05c12403          	lw	x8,92(x2)
     418:	05812483          	lw	x9,88(x2)
     41c:	06010113          	addi	x2,x2,96
     420:	00008067          	ret
     424:	81000eb7          	lui	x29,0x81000
     428:	0107f293          	andi	x5,x15,16
     42c:	000e8e93          	mv	x29,x29
     430:	e40294e3          	bnez	x5,278 <number+0x24>
     434:	0017f813          	andi	x16,x15,1
     438:	0117f413          	andi	x8,x15,17
     43c:	03000f93          	li	x31,48
     440:	e40800e3          	beqz	x16,280 <number+0x2c>
     444:	0027f813          	andi	x16,x15,2
     448:	0207f393          	andi	x7,x15,32
     44c:	e40812e3          	bnez	x16,290 <number+0x3c>
     450:	00000493          	li	x9,0
     454:	e5dff06f          	j	2b0 <number+0x5c>
     458:	40b005b3          	neg	x11,x11
     45c:	fff68693          	addi	x13,x13,-1
     460:	02d00493          	li	x9,45
     464:	e40398e3          	bnez	x7,2b4 <number+0x60>
     468:	00000f13          	li	x30,0
     46c:	00c10793          	addi	x15,x2,12
     470:	02c5f833          	remu	x16,x11,x12
     474:	000f0893          	mv	x17,x30
     478:	001f0f13          	addi	x30,x30,1
     47c:	01e78e33          	add	x28,x15,x30
     480:	00058313          	mv	x6,x11
     484:	010e8833          	add	x16,x29,x16
     488:	00084803          	lbu	x16,0(x16) # 21040000 <_bsg_elf_vcache_size+0x21020000>
     48c:	02c5d5b3          	divu	x11,x11,x12
     490:	ff0e0fa3          	sb	x16,-1(x28)
     494:	fcc37ee3          	bgeu	x6,x12,470 <number+0x21c>
     498:	e4dff06f          	j	2e4 <number+0x90>
     49c:	fff68693          	addi	x13,x13,-1
     4a0:	02b00493          	li	x9,43
     4a4:	e0dff06f          	j	2b0 <number+0x5c>
     4a8:	03000713          	li	x14,48
     4ac:	00e50023          	sb	x14,0(x10)
     4b0:	07800713          	li	x14,120
     4b4:	00e500a3          	sb	x14,1(x10)
     4b8:	00250513          	addi	x10,x10,2
     4bc:	e81ff06f          	j	33c <number+0xe8>
     4c0:	ffe68693          	addi	x13,x13,-2
     4c4:	e05ff06f          	j	2c8 <number+0x74>
     4c8:	03000713          	li	x14,48
     4cc:	00e50023          	sb	x14,0(x10)
     4d0:	00150513          	addi	x10,x10,1
     4d4:	e69ff06f          	j	33c <number+0xe8>
     4d8:	00050713          	mv	x14,x10
     4dc:	ec5ff06f          	j	3a0 <number+0x14c>
     4e0:	ffe30713          	addi	x14,x6,-2
     4e4:	00058313          	mv	x6,x11
     4e8:	00070593          	mv	x11,x14
     4ec:	e31ff06f          	j	31c <number+0xc8>
     4f0:	00058313          	mv	x6,x11
     4f4:	fff58593          	addi	x11,x11,-1
     4f8:	e8dff06f          	j	384 <number+0x130>

000004fc <uart_send_char>:
     4fc:	4000f7b7          	lui	x15,0x4000f
     500:	aca78e23          	sb	x10,-1316(x15) # 4000eadc <_bsg_elf_vcache_size+0x3ffeeadc>
     504:	00008067          	ret

00000508 <bsg_printf>:
     508:	e9010113          	addi	x2,x2,-368
     50c:	13312e23          	sw	x19,316(x2)
     510:	14112623          	sw	x1,332(x2)
     514:	14812423          	sw	x8,328(x2)
     518:	14912223          	sw	x9,324(x2)
     51c:	15212023          	sw	x18,320(x2)
     520:	13412c23          	sw	x20,312(x2)
     524:	13512a23          	sw	x21,308(x2)
     528:	13612823          	sw	x22,304(x2)
     52c:	13712623          	sw	x23,300(x2)
     530:	13812423          	sw	x24,296(x2)
     534:	13912223          	sw	x25,292(x2)
     538:	14b12a23          	sw	x11,340(x2)
     53c:	14c12c23          	sw	x12,344(x2)
     540:	14d12e23          	sw	x13,348(x2)
     544:	16e12023          	sw	x14,352(x2)
     548:	16f12223          	sw	x15,356(x2)
     54c:	17012423          	sw	x16,360(x2)
     550:	17112623          	sw	x17,364(x2)
     554:	00054783          	lbu	x15,0(x10)
     558:	15410993          	addi	x19,x2,340
     55c:	01312223          	sw	x19,4(x2)
     560:	76078463          	beqz	x15,cc8 <bsg_printf+0x7c0>
     564:	02010913          	addi	x18,x2,32
     568:	00001ab7          	lui	x21,0x1
     56c:	00001a37          	lui	x20,0x1
     570:	81000437          	lui	x8,0x81000
     574:	00050313          	mv	x6,x10
     578:	4e0a8a93          	addi	x21,x21,1248 # 14e0 <_tls_data>
     57c:	00090513          	mv	x10,x18
     580:	524a0a13          	addi	x20,x20,1316 # 1524 <_tls_data+0x44>
     584:	00040413          	mv	x8,x8
     588:	02500713          	li	x14,37
     58c:	08e78a63          	beq	x15,x14,620 <bsg_printf+0x118>
     590:	00f50023          	sb	x15,0(x10)
     594:	00134783          	lbu	x15,1(x6)
     598:	00150513          	addi	x10,x10,1
     59c:	00130313          	addi	x6,x6,1
     5a0:	fe0794e3          	bnez	x15,588 <bsg_printf+0x80>
     5a4:	00050023          	sb	x0,0(x10)
     5a8:	400006b7          	lui	x13,0x40000
     5ac:	00100713          	li	x14,1
     5b0:	0c06a7af          	amoswap.w.aq	x15,x0,(x13)
     5b4:	fee78ee3          	beq	x15,x14,5b0 <bsg_printf+0xa8>
     5b8:	02014703          	lbu	x14,32(x2)
     5bc:	70070263          	beqz	x14,cc0 <bsg_printf+0x7b8>
     5c0:	00100693          	li	x13,1
     5c4:	00090793          	mv	x15,x18
     5c8:	4000f637          	lui	x12,0x4000f
     5cc:	412686b3          	sub	x13,x13,x18
     5d0:	ace60e23          	sb	x14,-1316(x12) # 4000eadc <_bsg_elf_vcache_size+0x3ffeeadc>
     5d4:	0017c703          	lbu	x14,1(x15)
     5d8:	00d78533          	add	x10,x15,x13
     5dc:	00178793          	addi	x15,x15,1
     5e0:	fe0718e3          	bnez	x14,5d0 <bsg_printf+0xc8>
     5e4:	400007b7          	lui	x15,0x40000
     5e8:	0a07a02f          	amoswap.w.rl	x0,x0,(x15)
     5ec:	14c12083          	lw	x1,332(x2)
     5f0:	14812403          	lw	x8,328(x2)
     5f4:	14412483          	lw	x9,324(x2)
     5f8:	14012903          	lw	x18,320(x2)
     5fc:	13c12983          	lw	x19,316(x2)
     600:	13812a03          	lw	x20,312(x2)
     604:	13412a83          	lw	x21,308(x2)
     608:	13012b03          	lw	x22,304(x2)
     60c:	12c12b83          	lw	x23,300(x2)
     610:	12812c03          	lw	x24,296(x2)
     614:	12412c83          	lw	x25,292(x2)
     618:	17010113          	addi	x2,x2,368
     61c:	00008067          	ret
     620:	00000793          	li	x15,0
     624:	01000693          	li	x13,16
     628:	00134583          	lbu	x11,1(x6)
     62c:	00130493          	addi	x9,x6,1
     630:	fe058713          	addi	x14,x11,-32
     634:	0ff77713          	andi	x14,x14,255
     638:	00e6ea63          	bltu	x13,x14,64c <bsg_printf+0x144>
     63c:	00271713          	slli	x14,x14,0x2
     640:	01570733          	add	x14,x14,x21
     644:	00072703          	lw	x14,0(x14)
     648:	00070067          	jr	x14
     64c:	fd058713          	addi	x14,x11,-48
     650:	0ff77713          	andi	x14,x14,255
     654:	00900693          	li	x13,9
     658:	10e6f463          	bgeu	x13,x14,760 <bsg_printf+0x258>
     65c:	02a00713          	li	x14,42
     660:	fff00693          	li	x13,-1
     664:	12e58863          	beq	x11,x14,794 <bsg_printf+0x28c>
     668:	02e00613          	li	x12,46
     66c:	fff00713          	li	x14,-1
     670:	0cc58263          	beq	x11,x12,734 <bsg_printf+0x22c>
     674:	0df5f613          	andi	x12,x11,223
     678:	04c00813          	li	x16,76
     67c:	07060063          	beq	x12,x16,6dc <bsg_printf+0x1d4>
     680:	fbf58613          	addi	x12,x11,-65
     684:	0ff67613          	andi	x12,x12,255
     688:	03700813          	li	x16,55
     68c:	08c86463          	bltu	x16,x12,714 <bsg_printf+0x20c>
     690:	00261613          	slli	x12,x12,0x2
     694:	01460633          	add	x12,x12,x20
     698:	00062603          	lw	x12,0(x12)
     69c:	00060067          	jr	x12
     6a0:	0017e793          	ori	x15,x15,1
     6a4:	00048313          	mv	x6,x9
     6a8:	f81ff06f          	j	628 <bsg_printf+0x120>
     6ac:	0107e793          	ori	x15,x15,16
     6b0:	00048313          	mv	x6,x9
     6b4:	f75ff06f          	j	628 <bsg_printf+0x120>
     6b8:	0047e793          	ori	x15,x15,4
     6bc:	00048313          	mv	x6,x9
     6c0:	f69ff06f          	j	628 <bsg_printf+0x120>
     6c4:	0207e793          	ori	x15,x15,32
     6c8:	00048313          	mv	x6,x9
     6cc:	f5dff06f          	j	628 <bsg_printf+0x120>
     6d0:	0087e793          	ori	x15,x15,8
     6d4:	00048313          	mv	x6,x9
     6d8:	f51ff06f          	j	628 <bsg_printf+0x120>
     6dc:	0014c803          	lbu	x16,1(x9)
     6e0:	03700893          	li	x17,55
     6e4:	00148313          	addi	x6,x9,1
     6e8:	fbf80613          	addi	x12,x16,-65
     6ec:	0ff67613          	andi	x12,x12,255
     6f0:	00c8ee63          	bltu	x17,x12,70c <bsg_printf+0x204>
     6f4:	000018b7          	lui	x17,0x1
     6f8:	00261613          	slli	x12,x12,0x2
     6fc:	60488893          	addi	x17,x17,1540 # 1604 <_tls_data+0x124>
     700:	01160633          	add	x12,x12,x17
     704:	00062603          	lw	x12,0(x12)
     708:	00060067          	jr	x12
     70c:	00080593          	mv	x11,x16
     710:	00030493          	mv	x9,x6
     714:	02500713          	li	x14,37
     718:	00150793          	addi	x15,x10,1
     71c:	54e58463          	beq	x11,x14,c64 <bsg_printf+0x75c>
     720:	00e50023          	sb	x14,0(x10)
     724:	0004c703          	lbu	x14,0(x9)
     728:	62071863          	bnez	x14,d58 <bsg_printf+0x850>
     72c:	00078513          	mv	x10,x15
     730:	e75ff06f          	j	5a4 <bsg_printf+0x9c>
     734:	0014c583          	lbu	x11,1(x9)
     738:	00900613          	li	x12,9
     73c:	00148813          	addi	x16,x9,1
     740:	fd058713          	addi	x14,x11,-48
     744:	0ff77713          	andi	x14,x14,255
     748:	4ae67463          	bgeu	x12,x14,bf0 <bsg_printf+0x6e8>
     74c:	02a00713          	li	x14,42
     750:	4ee58263          	beq	x11,x14,c34 <bsg_printf+0x72c>
     754:	00080493          	mv	x9,x16
     758:	00000713          	li	x14,0
     75c:	f19ff06f          	j	674 <bsg_printf+0x16c>
     760:	00000693          	li	x13,0
     764:	00900613          	li	x12,9
     768:	00269713          	slli	x14,x13,0x2
     76c:	00d706b3          	add	x13,x14,x13
     770:	00148493          	addi	x9,x9,1
     774:	00169693          	slli	x13,x13,0x1
     778:	00b686b3          	add	x13,x13,x11
     77c:	0004c583          	lbu	x11,0(x9)
     780:	fd068693          	addi	x13,x13,-48 # 3fffffd0 <_bsg_elf_vcache_size+0x3ffdffd0>
     784:	fd058713          	addi	x14,x11,-48
     788:	0ff77713          	andi	x14,x14,255
     78c:	fce67ee3          	bgeu	x12,x14,768 <bsg_printf+0x260>
     790:	ed9ff06f          	j	668 <bsg_printf+0x160>
     794:	0009a683          	lw	x13,0(x19)
     798:	00234583          	lbu	x11,2(x6)
     79c:	00230493          	addi	x9,x6,2
     7a0:	00498993          	addi	x19,x19,4
     7a4:	ec06d2e3          	bgez	x13,668 <bsg_printf+0x160>
     7a8:	40d006b3          	neg	x13,x13
     7ac:	0107e793          	ori	x15,x15,16
     7b0:	eb9ff06f          	j	668 <bsg_printf+0x160>
     7b4:	00498813          	addi	x16,x19,4
     7b8:	01000613          	li	x12,16
     7bc:	0009a583          	lw	x11,0(x19)
     7c0:	00080993          	mv	x19,x16
     7c4:	a91ff0ef          	jal	x1,254 <number>
     7c8:	0014c783          	lbu	x15,1(x9)
     7cc:	00148313          	addi	x6,x9,1
     7d0:	da079ce3          	bnez	x15,588 <bsg_printf+0x80>
     7d4:	dd1ff06f          	j	5a4 <bsg_printf+0x9c>
     7d8:	00498813          	addi	x16,x19,4
     7dc:	00a00613          	li	x12,10
     7e0:	fddff06f          	j	7bc <bsg_printf+0x2b4>
     7e4:	00030493          	mv	x9,x6
     7e8:	0009a603          	lw	x12,0(x19)
     7ec:	00498993          	addi	x19,x19,4
     7f0:	4a060263          	beqz	x12,c94 <bsg_printf+0x78c>
     7f4:	00064583          	lbu	x11,0(x12)
     7f8:	52058063          	beqz	x11,d18 <bsg_printf+0x810>
     7fc:	50070e63          	beqz	x14,d18 <bsg_printf+0x810>
     800:	00060593          	mv	x11,x12
     804:	00c0006f          	j	810 <bsg_printf+0x308>
     808:	40e58833          	sub	x16,x11,x14
     80c:	00c80863          	beq	x16,x12,81c <bsg_printf+0x314>
     810:	0015c803          	lbu	x16,1(x11)
     814:	00158593          	addi	x11,x11,1
     818:	fe0818e3          	bnez	x16,808 <bsg_printf+0x300>
     81c:	0107f793          	andi	x15,x15,16
     820:	40c585b3          	sub	x11,x11,x12
     824:	4a078863          	beqz	x15,cd4 <bsg_printf+0x7cc>
     828:	54b05c63          	blez	x11,d80 <bsg_printf+0x878>
     82c:	00b60833          	add	x16,x12,x11
     830:	00050793          	mv	x15,x10
     834:	00064703          	lbu	x14,0(x12)
     838:	00160613          	addi	x12,x12,1
     83c:	00178793          	addi	x15,x15,1 # 40000001 <_bsg_elf_vcache_size+0x3ffe0001>
     840:	fee78fa3          	sb	x14,-1(x15)
     844:	ff0618e3          	bne	x12,x16,834 <bsg_printf+0x32c>
     848:	00b50733          	add	x14,x10,x11
     84c:	40b68533          	sub	x10,x13,x11
     850:	00148313          	addi	x6,x9,1
     854:	00a70533          	add	x10,x14,x10
     858:	02000793          	li	x15,32
     85c:	4ed5d263          	bge	x11,x13,d40 <bsg_printf+0x838>
     860:	00170713          	addi	x14,x14,1
     864:	fef70fa3          	sb	x15,-1(x14)
     868:	fea71ce3          	bne	x14,x10,860 <bsg_printf+0x358>
     86c:	0014c783          	lbu	x15,1(x9)
     870:	d0079ce3          	bnez	x15,588 <bsg_printf+0x80>
     874:	d31ff06f          	j	5a4 <bsg_printf+0x9c>
     878:	00030493          	mv	x9,x6
     87c:	fff00613          	li	x12,-1
     880:	40c68463          	beq	x13,x12,c88 <bsg_printf+0x780>
     884:	0009a583          	lw	x11,0(x19)
     888:	01000613          	li	x12,16
     88c:	00498993          	addi	x19,x19,4
     890:	9c5ff0ef          	jal	x1,254 <number>
     894:	0014c783          	lbu	x15,1(x9)
     898:	00148313          	addi	x6,x9,1
     89c:	ce0796e3          	bnez	x15,588 <bsg_printf+0x80>
     8a0:	d05ff06f          	j	5a4 <bsg_printf+0x9c>
     8a4:	00498813          	addi	x16,x19,4
     8a8:	00800613          	li	x12,8
     8ac:	f11ff06f          	j	7bc <bsg_printf+0x2b4>
     8b0:	0027e793          	ori	x15,x15,2
     8b4:	00498813          	addi	x16,x19,4
     8b8:	00a00613          	li	x12,10
     8bc:	f01ff06f          	j	7bc <bsg_printf+0x2b4>
     8c0:	00030493          	mv	x9,x6
     8c4:	0107f793          	andi	x15,x15,16
     8c8:	fff68693          	addi	x13,x13,-1
     8cc:	3c078a63          	beqz	x15,ca0 <bsg_printf+0x798>
     8d0:	0009a603          	lw	x12,0(x19)
     8d4:	00150713          	addi	x14,x10,1
     8d8:	00168793          	addi	x15,x13,1
     8dc:	00c50023          	sb	x12,0(x10)
     8e0:	00498993          	addi	x19,x19,4
     8e4:	00f50533          	add	x10,x10,x15
     8e8:	00148313          	addi	x6,x9,1
     8ec:	00070793          	mv	x15,x14
     8f0:	02000613          	li	x12,32
     8f4:	44d05663          	blez	x13,d40 <bsg_printf+0x838>
     8f8:	00178793          	addi	x15,x15,1
     8fc:	fec78fa3          	sb	x12,-1(x15)
     900:	fea79ce3          	bne	x15,x10,8f8 <bsg_printf+0x3f0>
     904:	0014c783          	lbu	x15,1(x9)
     908:	00d70533          	add	x10,x14,x13
     90c:	c6079ee3          	bnez	x15,588 <bsg_printf+0x80>
     910:	c95ff06f          	j	5a4 <bsg_printf+0x9c>
     914:	0407e793          	ori	x15,x15,64
     918:	00498813          	addi	x16,x19,4
     91c:	01000613          	li	x12,16
     920:	e9dff06f          	j	7bc <bsg_printf+0x2b4>
     924:	0009a703          	lw	x14,0(x19)
     928:	0407e793          	ori	x15,x15,64
     92c:	00498993          	addi	x19,x19,4
     930:	00074583          	lbu	x11,0(x14)
     934:	00000813          	li	x16,0
     938:	00470893          	addi	x17,x14,4
     93c:	06300f13          	li	x30,99
     940:	00900293          	li	x5,9
     944:	00a00e13          	li	x28,10
     948:	06400f93          	li	x31,100
     94c:	03000e93          	li	x29,48
     950:	02e00313          	li	x6,46
     954:	00180613          	addi	x12,x16,1
     958:	02059a63          	bnez	x11,98c <bsg_printf+0x484>
     95c:	12010593          	addi	x11,x2,288
     960:	01058833          	add	x16,x11,x16
     964:	efd80423          	sb	x29,-280(x16)
     968:	00170713          	addi	x14,x14,1
     96c:	07170e63          	beq	x14,x17,9e8 <bsg_printf+0x4e0>
     970:	12010593          	addi	x11,x2,288
     974:	00c585b3          	add	x11,x11,x12
     978:	ee658423          	sb	x6,-280(x11)
     97c:	00074583          	lbu	x11,0(x14)
     980:	00160813          	addi	x16,x12,1
     984:	00180613          	addi	x12,x16,1
     988:	fc058ae3          	beqz	x11,95c <bsg_printf+0x454>
     98c:	22bf5a63          	bge	x30,x11,bc0 <bsg_printf+0x6b8>
     990:	03f5ebb3          	rem	x23,x11,x31
     994:	12010393          	addi	x7,x2,288
     998:	01038cb3          	add	x25,x7,x16
     99c:	00c38c33          	add	x24,x7,x12
     9a0:	00280b13          	addi	x22,x16,2
     9a4:	00380613          	addi	x12,x16,3
     9a8:	03f5c3b3          	div	x7,x11,x31
     9ac:	03cbc833          	div	x16,x23,x28
     9b0:	007403b3          	add	x7,x8,x7
     9b4:	0003c583          	lbu	x11,0(x7)
     9b8:	eebc8423          	sb	x11,-280(x25)
     9bc:	03cbe5b3          	rem	x11,x23,x28
     9c0:	01040833          	add	x16,x8,x16
     9c4:	00084803          	lbu	x16,0(x16)
     9c8:	ef0c0423          	sb	x16,-280(x24)
     9cc:	00b405b3          	add	x11,x8,x11
     9d0:	0005c803          	lbu	x16,0(x11)
     9d4:	12010593          	addi	x11,x2,288
     9d8:	016585b3          	add	x11,x11,x22
     9dc:	ef058423          	sb	x16,-280(x11)
     9e0:	00170713          	addi	x14,x14,1
     9e4:	f91716e3          	bne	x14,x17,970 <bsg_printf+0x468>
     9e8:	0107f793          	andi	x15,x15,16
     9ec:	fff68813          	addi	x16,x13,-1
     9f0:	02079663          	bnez	x15,a1c <bsg_printf+0x514>
     9f4:	40c687b3          	sub	x15,x13,x12
     9f8:	00f507b3          	add	x15,x10,x15
     9fc:	02000713          	li	x14,32
     a00:	36d65063          	bge	x12,x13,d60 <bsg_printf+0x858>
     a04:	00150513          	addi	x10,x10,1
     a08:	fee50fa3          	sb	x14,-1(x10)
     a0c:	fef51ce3          	bne	x10,x15,a04 <bsg_printf+0x4fc>
     a10:	40d606b3          	sub	x13,x12,x13
     a14:	010686b3          	add	x13,x13,x16
     a18:	fff68813          	addi	x16,x13,-1
     a1c:	00810793          	addi	x15,x2,8
     a20:	00c505b3          	add	x11,x10,x12
     a24:	0007c703          	lbu	x14,0(x15)
     a28:	00150513          	addi	x10,x10,1
     a2c:	00178793          	addi	x15,x15,1
     a30:	fee50fa3          	sb	x14,-1(x10)
     a34:	feb518e3          	bne	x10,x11,a24 <bsg_printf+0x51c>
     a38:	d8d658e3          	bge	x12,x13,7c8 <bsg_printf+0x2c0>
     a3c:	00058713          	mv	x14,x11
     a40:	02000513          	li	x10,32
     a44:	00100693          	li	x13,1
     a48:	00170713          	addi	x14,x14,1
     a4c:	40e687b3          	sub	x15,x13,x14
     a50:	010787b3          	add	x15,x15,x16
     a54:	00f587b3          	add	x15,x11,x15
     a58:	fea70fa3          	sb	x10,-1(x14)
     a5c:	fef646e3          	blt	x12,x15,a48 <bsg_printf+0x540>
     a60:	00100513          	li	x10,1
     a64:	1ec85863          	bge	x16,x12,c54 <bsg_printf+0x74c>
     a68:	00a58533          	add	x10,x11,x10
     a6c:	d5dff06f          	j	7c8 <bsg_printf+0x2c0>
     a70:	0027e793          	ori	x15,x15,2
     a74:	00a00613          	li	x12,10
     a78:	06c00893          	li	x17,108
     a7c:	00498813          	addi	x16,x19,4
     a80:	2d159863          	bne	x11,x17,d50 <bsg_printf+0x848>
     a84:	0009a583          	lw	x11,0(x19)
     a88:	00030493          	mv	x9,x6
     a8c:	00080993          	mv	x19,x16
     a90:	d35ff06f          	j	7c4 <bsg_printf+0x2bc>
     a94:	00800613          	li	x12,8
     a98:	fe1ff06f          	j	a78 <bsg_printf+0x570>
     a9c:	0407e793          	ori	x15,x15,64
     aa0:	01000613          	li	x12,16
     aa4:	fd5ff06f          	j	a78 <bsg_printf+0x570>
     aa8:	0407e793          	ori	x15,x15,64
     aac:	06c00613          	li	x12,108
     ab0:	0009a703          	lw	x14,0(x19)
     ab4:	00498993          	addi	x19,x19,4
     ab8:	24c59463          	bne	x11,x12,d00 <bsg_printf+0x7f8>
     abc:	0407f613          	andi	x12,x15,64
     ac0:	00040893          	mv	x17,x8
     ac4:	00060663          	beqz	x12,ad0 <bsg_printf+0x5c8>
     ac8:	810008b7          	lui	x17,0x81000
     acc:	02888893          	addi	x17,x17,40 # 81000028 <_end+0xffffffc8>
     ad0:	00810313          	addi	x6,x2,8
     ad4:	01a10e13          	addi	x28,x2,26
     ad8:	00030593          	mv	x11,x6
     adc:	03a00e93          	li	x29,58
     ae0:	0080006f          	j	ae8 <bsg_printf+0x5e0>
     ae4:	ffd58fa3          	sb	x29,-1(x11)
     ae8:	00074603          	lbu	x12,0(x14)
     aec:	00358593          	addi	x11,x11,3
     af0:	00170713          	addi	x14,x14,1
     af4:	00465813          	srli	x16,x12,0x4
     af8:	00f67613          	andi	x12,x12,15
     afc:	01088833          	add	x16,x17,x16
     b00:	00c88633          	add	x12,x17,x12
     b04:	00084803          	lbu	x16,0(x16)
     b08:	00064603          	lbu	x12,0(x12)
     b0c:	ff058ea3          	sb	x16,-3(x11)
     b10:	fec58f23          	sb	x12,-2(x11)
     b14:	fdc598e3          	bne	x11,x28,ae4 <bsg_printf+0x5dc>
     b18:	0107f793          	andi	x15,x15,16
     b1c:	fff68613          	addi	x12,x13,-1
     b20:	02079663          	bnez	x15,b4c <bsg_printf+0x644>
     b24:	fef68593          	addi	x11,x13,-17
     b28:	01100813          	li	x16,17
     b2c:	00b50733          	add	x14,x10,x11
     b30:	02000793          	li	x15,32
     b34:	22d85e63          	bge	x16,x13,d70 <bsg_printf+0x868>
     b38:	00150513          	addi	x10,x10,1
     b3c:	fef50fa3          	sb	x15,-1(x10)
     b40:	fee51ce3          	bne	x10,x14,b38 <bsg_printf+0x630>
     b44:	40b606b3          	sub	x13,x12,x11
     b48:	fff68613          	addi	x12,x13,-1
     b4c:	00050793          	mv	x15,x10
     b50:	01130593          	addi	x11,x6,17
     b54:	00034703          	lbu	x14,0(x6)
     b58:	00130313          	addi	x6,x6,1
     b5c:	00178793          	addi	x15,x15,1
     b60:	fee78fa3          	sb	x14,-1(x15)
     b64:	fe6598e3          	bne	x11,x6,b54 <bsg_printf+0x64c>
     b68:	01100793          	li	x15,17
     b6c:	01150513          	addi	x10,x10,17
     b70:	04d7d063          	bge	x15,x13,bb0 <bsg_printf+0x6a8>
     b74:	00050713          	mv	x14,x10
     b78:	02000813          	li	x16,32
     b7c:	00100593          	li	x11,1
     b80:	01100693          	li	x13,17
     b84:	00170713          	addi	x14,x14,1
     b88:	40e587b3          	sub	x15,x11,x14
     b8c:	00c787b3          	add	x15,x15,x12
     b90:	00f507b3          	add	x15,x10,x15
     b94:	ff070fa3          	sb	x16,-1(x14)
     b98:	fef6c6e3          	blt	x13,x15,b84 <bsg_printf+0x67c>
     b9c:	01000713          	li	x14,16
     ba0:	00100793          	li	x15,1
     ba4:	00c75463          	bge	x14,x12,bac <bsg_printf+0x6a4>
     ba8:	ff060793          	addi	x15,x12,-16
     bac:	00f50533          	add	x10,x10,x15
     bb0:	0024c783          	lbu	x15,2(x9)
     bb4:	00248313          	addi	x6,x9,2
     bb8:	9c0798e3          	bnez	x15,588 <bsg_printf+0x80>
     bbc:	9e9ff06f          	j	5a4 <bsg_printf+0x9c>
     bc0:	00080b13          	mv	x22,x16
     bc4:	e0b2d4e3          	bge	x5,x11,9cc <bsg_printf+0x4c4>
     bc8:	03c5c3b3          	div	x7,x11,x28
     bcc:	12010b13          	addi	x22,x2,288
     bd0:	010b0bb3          	add	x23,x22,x16
     bd4:	00060b13          	mv	x22,x12
     bd8:	00280613          	addi	x12,x16,2
     bdc:	00740833          	add	x16,x8,x7
     be0:	00084803          	lbu	x16,0(x16)
     be4:	03c5e5b3          	rem	x11,x11,x28
     be8:	ef0b8423          	sb	x16,-280(x23)
     bec:	de1ff06f          	j	9cc <bsg_printf+0x4c4>
     bf0:	00000713          	li	x14,0
     bf4:	00900893          	li	x17,9
     bf8:	00271613          	slli	x12,x14,0x2
     bfc:	00e60733          	add	x14,x12,x14
     c00:	00180813          	addi	x16,x16,1
     c04:	00171713          	slli	x14,x14,0x1
     c08:	00b70733          	add	x14,x14,x11
     c0c:	00084583          	lbu	x11,0(x16)
     c10:	fd070713          	addi	x14,x14,-48
     c14:	fd058613          	addi	x12,x11,-48
     c18:	0ff67613          	andi	x12,x12,255
     c1c:	fcc8fee3          	bgeu	x17,x12,bf8 <bsg_printf+0x6f0>
     c20:	00080493          	mv	x9,x16
     c24:	a51ff06f          	j	674 <bsg_printf+0x16c>
     c28:	0009a703          	lw	x14,0(x19)
     c2c:	00498993          	addi	x19,x19,4
     c30:	d01ff06f          	j	930 <bsg_printf+0x428>
     c34:	0009a703          	lw	x14,0(x19)
     c38:	0024c583          	lbu	x11,2(x9)
     c3c:	00498993          	addi	x19,x19,4
     c40:	fff74613          	not	x12,x14
     c44:	41f65613          	srai	x12,x12,0x1f
     c48:	00c77733          	and	x14,x14,x12
     c4c:	00248493          	addi	x9,x9,2
     c50:	a25ff06f          	j	674 <bsg_printf+0x16c>
     c54:	40c686b3          	sub	x13,x13,x12
     c58:	01068533          	add	x10,x13,x16
     c5c:	00a58533          	add	x10,x11,x10
     c60:	b69ff06f          	j	7c8 <bsg_printf+0x2c0>
     c64:	0004c703          	lbu	x14,0(x9)
     c68:	00078693          	mv	x13,x15
     c6c:	00050793          	mv	x15,x10
     c70:	00068513          	mv	x10,x13
     c74:	00e78023          	sb	x14,0(x15)
     c78:	0014c783          	lbu	x15,1(x9)
     c7c:	00148313          	addi	x6,x9,1
     c80:	900794e3          	bnez	x15,588 <bsg_printf+0x80>
     c84:	921ff06f          	j	5a4 <bsg_printf+0x9c>
     c88:	0017e793          	ori	x15,x15,1
     c8c:	00800693          	li	x13,8
     c90:	bf5ff06f          	j	884 <bsg_printf+0x37c>
     c94:	81000637          	lui	x12,0x81000
     c98:	05060613          	addi	x12,x12,80 # 81000050 <_end+0xfffffff0>
     c9c:	b61ff06f          	j	7fc <bsg_printf+0x2f4>
     ca0:	00d50733          	add	x14,x10,x13
     ca4:	02000793          	li	x15,32
     ca8:	08d05263          	blez	x13,d2c <bsg_printf+0x824>
     cac:	00150513          	addi	x10,x10,1
     cb0:	fef50fa3          	sb	x15,-1(x10)
     cb4:	fee51ce3          	bne	x10,x14,cac <bsg_printf+0x7a4>
     cb8:	fff00693          	li	x13,-1
     cbc:	c15ff06f          	j	8d0 <bsg_printf+0x3c8>
     cc0:	00000513          	li	x10,0
     cc4:	921ff06f          	j	5e4 <bsg_printf+0xdc>
     cc8:	02010913          	addi	x18,x2,32
     ccc:	00090513          	mv	x10,x18
     cd0:	8d5ff06f          	j	5a4 <bsg_printf+0x9c>
     cd4:	fff68813          	addi	x16,x13,-1
     cd8:	0cd5d263          	bge	x11,x13,d9c <bsg_printf+0x894>
     cdc:	40b687b3          	sub	x15,x13,x11
     ce0:	00f507b3          	add	x15,x10,x15
     ce4:	02000713          	li	x14,32
     ce8:	00150513          	addi	x10,x10,1
     cec:	fee50fa3          	sb	x14,-1(x10)
     cf0:	fef51ce3          	bne	x10,x15,ce8 <bsg_printf+0x7e0>
     cf4:	40d586b3          	sub	x13,x11,x13
     cf8:	010686b3          	add	x13,x13,x16
     cfc:	b2dff06f          	j	828 <bsg_printf+0x320>
     d00:	00030493          	mv	x9,x6
     d04:	c2dff06f          	j	930 <bsg_printf+0x428>
     d08:	01000613          	li	x12,16
     d0c:	d6dff06f          	j	a78 <bsg_printf+0x570>
     d10:	00a00613          	li	x12,10
     d14:	d65ff06f          	j	a78 <bsg_printf+0x570>
     d18:	0107f593          	andi	x11,x15,16
     d1c:	06058663          	beqz	x11,d88 <bsg_printf+0x880>
     d20:	00050713          	mv	x14,x10
     d24:	00000593          	li	x11,0
     d28:	b25ff06f          	j	84c <bsg_printf+0x344>
     d2c:	0009a783          	lw	x15,0(x19)
     d30:	00150713          	addi	x14,x10,1
     d34:	00498993          	addi	x19,x19,4
     d38:	00f50023          	sb	x15,0(x10)
     d3c:	00148313          	addi	x6,x9,1
     d40:	0014c783          	lbu	x15,1(x9)
     d44:	00070513          	mv	x10,x14
     d48:	840790e3          	bnez	x15,588 <bsg_printf+0x80>
     d4c:	859ff06f          	j	5a4 <bsg_printf+0x9c>
     d50:	00030493          	mv	x9,x6
     d54:	a69ff06f          	j	7bc <bsg_printf+0x2b4>
     d58:	00250513          	addi	x10,x10,2
     d5c:	f19ff06f          	j	c74 <bsg_printf+0x76c>
     d60:	ffe68793          	addi	x15,x13,-2
     d64:	00080693          	mv	x13,x16
     d68:	00078813          	mv	x16,x15
     d6c:	cb1ff06f          	j	a1c <bsg_printf+0x514>
     d70:	ffe68793          	addi	x15,x13,-2
     d74:	00060693          	mv	x13,x12
     d78:	00078613          	mv	x12,x15
     d7c:	dd1ff06f          	j	b4c <bsg_printf+0x644>
     d80:	00050713          	mv	x14,x10
     d84:	ac9ff06f          	j	84c <bsg_printf+0x344>
     d88:	fff68813          	addi	x16,x13,-1
     d8c:	f4d048e3          	bgtz	x13,cdc <bsg_printf+0x7d4>
     d90:	00080693          	mv	x13,x16
     d94:	00050713          	mv	x14,x10
     d98:	ab5ff06f          	j	84c <bsg_printf+0x344>
     d9c:	00080693          	mv	x13,x16
     da0:	a89ff06f          	j	828 <bsg_printf+0x320>

00000da4 <bsg_tile_group_barrier>:
     da4:	000017b7          	lui	x15,0x1
     da8:	00054e83          	lbu	x29,0(x10)
     dac:	4a87a603          	lw	x12,1192(x15) # 14a8 <__bsg_y>
     db0:	00154f03          	lbu	x30,1(x10)
     db4:	000017b7          	lui	x15,0x1
     db8:	4ac7ae03          	lw	x28,1196(x15) # 14ac <__bsg_x>
     dbc:	01861813          	slli	x16,x12,0x18
     dc0:	01ee87b3          	add	x15,x29,x30
     dc4:	4017d793          	srai	x15,x15,0x1
     dc8:	01056833          	or	x16,x10,x16
     dcc:	200008b7          	lui	x17,0x20000
     dd0:	01279693          	slli	x13,x15,0x12
     dd4:	01186833          	or	x16,x16,x17
     dd8:	41de0333          	sub	x6,x28,x29
     ddc:	0106e733          	or	x14,x13,x16
     de0:	00670733          	add	x14,x14,x6
     de4:	00100313          	li	x6,1
     de8:	0005c383          	lbu	x7,0(x11)
     dec:	0015c283          	lbu	x5,1(x11)
     df0:	00670123          	sb	x6,2(x14)
     df4:	03c78463          	beq	x15,x28,e1c <bsg_tile_group_barrier+0x78>
     df8:	00450713          	addi	x14,x10,4
     dfc:	00100793          	li	x15,1
     e00:	00c0006f          	j	e0c <bsg_tile_group_barrier+0x68>
     e04:	140726af          	lr.w.aq	x13,(x14)
     e08:	00f68663          	beq	x13,x15,e14 <bsg_tile_group_barrier+0x70>
     e0c:	100726af          	lr.w	x13,(x14)
     e10:	fef69ae3          	bne	x13,x15,e04 <bsg_tile_group_barrier+0x60>
     e14:	00052223          	sw	x0,4(x10)
     e18:	00008067          	ret
     e1c:	00538333          	add	x6,x7,x5
     e20:	40135313          	srai	x6,x6,0x1
     e24:	01831793          	slli	x15,x6,0x18
     e28:	00b6e6b3          	or	x13,x13,x11
     e2c:	00d7e6b3          	or	x13,x15,x13
     e30:	0116e8b3          	or	x17,x13,x17
     e34:	00038f93          	mv	x31,x7
     e38:	41df06b3          	sub	x13,x30,x29
     e3c:	0006ce63          	bltz	x13,e58 <bsg_tile_group_barrier+0xb4>
     e40:	00000793          	li	x15,0
     e44:	00f50733          	add	x14,x10,x15
     e48:	00274703          	lbu	x14,2(x14)
     e4c:	00178793          	addi	x15,x15,1
     e50:	fe0706e3          	beqz	x14,e3c <bsg_tile_group_barrier+0x98>
     e54:	fef6d8e3          	bge	x13,x15,e44 <bsg_tile_group_barrier+0xa0>
     e58:	407607b3          	sub	x15,x12,x7
     e5c:	00f888b3          	add	x17,x17,x15
     e60:	00100793          	li	x15,1
     e64:	00f88123          	sb	x15,2(x17) # 20000002 <_bsg_elf_vcache_size+0x1ffe0002>
     e68:	06c30063          	beq	x6,x12,ec8 <bsg_tile_group_barrier+0x124>
     e6c:	00458713          	addi	x14,x11,4
     e70:	00100793          	li	x15,1
     e74:	00c0006f          	j	e80 <bsg_tile_group_barrier+0xdc>
     e78:	1407262f          	lr.w.aq	x12,(x14)
     e7c:	00f60663          	beq	x12,x15,e88 <bsg_tile_group_barrier+0xe4>
     e80:	1007262f          	lr.w	x12,(x14)
     e84:	fef61ae3          	bne	x12,x15,e78 <bsg_tile_group_barrier+0xd4>
     e88:	001f0613          	addi	x12,x30,1
     e8c:	012e9793          	slli	x15,x29,0x12
     e90:	01261613          	slli	x12,x12,0x12
     e94:	00100313          	li	x6,1
     e98:	000408b7          	lui	x17,0x40
     e9c:	01df4a63          	blt	x30,x29,eb0 <bsg_tile_group_barrier+0x10c>
     ea0:	0107e733          	or	x14,x15,x16
     ea4:	00672223          	sw	x6,4(x14)
     ea8:	011787b3          	add	x15,x15,x17
     eac:	fef61ae3          	bne	x12,x15,ea0 <bsg_tile_group_barrier+0xfc>
     eb0:	0006c863          	bltz	x13,ec0 <bsg_tile_group_barrier+0x11c>
     eb4:	00050123          	sb	x0,2(x10)
     eb8:	00068463          	beqz	x13,ec0 <bsg_tile_group_barrier+0x11c>
     ebc:	000501a3          	sb	x0,3(x10)
     ec0:	0005a223          	sw	x0,4(x11)
     ec4:	f35ff06f          	j	df8 <bsg_tile_group_barrier+0x54>
     ec8:	ffe00313          	li	x6,-2
     ecc:	407288b3          	sub	x17,x5,x7
     ed0:	40b30333          	sub	x6,x6,x11
     ed4:	0408ce63          	bltz	x17,f30 <bsg_tile_group_barrier+0x18c>
     ed8:	00258793          	addi	x15,x11,2
     edc:	0007c703          	lbu	x14,0(x15)
     ee0:	00178793          	addi	x15,x15,1
     ee4:	00f30633          	add	x12,x6,x15
     ee8:	fe0706e3          	beqz	x14,ed4 <bsg_tile_group_barrier+0x130>
     eec:	fec8d8e3          	bge	x17,x12,edc <bsg_tile_group_barrier+0x138>
     ef0:	0272c863          	blt	x5,x7,f20 <bsg_tile_group_barrier+0x17c>
     ef4:	012e1e13          	slli	x28,x28,0x12
     ef8:	20000637          	lui	x12,0x20000
     efc:	00100713          	li	x14,1
     f00:	018f9793          	slli	x15,x31,0x18
     f04:	01c7e7b3          	or	x15,x15,x28
     f08:	00f5e7b3          	or	x15,x11,x15
     f0c:	00c7e7b3          	or	x15,x15,x12
     f10:	00e7a223          	sw	x14,4(x15)
     f14:	001f8f93          	addi	x31,x31,1
     f18:	fff2d4e3          	bge	x5,x31,f00 <bsg_tile_group_barrier+0x15c>
     f1c:	f408c8e3          	bltz	x17,e6c <bsg_tile_group_barrier+0xc8>
     f20:	00058123          	sb	x0,2(x11)
     f24:	f40884e3          	beqz	x17,e6c <bsg_tile_group_barrier+0xc8>
     f28:	000581a3          	sb	x0,3(x11)
     f2c:	f41ff06f          	j	e6c <bsg_tile_group_barrier+0xc8>
     f30:	fc72d2e3          	bge	x5,x7,ef4 <bsg_tile_group_barrier+0x150>
     f34:	f39ff06f          	j	e6c <bsg_tile_group_barrier+0xc8>

00000f38 <kernel_float_vec_exp>:
     f38:	000017b7          	lui	x15,0x1
     f3c:	00001737          	lui	x14,0x1
     f40:	49872703          	lw	x14,1176(x14) # 1498 <__bsg_grid_dim_x>
     f44:	48c7a783          	lw	x15,1164(x15) # 148c <__bsg_tile_group_id_y>
     f48:	ff010113          	addi	x2,x2,-16
     f4c:	00001637          	lui	x12,0x1
     f50:	02e787b3          	mul	x15,x15,x14
     f54:	00912223          	sw	x9,4(x2)
     f58:	00001737          	lui	x14,0x1
     f5c:	49062483          	lw	x9,1168(x12) # 1490 <__bsg_tile_group_id_x>
     f60:	4a472703          	lw	x14,1188(x14) # 14a4 <finitef>
     f64:	00112623          	sw	x1,12(x2)
     f68:	00812423          	sw	x8,8(x2)
     f6c:	01212023          	sw	x18,0(x2)
     f70:	009787b3          	add	x15,x15,x9
     f74:	02d784b3          	mul	x9,x15,x13
     f78:	04d75463          	bge	x14,x13,fc0 <kernel_float_vec_exp+0x88>
     f7c:	fff74913          	not	x18,x14
     f80:	00d90933          	add	x18,x18,x13
     f84:	00e484b3          	add	x9,x9,x14
     f88:	ffc97913          	andi	x18,x18,-4
     f8c:	00990933          	add	x18,x18,x9
     f90:	00291913          	slli	x18,x18,0x2
     f94:	00249493          	slli	x9,x9,0x2
     f98:	01050793          	addi	x15,x10,16
     f9c:	00950433          	add	x8,x10,x9
     fa0:	00f90933          	add	x18,x18,x15
     fa4:	009584b3          	add	x9,x11,x9
     fa8:	00042503          	lw	x10,0(x8) # 81000000 <_end+0xffffffa0>
     fac:	01048493          	addi	x9,x9,16
     fb0:	01040413          	addi	x8,x8,16
     fb4:	03c000ef          	jal	x1,ff0 <expf>
     fb8:	fea4a823          	sw	x10,-16(x9)
     fbc:	ff2416e3          	bne	x8,x18,fa8 <kernel_float_vec_exp+0x70>
     fc0:	00001537          	lui	x10,0x1
     fc4:	000015b7          	lui	x11,0x1
     fc8:	4b850513          	addi	x10,x10,1208 # 14b8 <matherr>
     fcc:	4b058593          	addi	x11,x11,1200 # 14b0 <c_barrier>
     fd0:	dd5ff0ef          	jal	x1,da4 <bsg_tile_group_barrier>
     fd4:	00c12083          	lw	x1,12(x2)
     fd8:	00812403          	lw	x8,8(x2)
     fdc:	00412483          	lw	x9,4(x2)
     fe0:	00012903          	lw	x18,0(x2)
     fe4:	00000513          	li	x10,0
     fe8:	01010113          	addi	x2,x2,16
     fec:	00008067          	ret

00000ff0 <expf>:
     ff0:	fc010113          	addi	x2,x2,-64
     ff4:	02812c23          	sw	x8,56(x2)
     ff8:	02912a23          	sw	x9,52(x2)
     ffc:	03212823          	sw	x18,48(x2)
    1000:	02112e23          	sw	x1,60(x2)
    1004:	00001937          	lui	x18,0x1
    1008:	00050493          	mv	x9,x10
    100c:	178000ef          	jal	x1,1184 <__ieee754_expf>
    1010:	4c092703          	lw	x14,1216(x18) # 14c0 <__divsf3>
    1014:	fff00793          	li	x15,-1
    1018:	00050413          	mv	x8,x10
    101c:	02f70a63          	beq	x14,x15,1050 <_bsg_data_start_addr+0x50>
    1020:	00048513          	mv	x10,x9
    1024:	480000ef          	jal	x1,14a4 <finitef>
    1028:	02050463          	beqz	x10,1050 <_bsg_data_start_addr+0x50>
    102c:	000017b7          	lui	x15,0x1
    1030:	4387a787          	flw	f15,1080(x15) # 1438 <__ieee754_expf+0x2b4>
    1034:	f0048753          	fmv.w.x	f14,x9
    1038:	a0e797d3          	flt.s	x15,f15,f14
    103c:	0e079263          	bnez	x15,1120 <_bsg_data_start_addr+0x120>
    1040:	000017b7          	lui	x15,0x1
    1044:	43c7a787          	flw	f15,1084(x15) # 143c <__ieee754_expf+0x2b8>
    1048:	a0f717d3          	flt.s	x15,f14,f15
    104c:	02079063          	bnez	x15,106c <_bsg_data_start_addr+0x6c>
    1050:	03c12083          	lw	x1,60(x2)
    1054:	00040513          	mv	x10,x8
    1058:	03812403          	lw	x8,56(x2)
    105c:	03412483          	lw	x9,52(x2)
    1060:	03012903          	lw	x18,48(x2)
    1064:	04010113          	addi	x2,x2,64
    1068:	00008067          	ret
    106c:	00400793          	li	x15,4
    1070:	00f12423          	sw	x15,8(x2)
    1074:	810007b7          	lui	x15,0x81000
    1078:	05878793          	addi	x15,x15,88 # 81000058 <_end+0xfffffff8>
    107c:	00048513          	mv	x10,x9
    1080:	00f12623          	sw	x15,12(x2)
    1084:	02012423          	sw	x0,40(x2)
    1088:	141000ef          	jal	x1,19c8 <__extendsfdf2>
    108c:	00050613          	mv	x12,x10
    1090:	4c092503          	lw	x10,1216(x18)
    1094:	00c12c23          	sw	x12,24(x2)
    1098:	00b12e23          	sw	x11,28(x2)
    109c:	00c12823          	sw	x12,16(x2)
    10a0:	00b12a23          	sw	x11,20(x2)
    10a4:	02012023          	sw	x0,32(x2)
    10a8:	02012223          	sw	x0,36(x2)
    10ac:	00200793          	li	x15,2
    10b0:	06f50063          	beq	x10,x15,1110 <_bsg_data_start_addr+0x110>
    10b4:	00810513          	addi	x10,x2,8
    10b8:	400000ef          	jal	x1,14b8 <matherr>
    10bc:	04050a63          	beqz	x10,1110 <_bsg_data_start_addr+0x110>
    10c0:	02812783          	lw	x15,40(x2)
    10c4:	0a079863          	bnez	x15,1174 <_bsg_data_start_addr+0x174>
    10c8:	02012503          	lw	x10,32(x2)
    10cc:	02412583          	lw	x11,36(x2)
    10d0:	201000ef          	jal	x1,1ad0 <__truncdfsf2>
    10d4:	00050413          	mv	x8,x10
    10d8:	03c12083          	lw	x1,60(x2)
    10dc:	00040513          	mv	x10,x8
    10e0:	03812403          	lw	x8,56(x2)
    10e4:	03412483          	lw	x9,52(x2)
    10e8:	03012903          	lw	x18,48(x2)
    10ec:	04010113          	addi	x2,x2,64
    10f0:	00008067          	ret
    10f4:	00001737          	lui	x14,0x1
    10f8:	43072603          	lw	x12,1072(x14) # 1430 <__ieee754_expf+0x2ac>
    10fc:	43472683          	lw	x13,1076(x14)
    1100:	00200793          	li	x15,2
    1104:	02c12023          	sw	x12,32(x2)
    1108:	02d12223          	sw	x13,36(x2)
    110c:	faf514e3          	bne	x10,x15,10b4 <_bsg_data_start_addr+0xb4>
    1110:	4e9000ef          	jal	x1,1df8 <__errno>
    1114:	02200793          	li	x15,34
    1118:	00f52023          	sw	x15,0(x10)
    111c:	fa5ff06f          	j	10c0 <_bsg_data_start_addr+0xc0>
    1120:	00300793          	li	x15,3
    1124:	00f12423          	sw	x15,8(x2)
    1128:	810007b7          	lui	x15,0x81000
    112c:	05878793          	addi	x15,x15,88 # 81000058 <_end+0xfffffff8>
    1130:	00048513          	mv	x10,x9
    1134:	00f12623          	sw	x15,12(x2)
    1138:	02012423          	sw	x0,40(x2)
    113c:	08d000ef          	jal	x1,19c8 <__extendsfdf2>
    1140:	00050613          	mv	x12,x10
    1144:	4c092503          	lw	x10,1216(x18)
    1148:	00c12c23          	sw	x12,24(x2)
    114c:	00b12e23          	sw	x11,28(x2)
    1150:	00c12823          	sw	x12,16(x2)
    1154:	00b12a23          	sw	x11,20(x2)
    1158:	f8051ee3          	bnez	x10,10f4 <_bsg_data_start_addr+0xf4>
    115c:	000017b7          	lui	x15,0x1
    1160:	4287a703          	lw	x14,1064(x15) # 1428 <__ieee754_expf+0x2a4>
    1164:	42c7a783          	lw	x15,1068(x15)
    1168:	02e12023          	sw	x14,32(x2)
    116c:	02f12223          	sw	x15,36(x2)
    1170:	f45ff06f          	j	10b4 <_bsg_data_start_addr+0xb4>
    1174:	485000ef          	jal	x1,1df8 <__errno>
    1178:	02812783          	lw	x15,40(x2)
    117c:	00f52023          	sw	x15,0(x10)
    1180:	f49ff06f          	j	10c8 <_bsg_data_start_addr+0xc8>

00001184 <__ieee754_expf>:
    1184:	fe010113          	addi	x2,x2,-32
    1188:	00151793          	slli	x15,x10,0x1
    118c:	00812c23          	sw	x8,24(x2)
    1190:	00112e23          	sw	x1,28(x2)
    1194:	00912a23          	sw	x9,20(x2)
    1198:	01212823          	sw	x18,16(x2)
    119c:	01312623          	sw	x19,12(x2)
    11a0:	7f800737          	lui	x14,0x7f800
    11a4:	0017d793          	srli	x15,x15,0x1
    11a8:	00050413          	mv	x8,x10
    11ac:	12f76863          	bltu	x14,x15,12dc <__ieee754_expf+0x158>
    11b0:	01f55613          	srli	x12,x10,0x1f
    11b4:	24e78663          	beq	x15,x14,1400 <__ieee754_expf+0x27c>
    11b8:	42b17737          	lui	x14,0x42b17
    11bc:	21770713          	addi	x14,x14,535 # 42b17217 <_bsg_elf_vcache_size+0x42af7217>
    11c0:	14a74263          	blt	x14,x10,1304 <__ieee754_expf+0x180>
    11c4:	22054463          	bltz	x10,13ec <__ieee754_expf+0x268>
    11c8:	3eb17737          	lui	x14,0x3eb17
    11cc:	21870713          	addi	x14,x14,536 # 3eb17218 <_bsg_elf_vcache_size+0x3eaf7218>
    11d0:	16f77063          	bgeu	x14,x15,1330 <__ieee754_expf+0x1ac>
    11d4:	3f851737          	lui	x14,0x3f851
    11d8:	59170713          	addi	x14,x14,1425 # 3f851591 <_bsg_elf_vcache_size+0x3f831591>
    11dc:	24f76c63          	bltu	x14,x15,1434 <__ieee754_expf+0x2b0>
    11e0:	00001737          	lui	x14,0x1
    11e4:	00261693          	slli	x13,x12,0x2
    11e8:	47870713          	addi	x14,x14,1144 # 1478 <ln2HI>
    11ec:	00d70733          	add	x14,x14,x13
    11f0:	00072787          	flw	f15,0(x14)
    11f4:	f0040753          	fmv.w.x	f14,x8
    11f8:	000017b7          	lui	x15,0x1
    11fc:	47078793          	addi	x15,x15,1136 # 1470 <ln2LO>
    1200:	08f777d3          	fsub.s	f15,f14,f15
    1204:	00d787b3          	add	x15,x15,x13
    1208:	00100493          	li	x9,1
    120c:	0007a903          	lw	x18,0(x15)
    1210:	40c484b3          	sub	x9,x9,x12
    1214:	e00789d3          	fmv.x.w	x19,f15
    1218:	40c484b3          	sub	x9,x9,x12
    121c:	f0090753          	fmv.w.x	f14,x18
    1220:	f00987d3          	fmv.w.x	f15,x19
    1224:	000017b7          	lui	x15,0x1
    1228:	08e7f7d3          	fsub.s	f15,f15,f14
    122c:	10f7f753          	fmul.s	f14,f15,f15
    1230:	e0078453          	fmv.x.w	x8,f15
    1234:	4507a787          	flw	f15,1104(x15) # 1450 <__ieee754_expf+0x2cc>
    1238:	000017b7          	lui	x15,0x1
    123c:	4547a687          	flw	f13,1108(x15) # 1454 <__ieee754_expf+0x2d0>
    1240:	10f777d3          	fmul.s	f15,f14,f15
    1244:	000017b7          	lui	x15,0x1
    1248:	08d7f7d3          	fsub.s	f15,f15,f13
    124c:	4587a687          	flw	f13,1112(x15) # 1458 <__ieee754_expf+0x2d4>
    1250:	000017b7          	lui	x15,0x1
    1254:	10e7f7d3          	fmul.s	f15,f15,f14
    1258:	00d7f7d3          	fadd.s	f15,f15,f13
    125c:	45c7a687          	flw	f13,1116(x15) # 145c <__ieee754_expf+0x2d8>
    1260:	000017b7          	lui	x15,0x1
    1264:	10e7f7d3          	fmul.s	f15,f15,f14
    1268:	08d7f7d3          	fsub.s	f15,f15,f13
    126c:	4607a687          	flw	f13,1120(x15) # 1460 <__ieee754_expf+0x2dc>
    1270:	10e7f7d3          	fmul.s	f15,f15,f14
    1274:	00d7f7d3          	fadd.s	f15,f15,f13
    1278:	10e7f7d3          	fmul.s	f15,f15,f14
    127c:	f0040753          	fmv.w.x	f14,x8
    1280:	08f777d3          	fsub.s	f15,f14,f15
    1284:	10f77753          	fmul.s	f14,f14,f15
    1288:	e0070553          	fmv.x.w	x10,f14
    128c:	20048863          	beqz	x9,149c <__bsg_grp_org_y>
    1290:	000017b7          	lui	x15,0x1
    1294:	4687a707          	flw	f14,1128(x15) # 1468 <__ieee754_expf+0x2e4>
    1298:	08f777d3          	fsub.s	f15,f14,f15
    129c:	e00785d3          	fmv.x.w	x11,f15
    12a0:	220000ef          	jal	x1,14c0 <__divsf3>
    12a4:	f0090753          	fmv.w.x	f14,x18
    12a8:	f00507d3          	fmv.w.x	f15,x10
    12ac:	00001737          	lui	x14,0x1
    12b0:	f8300793          	li	x15,-125
    12b4:	08f777d3          	fsub.s	f15,f14,f15
    12b8:	f0098753          	fmv.w.x	f14,x19
    12bc:	08e7f7d3          	fsub.s	f15,f15,f14
    12c0:	46472707          	flw	f14,1124(x14) # 1464 <__ieee754_expf+0x2e0>
    12c4:	08f777d3          	fsub.s	f15,f14,f15
    12c8:	e0078953          	fmv.x.w	x18,f15
    12cc:	14f4c263          	blt	x9,x15,1410 <__ieee754_expf+0x28c>
    12d0:	01749493          	slli	x9,x9,0x17
    12d4:	01248533          	add	x10,x9,x18
    12d8:	0100006f          	j	12e8 <__ieee754_expf+0x164>
    12dc:	f00507d3          	fmv.w.x	f15,x10
    12e0:	00f7f7d3          	fadd.s	f15,f15,f15
    12e4:	e0078553          	fmv.x.w	x10,f15
    12e8:	01c12083          	lw	x1,28(x2)
    12ec:	01812403          	lw	x8,24(x2)
    12f0:	01412483          	lw	x9,20(x2)
    12f4:	01012903          	lw	x18,16(x2)
    12f8:	00c12983          	lw	x19,12(x2)
    12fc:	02010113          	addi	x2,x2,32
    1300:	00008067          	ret
    1304:	000017b7          	lui	x15,0x1
    1308:	4407a787          	flw	f15,1088(x15) # 1440 <__ieee754_expf+0x2bc>
    130c:	01c12083          	lw	x1,28(x2)
    1310:	01812403          	lw	x8,24(x2)
    1314:	10f7f7d3          	fmul.s	f15,f15,f15
    1318:	01412483          	lw	x9,20(x2)
    131c:	01012903          	lw	x18,16(x2)
    1320:	00c12983          	lw	x19,12(x2)
    1324:	e0078553          	fmv.x.w	x10,f15
    1328:	02010113          	addi	x2,x2,32
    132c:	00008067          	ret
    1330:	31800737          	lui	x14,0x31800
    1334:	000014b7          	lui	x9,0x1
    1338:	02e7f063          	bgeu	x15,x14,1358 <__ieee754_expf+0x1d4>
    133c:	000017b7          	lui	x15,0x1
    1340:	4407a707          	flw	f14,1088(x15) # 1440 <__ieee754_expf+0x2bc>
    1344:	f00406d3          	fmv.w.x	f13,x8
    1348:	4644a787          	flw	f15,1124(x9) # 1464 <__ieee754_expf+0x2e0>
    134c:	00e6f753          	fadd.s	f14,f13,f14
    1350:	a0e797d3          	flt.s	x15,f15,f14
    1354:	12079e63          	bnez	x15,1490 <__bsg_tile_group_id_x>
    1358:	f0040753          	fmv.w.x	f14,x8
    135c:	000017b7          	lui	x15,0x1
    1360:	4507a787          	flw	f15,1104(x15) # 1450 <__ieee754_expf+0x2cc>
    1364:	10e77753          	fmul.s	f14,f14,f14
    1368:	000017b7          	lui	x15,0x1
    136c:	4547a687          	flw	f13,1108(x15) # 1454 <__ieee754_expf+0x2d0>
    1370:	000017b7          	lui	x15,0x1
    1374:	10f777d3          	fmul.s	f15,f14,f15
    1378:	08d7f7d3          	fsub.s	f15,f15,f13
    137c:	4587a687          	flw	f13,1112(x15) # 1458 <__ieee754_expf+0x2d4>
    1380:	000017b7          	lui	x15,0x1
    1384:	10e7f7d3          	fmul.s	f15,f15,f14
    1388:	00d7f7d3          	fadd.s	f15,f15,f13
    138c:	45c7a687          	flw	f13,1116(x15) # 145c <__ieee754_expf+0x2d8>
    1390:	000017b7          	lui	x15,0x1
    1394:	10e7f7d3          	fmul.s	f15,f15,f14
    1398:	08d7f7d3          	fsub.s	f15,f15,f13
    139c:	4607a687          	flw	f13,1120(x15) # 1460 <__ieee754_expf+0x2dc>
    13a0:	10e7f7d3          	fmul.s	f15,f15,f14
    13a4:	00d7f7d3          	fadd.s	f15,f15,f13
    13a8:	10e7f7d3          	fmul.s	f15,f15,f14
    13ac:	f0040753          	fmv.w.x	f14,x8
    13b0:	08f777d3          	fsub.s	f15,f14,f15
    13b4:	10f77753          	fmul.s	f14,f14,f15
    13b8:	e0070553          	fmv.x.w	x10,f14
    13bc:	000017b7          	lui	x15,0x1
    13c0:	4687a707          	flw	f14,1128(x15) # 1468 <__ieee754_expf+0x2e4>
    13c4:	08e7f7d3          	fsub.s	f15,f15,f14
    13c8:	e00785d3          	fmv.x.w	x11,f15
    13cc:	0f4000ef          	jal	x1,14c0 <__divsf3>
    13d0:	f0050753          	fmv.w.x	f14,x10
    13d4:	f00406d3          	fmv.w.x	f13,x8
    13d8:	4644a787          	flw	f15,1124(x9)
    13dc:	08d77753          	fsub.s	f14,f14,f13
    13e0:	08e7f7d3          	fsub.s	f15,f15,f14
    13e4:	e0078553          	fmv.x.w	x10,f15
    13e8:	f01ff06f          	j	12e8 <__ieee754_expf+0x164>
    13ec:	42cff737          	lui	x14,0x42cff
    13f0:	1b570713          	addi	x14,x14,437 # 42cff1b5 <_bsg_elf_vcache_size+0x42cdf1b5>
    13f4:	00000513          	li	x10,0
    13f8:	dcf778e3          	bgeu	x14,x15,11c8 <__ieee754_expf+0x44>
    13fc:	eedff06f          	j	12e8 <__ieee754_expf+0x164>
    1400:	00000513          	li	x10,0
    1404:	ee0612e3          	bnez	x12,12e8 <__ieee754_expf+0x164>
    1408:	00040513          	mv	x10,x8
    140c:	eddff06f          	j	12e8 <__ieee754_expf+0x164>
    1410:	06448513          	addi	x10,x9,100
    1414:	01751513          	slli	x10,x10,0x17
    1418:	01250533          	add	x10,x10,x18
    141c:	000017b7          	lui	x15,0x1
    1420:	f0050753          	fmv.w.x	f14,x10
    1424:	46c7a787          	flw	f15,1132(x15) # 146c <__ieee754_expf+0x2e8>
    1428:	10f777d3          	fmul.s	f15,f14,f15
    142c:	e0078553          	fmv.x.w	x10,f15
    1430:	eb9ff06f          	j	12e8 <__ieee754_expf+0x164>
    1434:	000017b7          	lui	x15,0x1
    1438:	4447a787          	flw	f15,1092(x15) # 1444 <__ieee754_expf+0x2c0>
    143c:	f0040753          	fmv.w.x	f14,x8
    1440:	000014b7          	lui	x9,0x1
    1444:	48048493          	addi	x9,x9,1152 # 1480 <halF>
    1448:	10f777d3          	fmul.s	f15,f14,f15
    144c:	00261613          	slli	x12,x12,0x2
    1450:	00c48633          	add	x12,x9,x12
    1454:	00062707          	flw	f14,0(x12)
    1458:	000017b7          	lui	x15,0x1
    145c:	00e7f7d3          	fadd.s	f15,f15,f14
    1460:	c00794d3          	fcvt.w.s	x9,f15,rtz
    1464:	4487a787          	flw	f15,1096(x15) # 1448 <__ieee754_expf+0x2c4>
    1468:	000017b7          	lui	x15,0x1
    146c:	d004f753          	fcvt.s.w	f14,x9
    1470:	44c7a687          	flw	f13,1100(x15) # 144c <__ieee754_expf+0x2c8>
    1474:	10f777d3          	fmul.s	f15,f14,f15
    1478:	10d77753          	fmul.s	f14,f14,f13
    147c:	e0070953          	fmv.x.w	x18,f14
    1480:	f0040753          	fmv.w.x	f14,x8
    1484:	08f777d3          	fsub.s	f15,f14,f15
    1488:	e00789d3          	fmv.x.w	x19,f15
    148c:	d91ff06f          	j	121c <__ieee754_expf+0x98>
    1490:	00f6f7d3          	fadd.s	f15,f13,f15
    1494:	e0078553          	fmv.x.w	x10,f15
    1498:	e51ff06f          	j	12e8 <__ieee754_expf+0x164>
    149c:	000014b7          	lui	x9,0x1
    14a0:	f1dff06f          	j	13bc <__ieee754_expf+0x238>

000014a4 <finitef>:
    14a4:	00151513          	slli	x10,x10,0x1
    14a8:	7f8007b7          	lui	x15,0x7f800
    14ac:	00155513          	srli	x10,x10,0x1
    14b0:	00f52533          	slt	x10,x10,x15
    14b4:	00008067          	ret

000014b8 <matherr>:
    14b8:	00000513          	li	x10,0
    14bc:	00008067          	ret

000014c0 <__divsf3>:
{
    14c0:	fd010113          	addi	x2,x2,-48
    14c4:	01612823          	sw	x22,16(x2)
    14c8:	02112623          	sw	x1,44(x2)
    14cc:	02812423          	sw	x8,40(x2)
    14d0:	02912223          	sw	x9,36(x2)
    14d4:	03212023          	sw	x18,32(x2)
    14d8:	01312e23          	sw	x19,28(x2)
    14dc:	01412c23          	sw	x20,24(x2)
    14e0:	01512a23          	sw	x21,20(x2)
    14e4:	01712623          	sw	x23,12(x2)
    14e8:	00058b13          	mv	x22,x11
  FP_INIT_ROUNDMODE;
    14ec:	00202a73          	frrm	x20
  FP_UNPACK_S (A, a);
    14f0:	01755993          	srli	x19,x10,0x17
    14f4:	00951913          	slli	x18,x10,0x9
    14f8:	0ff9f993          	andi	x19,x19,255
    14fc:	00995913          	srli	x18,x18,0x9
    1500:	01f55a93          	srli	x21,x10,0x1f
    1504:	02098463          	beqz	x19,152c <_tls_data+0x4c>
    1508:	0ff00793          	li	x15,255
    150c:	04f98063          	beq	x19,x15,154c <_tls_data+0x6c>
    1510:	00391913          	slli	x18,x18,0x3
    1514:	040007b7          	lui	x15,0x4000
    1518:	00f96933          	or	x18,x18,x15
    151c:	f8198993          	addi	x19,x19,-127
    1520:	00000b93          	li	x23,0
  FP_DECL_EX;
    1524:	00000493          	li	x9,0
    1528:	03c0006f          	j	1564 <_tls_data+0x84>
  FP_UNPACK_S (A, a);
    152c:	0a090063          	beqz	x18,15cc <_tls_data+0xec>
    1530:	00090513          	mv	x10,x18
    1534:	079000ef          	jal	x1,1dac <__clzsi2>
    1538:	ffb50793          	addi	x15,x10,-5
    153c:	f8a00993          	li	x19,-118
    1540:	00f91933          	sll	x18,x18,x15
    1544:	40a989b3          	sub	x19,x19,x10
    1548:	fd9ff06f          	j	1520 <_tls_data+0x40>
    154c:	08090663          	beqz	x18,15d8 <_tls_data+0xf8>
    1550:	00991793          	slli	x15,x18,0x9
    1554:	0ff00993          	li	x19,255
    1558:	00300b93          	li	x23,3
    155c:	01000493          	li	x9,16
    1560:	fc07c2e3          	bltz	x15,1524 <_tls_data+0x44>
  FP_UNPACK_S (B, b);
    1564:	017b5793          	srli	x15,x22,0x17
    1568:	009b1413          	slli	x8,x22,0x9
    156c:	0ff7f793          	andi	x15,x15,255
    1570:	00945413          	srli	x8,x8,0x9
    1574:	01fb5b13          	srli	x22,x22,0x1f
    1578:	06078663          	beqz	x15,15e4 <_tls_data+0x104>
    157c:	0ff00713          	li	x14,255
    1580:	08e78263          	beq	x15,x14,1604 <_tls_data+0x124>
    1584:	00341413          	slli	x8,x8,0x3
    1588:	04000737          	lui	x14,0x4000
    158c:	00e46433          	or	x8,x8,x14
    1590:	f8178793          	addi	x15,x15,-127 # 3ffff81 <_bsg_elf_vcache_size+0x3fdff81>
    1594:	00000713          	li	x14,0
  FP_DIV_S (R, A, B);
    1598:	40f989b3          	sub	x19,x19,x15
    159c:	002b9793          	slli	x15,x23,0x2
    15a0:	00e7e7b3          	or	x15,x15,x14
    15a4:	fff78793          	addi	x15,x15,-1
    15a8:	00e00693          	li	x13,14
    15ac:	016ac633          	xor	x12,x21,x22
    15b0:	08f6ea63          	bltu	x13,x15,1644 <_tls_data+0x164>
    15b4:	000016b7          	lui	x13,0x1
    15b8:	00279793          	slli	x15,x15,0x2
    15bc:	6e468693          	addi	x13,x13,1764 # 16e4 <_tls_data+0x204>
    15c0:	00d787b3          	add	x15,x15,x13
    15c4:	0007a783          	lw	x15,0(x15)
    15c8:	00078067          	jr	x15
    15cc:	00000993          	li	x19,0
  FP_UNPACK_S (A, a);
    15d0:	00100b93          	li	x23,1
    15d4:	f51ff06f          	j	1524 <_tls_data+0x44>
    15d8:	0ff00993          	li	x19,255
    15dc:	00200b93          	li	x23,2
    15e0:	f45ff06f          	j	1524 <_tls_data+0x44>
  FP_UNPACK_S (B, b);
    15e4:	02040e63          	beqz	x8,1620 <_tls_data+0x140>
    15e8:	00040513          	mv	x10,x8
    15ec:	7c0000ef          	jal	x1,1dac <__clzsi2>
    15f0:	ffb50793          	addi	x15,x10,-5
    15f4:	00f41433          	sll	x8,x8,x15
    15f8:	f8a00793          	li	x15,-118
    15fc:	40a787b3          	sub	x15,x15,x10
    1600:	f95ff06f          	j	1594 <_tls_data+0xb4>
    1604:	02040463          	beqz	x8,162c <_tls_data+0x14c>
    1608:	00941793          	slli	x15,x8,0x9
    160c:	0207c663          	bltz	x15,1638 <_tls_data+0x158>
    1610:	0ff00793          	li	x15,255
    1614:	00300713          	li	x14,3
    1618:	01000493          	li	x9,16
    161c:	f7dff06f          	j	1598 <_tls_data+0xb8>
    1620:	00000793          	li	x15,0
    1624:	00100713          	li	x14,1
    1628:	f71ff06f          	j	1598 <_tls_data+0xb8>
    162c:	0ff00793          	li	x15,255
    1630:	00200713          	li	x14,2
    1634:	f65ff06f          	j	1598 <_tls_data+0xb8>
    1638:	0ff00793          	li	x15,255
    163c:	00300713          	li	x14,3
    1640:	f59ff06f          	j	1598 <_tls_data+0xb8>
  FP_DIV_S (R, A, B);
    1644:	00541513          	slli	x10,x8,0x5
    1648:	14897863          	bgeu	x18,x8,1798 <__clz_tab+0x78>
    164c:	fff98993          	addi	x19,x19,-1
    1650:	00000693          	li	x13,0
    1654:	01055413          	srli	x8,x10,0x10
    1658:	028958b3          	divu	x17,x18,x8
    165c:	000107b7          	lui	x15,0x10
    1660:	fff78793          	addi	x15,x15,-1 # ffff <_bsg_elf_stack_ptr+0xe003>
    1664:	00f577b3          	and	x15,x10,x15
    1668:	0106d693          	srli	x13,x13,0x10
    166c:	02897733          	remu	x14,x18,x8
    1670:	00088593          	mv	x11,x17
    1674:	03178833          	mul	x16,x15,x17
    1678:	01071713          	slli	x14,x14,0x10
    167c:	00e6e733          	or	x14,x13,x14
    1680:	01077e63          	bgeu	x14,x16,169c <_tls_data+0x1bc>
    1684:	00a70733          	add	x14,x14,x10
    1688:	fff88593          	addi	x11,x17,-1 # 3ffff <_bsg_elf_vcache_size+0x1ffff>
    168c:	00a76863          	bltu	x14,x10,169c <_tls_data+0x1bc>
    1690:	01077663          	bgeu	x14,x16,169c <_tls_data+0x1bc>
    1694:	ffe88593          	addi	x11,x17,-2
    1698:	00a70733          	add	x14,x14,x10
    169c:	41070733          	sub	x14,x14,x16
    16a0:	02875833          	divu	x16,x14,x8
    16a4:	02877733          	remu	x14,x14,x8
    16a8:	030786b3          	mul	x13,x15,x16
    16ac:	01071793          	slli	x15,x14,0x10
    16b0:	00080713          	mv	x14,x16
    16b4:	00d7fe63          	bgeu	x15,x13,16d0 <_tls_data+0x1f0>
    16b8:	00a787b3          	add	x15,x15,x10
    16bc:	fff80713          	addi	x14,x16,-1
    16c0:	00a7e863          	bltu	x15,x10,16d0 <_tls_data+0x1f0>
    16c4:	00d7f663          	bgeu	x15,x13,16d0 <_tls_data+0x1f0>
    16c8:	ffe80713          	addi	x14,x16,-2
    16cc:	00a787b3          	add	x15,x15,x10
    16d0:	01059413          	slli	x8,x11,0x10
    16d4:	40d787b3          	sub	x15,x15,x13
    16d8:	00e46433          	or	x8,x8,x14
    16dc:	00f037b3          	snez	x15,x15
    16e0:	00f46433          	or	x8,x8,x15
  FP_PACK_S (r, R);
    16e4:	07f98693          	addi	x13,x19,127
    16e8:	14d05e63          	blez	x13,1844 <_bsg_data_end_addr+0x24>
    16ec:	00747793          	andi	x15,x8,7
    16f0:	02078663          	beqz	x15,171c <_tls_data+0x23c>
    16f4:	00200793          	li	x15,2
    16f8:	0014e493          	ori	x9,x9,1
    16fc:	10fa0263          	beq	x20,x15,1800 <__clz_tab+0xe0>
    1700:	00300793          	li	x15,3
    1704:	0efa0863          	beq	x20,x15,17f4 <__clz_tab+0xd4>
    1708:	000a1a63          	bnez	x20,171c <_tls_data+0x23c>
    170c:	00f47793          	andi	x15,x8,15
    1710:	00400713          	li	x14,4
    1714:	00e78463          	beq	x15,x14,171c <_tls_data+0x23c>
    1718:	00440413          	addi	x8,x8,4
    171c:	00441793          	slli	x15,x8,0x4
    1720:	0007da63          	bgez	x15,1734 <__clz_tab+0x14>
    1724:	f80007b7          	lui	x15,0xf8000
    1728:	fff78793          	addi	x15,x15,-1 # f7ffffff <_end+0x76ffff9f>
    172c:	00f47433          	and	x8,x8,x15
    1730:	08098693          	addi	x13,x19,128
    1734:	0fe00793          	li	x15,254
    1738:	0cd7c863          	blt	x15,x13,1808 <__clz_tab+0xe8>
    173c:	00345413          	srli	x8,x8,0x3
    1740:	00068793          	mv	x15,x13
    1744:	01779793          	slli	x15,x15,0x17
    1748:	7f800537          	lui	x10,0x7f800
    174c:	00941413          	slli	x8,x8,0x9
    1750:	00a7f533          	and	x10,x15,x10
    1754:	00945413          	srli	x8,x8,0x9
    1758:	00856433          	or	x8,x10,x8
    175c:	01f61513          	slli	x10,x12,0x1f
    1760:	00a46533          	or	x10,x8,x10
  FP_HANDLE_EXCEPTIONS;
    1764:	00048463          	beqz	x9,176c <__clz_tab+0x4c>
    1768:	0014a073          	csrs	fflags,x9
}
    176c:	02c12083          	lw	x1,44(x2)
    1770:	02812403          	lw	x8,40(x2)
    1774:	02412483          	lw	x9,36(x2)
    1778:	02012903          	lw	x18,32(x2)
    177c:	01c12983          	lw	x19,28(x2)
    1780:	01812a03          	lw	x20,24(x2)
    1784:	01412a83          	lw	x21,20(x2)
    1788:	01012b03          	lw	x22,16(x2)
    178c:	00c12b83          	lw	x23,12(x2)
    1790:	03010113          	addi	x2,x2,48
    1794:	00008067          	ret
  FP_DIV_S (R, A, B);
    1798:	01f91693          	slli	x13,x18,0x1f
    179c:	00195913          	srli	x18,x18,0x1
    17a0:	eb5ff06f          	j	1654 <_tls_data+0x174>
  FP_UNPACK_S (A, a);
    17a4:	000a8613          	mv	x12,x21
  FP_DIV_S (R, A, B);
    17a8:	00090413          	mv	x8,x18
    17ac:	000b8713          	mv	x14,x23
  FP_PACK_S (r, R);
    17b0:	00300793          	li	x15,3
    17b4:	20f70263          	beq	x14,x15,19b8 <_bsg_data_end_addr+0x198>
    17b8:	00100793          	li	x15,1
    17bc:	1ef70a63          	beq	x14,x15,19b0 <_bsg_data_end_addr+0x190>
    17c0:	00200793          	li	x15,2
    17c4:	f2f710e3          	bne	x14,x15,16e4 <_tls_data+0x204>
    17c8:	0100006f          	j	17d8 <__clz_tab+0xb8>
  FP_UNPACK_S (B, b);
    17cc:	000b0613          	mv	x12,x22
  FP_DIV_S (R, A, B);
    17d0:	fe1ff06f          	j	17b0 <__clz_tab+0x90>
    17d4:	0084e493          	ori	x9,x9,8
  FP_PACK_S (r, R);
    17d8:	00000413          	li	x8,0
    17dc:	0ff00793          	li	x15,255
    17e0:	f65ff06f          	j	1744 <__clz_tab+0x24>
  FP_DIV_S (R, A, B);
    17e4:	00400437          	lui	x8,0x400
    17e8:	00000613          	li	x12,0
    17ec:	00300713          	li	x14,3
    17f0:	fc1ff06f          	j	17b0 <__clz_tab+0x90>
  FP_PACK_S (r, R);
    17f4:	f20614e3          	bnez	x12,171c <_tls_data+0x23c>
    17f8:	00840413          	addi	x8,x8,8 # 400008 <_bsg_elf_vcache_size+0x3e0008>
    17fc:	f21ff06f          	j	171c <_tls_data+0x23c>
    1800:	f0060ee3          	beqz	x12,171c <_tls_data+0x23c>
    1804:	ff5ff06f          	j	17f8 <__clz_tab+0xd8>
    1808:	00200793          	li	x15,2
    180c:	02fa0863          	beq	x20,x15,183c <_bsg_data_end_addr+0x1c>
    1810:	00300793          	li	x15,3
    1814:	00fa0a63          	beq	x20,x15,1828 <_bsg_data_end_addr+0x8>
    1818:	000a1a63          	bnez	x20,182c <_bsg_data_end_addr+0xc>
    181c:	00000413          	li	x8,0
    1820:	0ff00793          	li	x15,255
    1824:	0100006f          	j	1834 <_bsg_data_end_addr+0x14>
    1828:	fe060ae3          	beqz	x12,181c <__clz_tab+0xfc>
    182c:	fff00413          	li	x8,-1
    1830:	0fe00793          	li	x15,254
    1834:	0054e493          	ori	x9,x9,5
    1838:	f0dff06f          	j	1744 <__clz_tab+0x24>
    183c:	fe0610e3          	bnez	x12,181c <__clz_tab+0xfc>
    1840:	fedff06f          	j	182c <_bsg_data_end_addr+0xc>
    1844:	00100793          	li	x15,1
    1848:	04069463          	bnez	x13,1890 <_bsg_data_end_addr+0x70>
    184c:	00747713          	andi	x14,x8,7
    1850:	00040793          	mv	x15,x8
    1854:	02070863          	beqz	x14,1884 <_bsg_data_end_addr+0x64>
    1858:	00200793          	li	x15,2
    185c:	0014e493          	ori	x9,x9,1
    1860:	0afa0863          	beq	x20,x15,1910 <_bsg_data_end_addr+0xf0>
    1864:	00300793          	li	x15,3
    1868:	08fa0c63          	beq	x20,x15,1900 <_bsg_data_end_addr+0xe0>
    186c:	00040793          	mv	x15,x8
    1870:	000a1a63          	bnez	x20,1884 <_bsg_data_end_addr+0x64>
    1874:	00f47713          	andi	x14,x8,15
    1878:	00400593          	li	x11,4
    187c:	00b70463          	beq	x14,x11,1884 <_bsg_data_end_addr+0x64>
    1880:	00440793          	addi	x15,x8,4
    1884:	01b7d793          	srli	x15,x15,0x1b
    1888:	0017c793          	xori	x15,x15,1
    188c:	0017f793          	andi	x15,x15,1
    1890:	00100713          	li	x14,1
    1894:	40d70733          	sub	x14,x14,x13
    1898:	01b00693          	li	x13,27
    189c:	0ae6c863          	blt	x13,x14,194c <_bsg_data_end_addr+0x12c>
    18a0:	09e98993          	addi	x19,x19,158
    18a4:	00e45733          	srl	x14,x8,x14
    18a8:	01341433          	sll	x8,x8,x19
    18ac:	00803433          	snez	x8,x8
    18b0:	00876433          	or	x8,x14,x8
    18b4:	00747713          	andi	x14,x8,7
    18b8:	02070663          	beqz	x14,18e4 <_bsg_data_end_addr+0xc4>
    18bc:	00200713          	li	x14,2
    18c0:	0014e493          	ori	x9,x9,1
    18c4:	06ea0263          	beq	x20,x14,1928 <_bsg_data_end_addr+0x108>
    18c8:	00300713          	li	x14,3
    18cc:	04ea0863          	beq	x20,x14,191c <_bsg_data_end_addr+0xfc>
    18d0:	000a1a63          	bnez	x20,18e4 <_bsg_data_end_addr+0xc4>
    18d4:	00f47713          	andi	x14,x8,15
    18d8:	00400693          	li	x13,4
    18dc:	00d70463          	beq	x14,x13,18e4 <_bsg_data_end_addr+0xc4>
    18e0:	00440413          	addi	x8,x8,4
    18e4:	00541713          	slli	x14,x8,0x5
    18e8:	04075463          	bgez	x14,1930 <_bsg_data_end_addr+0x110>
    18ec:	0014e493          	ori	x9,x9,1
    18f0:	00000413          	li	x8,0
    18f4:	04079863          	bnez	x15,1944 <_bsg_data_end_addr+0x124>
    18f8:	00100793          	li	x15,1
    18fc:	e49ff06f          	j	1744 <__clz_tab+0x24>
    1900:	00040793          	mv	x15,x8
    1904:	f80610e3          	bnez	x12,1884 <_bsg_data_end_addr+0x64>
    1908:	00840793          	addi	x15,x8,8
    190c:	f79ff06f          	j	1884 <_bsg_data_end_addr+0x64>
    1910:	00040793          	mv	x15,x8
    1914:	f60608e3          	beqz	x12,1884 <_bsg_data_end_addr+0x64>
    1918:	ff1ff06f          	j	1908 <_bsg_data_end_addr+0xe8>
    191c:	fc0614e3          	bnez	x12,18e4 <_bsg_data_end_addr+0xc4>
    1920:	00840413          	addi	x8,x8,8
    1924:	fc1ff06f          	j	18e4 <_bsg_data_end_addr+0xc4>
    1928:	fa060ee3          	beqz	x12,18e4 <_bsg_data_end_addr+0xc4>
    192c:	ff5ff06f          	j	1920 <_bsg_data_end_addr+0x100>
    1930:	00345413          	srli	x8,x8,0x3
    1934:	e00788e3          	beqz	x15,1744 <__clz_tab+0x24>
    1938:	0014f793          	andi	x15,x9,1
    193c:	e00784e3          	beqz	x15,1744 <__clz_tab+0x24>
    1940:	00000793          	li	x15,0
    1944:	0024e493          	ori	x9,x9,2
    1948:	dfdff06f          	j	1744 <__clz_tab+0x24>
    194c:	02040463          	beqz	x8,1974 <_bsg_data_end_addr+0x154>
    1950:	00200793          	li	x15,2
    1954:	0014e493          	ori	x9,x9,1
    1958:	02fa0c63          	beq	x20,x15,1990 <_bsg_data_end_addr+0x170>
    195c:	00300793          	li	x15,3
    1960:	02fa0063          	beq	x20,x15,1980 <_bsg_data_end_addr+0x160>
    1964:	00100413          	li	x8,1
    1968:	000a1463          	bnez	x20,1970 <_bsg_data_end_addr+0x150>
    196c:	00500413          	li	x8,5
    1970:	00345413          	srli	x8,x8,0x3
    1974:	0024e493          	ori	x9,x9,2
    1978:	00000793          	li	x15,0
    197c:	dc9ff06f          	j	1744 <__clz_tab+0x24>
    1980:	00900413          	li	x8,9
    1984:	fe0606e3          	beqz	x12,1970 <_bsg_data_end_addr+0x150>
    1988:	00100413          	li	x8,1
    198c:	fe5ff06f          	j	1970 <_bsg_data_end_addr+0x150>
    1990:	00900413          	li	x8,9
    1994:	fc061ee3          	bnez	x12,1970 <_bsg_data_end_addr+0x150>
    1998:	ff1ff06f          	j	1988 <_bsg_data_end_addr+0x168>
    199c:	00400437          	lui	x8,0x400
    19a0:	0ff00793          	li	x15,255
    19a4:	00000613          	li	x12,0
  FP_DIV_S (R, A, B);
    19a8:	01000493          	li	x9,16
    19ac:	d99ff06f          	j	1744 <__clz_tab+0x24>
  FP_PACK_S (r, R);
    19b0:	00000413          	li	x8,0
    19b4:	fc5ff06f          	j	1978 <_bsg_data_end_addr+0x158>
    19b8:	00400437          	lui	x8,0x400
    19bc:	0ff00793          	li	x15,255
    19c0:	00000613          	li	x12,0
    19c4:	d81ff06f          	j	1744 <__clz_tab+0x24>

000019c8 <__extendsfdf2>:
#include "single.h"
#include "double.h"

DFtype
__extendsfdf2 (SFtype a)
{
    19c8:	ff010113          	addi	x2,x2,-16
    19cc:	00112623          	sw	x1,12(x2)
    19d0:	00812423          	sw	x8,8(x2)
    19d4:	00912223          	sw	x9,4(x2)
    19d8:	01212023          	sw	x18,0(x2)
  FP_DECL_EX;
  FP_DECL_S (A);
  FP_DECL_D (R);
  DFtype r;

  FP_INIT_EXCEPTIONS;
    19dc:	002027f3          	frrm	x15
  FP_UNPACK_RAW_S (A, a);
    19e0:	01755793          	srli	x15,x10,0x17
    19e4:	0ff7f793          	andi	x15,x15,255
#if _FP_W_TYPE_SIZE < _FP_FRACBITS_D
  FP_EXTEND (D, S, 2, 1, R, A);
    19e8:	00178913          	addi	x18,x15,1
  FP_UNPACK_RAW_S (A, a);
    19ec:	00951413          	slli	x8,x10,0x9
  FP_EXTEND (D, S, 2, 1, R, A);
    19f0:	0fe97913          	andi	x18,x18,254
  FP_UNPACK_RAW_S (A, a);
    19f4:	00945413          	srli	x8,x8,0x9
    19f8:	01f55493          	srli	x9,x10,0x1f
  FP_EXTEND (D, S, 2, 1, R, A);
    19fc:	04090a63          	beqz	x18,1a50 <__extendsfdf2+0x88>
    1a00:	38078513          	addi	x10,x15,896
  FP_DECL_EX;
    1a04:	00000913          	li	x18,0
  FP_EXTEND (D, S, 2, 1, R, A);
    1a08:	00345793          	srli	x15,x8,0x3
    1a0c:	01d41413          	slli	x8,x8,0x1d
#else
  FP_EXTEND (D, S, 1, 1, R, A);
#endif
  FP_PACK_RAW_D (r, R);
    1a10:	00c79793          	slli	x15,x15,0xc
    1a14:	01451513          	slli	x10,x10,0x14
    1a18:	00c7d793          	srli	x15,x15,0xc
    1a1c:	00f567b3          	or	x15,x10,x15
    1a20:	01f49513          	slli	x10,x9,0x1f
    1a24:	00a7e733          	or	x14,x15,x10
    1a28:	00070593          	mv	x11,x14
    1a2c:	00040513          	mv	x10,x8
  FP_HANDLE_EXCEPTIONS;
    1a30:	00090463          	beqz	x18,1a38 <__extendsfdf2+0x70>
    1a34:	00192073          	csrs	fflags,x18

  return r;
}
    1a38:	00c12083          	lw	x1,12(x2)
    1a3c:	00812403          	lw	x8,8(x2)
    1a40:	00412483          	lw	x9,4(x2)
    1a44:	00012903          	lw	x18,0(x2)
    1a48:	01010113          	addi	x2,x2,16
    1a4c:	00008067          	ret
  FP_EXTEND (D, S, 2, 1, R, A);
    1a50:	04079463          	bnez	x15,1a98 <__extendsfdf2+0xd0>
    1a54:	06040863          	beqz	x8,1ac4 <__extendsfdf2+0xfc>
    1a58:	00040513          	mv	x10,x8
    1a5c:	350000ef          	jal	x1,1dac <__clzsi2>
    1a60:	00a00793          	li	x15,10
    1a64:	02a7c263          	blt	x15,x10,1a88 <__extendsfdf2+0xc0>
    1a68:	00b00793          	li	x15,11
    1a6c:	40a787b3          	sub	x15,x15,x10
    1a70:	01550713          	addi	x14,x10,21 # 7f800015 <_bsg_elf_vcache_size+0x7f7e0015>
    1a74:	00f457b3          	srl	x15,x8,x15
    1a78:	00e41433          	sll	x8,x8,x14
    1a7c:	38900713          	li	x14,905
    1a80:	40a70533          	sub	x10,x14,x10
    1a84:	f8dff06f          	j	1a10 <__extendsfdf2+0x48>
    1a88:	ff550793          	addi	x15,x10,-11
    1a8c:	00f417b3          	sll	x15,x8,x15
    1a90:	00000413          	li	x8,0
    1a94:	fe9ff06f          	j	1a7c <__extendsfdf2+0xb4>
    1a98:	00000793          	li	x15,0
    1a9c:	02040063          	beqz	x8,1abc <__extendsfdf2+0xf4>
    1aa0:	00941793          	slli	x15,x8,0x9
    1aa4:	0007c463          	bltz	x15,1aac <__extendsfdf2+0xe4>
    1aa8:	01000913          	li	x18,16
    1aac:	00345793          	srli	x15,x8,0x3
    1ab0:	00080737          	lui	x14,0x80
    1ab4:	01d41413          	slli	x8,x8,0x1d
    1ab8:	00e7e7b3          	or	x15,x15,x14
    1abc:	7ff00513          	li	x10,2047
    1ac0:	f51ff06f          	j	1a10 <__extendsfdf2+0x48>
    1ac4:	00000793          	li	x15,0
    1ac8:	00000513          	li	x10,0
    1acc:	f45ff06f          	j	1a10 <__extendsfdf2+0x48>

00001ad0 <__truncdfsf2>:
  FP_DECL_EX;
  FP_DECL_D (A);
  FP_DECL_S (R);
  SFtype r;

  FP_INIT_ROUNDMODE;
    1ad0:	00202673          	frrm	x12
  FP_UNPACK_SEMIRAW_D (A, a);
    1ad4:	00c59713          	slli	x14,x11,0xc
    1ad8:	0145d813          	srli	x16,x11,0x14
    1adc:	00c75713          	srli	x14,x14,0xc
    1ae0:	7ff87813          	andi	x16,x16,2047
    1ae4:	00371693          	slli	x13,x14,0x3
#if _FP_W_TYPE_SIZE < _FP_FRACBITS_D
  FP_TRUNC (S, D, 1, 2, R, A);
    1ae8:	00180713          	addi	x14,x16,1
  FP_UNPACK_SEMIRAW_D (A, a);
    1aec:	01d55793          	srli	x15,x10,0x1d
  FP_TRUNC (S, D, 1, 2, R, A);
    1af0:	7fe77713          	andi	x14,x14,2046
  FP_UNPACK_SEMIRAW_D (A, a);
    1af4:	00d7e6b3          	or	x13,x15,x13
    1af8:	01f5d593          	srli	x11,x11,0x1f
    1afc:	00351793          	slli	x15,x10,0x3
  FP_TRUNC (S, D, 1, 2, R, A);
    1b00:	1c070a63          	beqz	x14,1cd4 <_gp+0xac>
    1b04:	c8080313          	addi	x6,x16,-896
    1b08:	0fe00713          	li	x14,254
    1b0c:	0c675a63          	bge	x14,x6,1be0 <__truncdfsf2+0x110>
    1b10:	06060063          	beqz	x12,1b70 <__truncdfsf2+0xa0>
    1b14:	00300793          	li	x15,3
    1b18:	04f61663          	bne	x12,x15,1b64 <__truncdfsf2+0x94>
    1b1c:	04058a63          	beqz	x11,1b70 <__truncdfsf2+0xa0>
    1b20:	fff00793          	li	x15,-1
    1b24:	0fe00313          	li	x6,254
#else
  FP_TRUNC (S, D, 1, 1, R, A);
#endif
  FP_PACK_SEMIRAW_S (r, R);
    1b28:	00000713          	li	x14,0
  FP_TRUNC (S, D, 1, 2, R, A);
    1b2c:	00500893          	li	x17,5
  FP_PACK_SEMIRAW_S (r, R);
    1b30:	00200693          	li	x13,2
    1b34:	0018e893          	ori	x17,x17,1
    1b38:	22d60a63          	beq	x12,x13,1d6c <_gp+0x144>
    1b3c:	00300693          	li	x13,3
    1b40:	22d60063          	beq	x12,x13,1d60 <_gp+0x138>
    1b44:	00061a63          	bnez	x12,1b58 <__truncdfsf2+0x88>
    1b48:	00f7f693          	andi	x13,x15,15
    1b4c:	00400513          	li	x10,4
    1b50:	00a68463          	beq	x13,x10,1b58 <__truncdfsf2+0x88>
    1b54:	00478793          	addi	x15,x15,4
    1b58:	02070263          	beqz	x14,1b7c <__truncdfsf2+0xac>
    1b5c:	0028e893          	ori	x17,x17,2
    1b60:	01c0006f          	j	1b7c <__truncdfsf2+0xac>
  FP_TRUNC (S, D, 1, 2, R, A);
    1b64:	00200793          	li	x15,2
    1b68:	faf61ce3          	bne	x12,x15,1b20 <__truncdfsf2+0x50>
    1b6c:	fa058ae3          	beqz	x11,1b20 <__truncdfsf2+0x50>
    1b70:	00000793          	li	x15,0
    1b74:	0ff00313          	li	x6,255
    1b78:	00500893          	li	x17,5
  FP_PACK_SEMIRAW_S (r, R);
    1b7c:	00579713          	slli	x14,x15,0x5
    1b80:	00075e63          	bgez	x14,1b9c <__truncdfsf2+0xcc>
    1b84:	00130313          	addi	x6,x6,1
    1b88:	0ff00713          	li	x14,255
    1b8c:	1ee30463          	beq	x6,x14,1d74 <_gp+0x14c>
    1b90:	fc000737          	lui	x14,0xfc000
    1b94:	fff70713          	addi	x14,x14,-1 # fbffffff <_end+0x7affff9f>
    1b98:	00e7f7b3          	and	x15,x15,x14
    1b9c:	0ff00713          	li	x14,255
    1ba0:	0037d793          	srli	x15,x15,0x3
    1ba4:	00e31863          	bne	x6,x14,1bb4 <__truncdfsf2+0xe4>
    1ba8:	00078663          	beqz	x15,1bb4 <__truncdfsf2+0xe4>
    1bac:	004007b7          	lui	x15,0x400
    1bb0:	00000593          	li	x11,0
    1bb4:	01731513          	slli	x10,x6,0x17
    1bb8:	7f800737          	lui	x14,0x7f800
    1bbc:	00979793          	slli	x15,x15,0x9
    1bc0:	00e57533          	and	x10,x10,x14
    1bc4:	0097d793          	srli	x15,x15,0x9
    1bc8:	00f56533          	or	x10,x10,x15
    1bcc:	01f59593          	slli	x11,x11,0x1f
    1bd0:	00b56533          	or	x10,x10,x11
  FP_HANDLE_EXCEPTIONS;
    1bd4:	1c088a63          	beqz	x17,1da8 <_gp+0x180>
    1bd8:	0018a073          	csrs	fflags,x17

  return r;
    1bdc:	00008067          	ret
  FP_TRUNC (S, D, 1, 2, R, A);
    1be0:	0c604063          	bgtz	x6,1ca0 <_gp+0x78>
    1be4:	fe900713          	li	x14,-23
    1be8:	12e34863          	blt	x6,x14,1d18 <_gp+0xf0>
    1bec:	00800737          	lui	x14,0x800
    1bf0:	01e00893          	li	x17,30
    1bf4:	00e6e6b3          	or	x13,x13,x14
    1bf8:	406888b3          	sub	x17,x17,x6
    1bfc:	01f00713          	li	x14,31
    1c00:	07174863          	blt	x14,x17,1c70 <_gp+0x48>
    1c04:	c8280813          	addi	x16,x16,-894
    1c08:	0117d8b3          	srl	x17,x15,x17
    1c0c:	010797b3          	sll	x15,x15,x16
    1c10:	00f037b3          	snez	x15,x15
    1c14:	010696b3          	sll	x13,x13,x16
    1c18:	00d7e6b3          	or	x13,x15,x13
    1c1c:	00d8e7b3          	or	x15,x17,x13
  FP_PACK_SEMIRAW_S (r, R);
    1c20:	12078a63          	beqz	x15,1d54 <_gp+0x12c>
    1c24:	00179713          	slli	x14,x15,0x1
    1c28:	00777693          	andi	x13,x14,7
    1c2c:	00000893          	li	x17,0
    1c30:	02068663          	beqz	x13,1c5c <_gp+0x34>
    1c34:	00200693          	li	x13,2
    1c38:	0ed60e63          	beq	x12,x13,1d34 <_gp+0x10c>
    1c3c:	00300693          	li	x13,3
    1c40:	0ed60063          	beq	x12,x13,1d20 <_gp+0xf8>
    1c44:	00100893          	li	x17,1
    1c48:	00061a63          	bnez	x12,1c5c <_gp+0x34>
    1c4c:	00f77693          	andi	x13,x14,15
    1c50:	00400513          	li	x10,4
    1c54:	00a68463          	beq	x13,x10,1c5c <_gp+0x34>
    1c58:	00470713          	addi	x14,x14,4 # 800004 <_bsg_elf_vcache_size+0x7e0004>
    1c5c:	01b75713          	srli	x14,x14,0x1b
    1c60:	00174713          	xori	x14,x14,1
    1c64:	00177713          	andi	x14,x14,1
    1c68:	00000313          	li	x6,0
    1c6c:	0540006f          	j	1cc0 <_gp+0x98>
  FP_TRUNC (S, D, 1, 2, R, A);
    1c70:	ffe00513          	li	x10,-2
    1c74:	40650533          	sub	x10,x10,x6
    1c78:	02000313          	li	x6,32
    1c7c:	00a6d533          	srl	x10,x13,x10
    1c80:	00000713          	li	x14,0
    1c84:	00688663          	beq	x17,x6,1c90 <_gp+0x68>
    1c88:	ca280813          	addi	x16,x16,-862
    1c8c:	01069733          	sll	x14,x13,x16
    1c90:	00f767b3          	or	x15,x14,x15
    1c94:	00f037b3          	snez	x15,x15
    1c98:	00f567b3          	or	x15,x10,x15
    1c9c:	f85ff06f          	j	1c20 <__truncdfsf2+0x150>
    1ca0:	00651513          	slli	x10,x10,0x6
    1ca4:	00a03533          	snez	x10,x10
    1ca8:	00369693          	slli	x13,x13,0x3
    1cac:	01d7d793          	srli	x15,x15,0x1d
    1cb0:	00d566b3          	or	x13,x10,x13
    1cb4:	00f6e7b3          	or	x15,x13,x15
  FP_PACK_SEMIRAW_S (r, R);
    1cb8:	00000713          	li	x14,0
  FP_DECL_EX;
    1cbc:	00000893          	li	x17,0
  FP_PACK_SEMIRAW_S (r, R);
    1cc0:	0077f693          	andi	x13,x15,7
    1cc4:	e60696e3          	bnez	x13,1b30 <__truncdfsf2+0x60>
    1cc8:	ea070ae3          	beqz	x14,1b7c <__truncdfsf2+0xac>
    1ccc:	0018f713          	andi	x14,x17,1
    1cd0:	e89ff06f          	j	1b58 <__truncdfsf2+0x88>
  FP_TRUNC (S, D, 1, 2, R, A);
    1cd4:	00f6e7b3          	or	x15,x13,x15
    1cd8:	00081663          	bnez	x16,1ce4 <_gp+0xbc>
    1cdc:	00f037b3          	snez	x15,x15
    1ce0:	f41ff06f          	j	1c20 <__truncdfsf2+0x150>
    1ce4:	06078263          	beqz	x15,1d48 <_gp+0x120>
    1ce8:	7ff00793          	li	x15,2047
  FP_DECL_EX;
    1cec:	00000893          	li	x17,0
  FP_TRUNC (S, D, 1, 2, R, A);
    1cf0:	00f81a63          	bne	x16,x15,1d04 <_gp+0xdc>
    1cf4:	004008b7          	lui	x17,0x400
    1cf8:	0116f8b3          	and	x17,x13,x17
  FP_DECL_EX;
    1cfc:	0018b893          	seqz	x17,x17
    1d00:	00489893          	slli	x17,x17,0x4
  FP_TRUNC (S, D, 1, 2, R, A);
    1d04:	00369693          	slli	x13,x13,0x3
    1d08:	020007b7          	lui	x15,0x2000
    1d0c:	00f6e7b3          	or	x15,x13,x15
    1d10:	0ff00313          	li	x6,255
    1d14:	fadff06f          	j	1cc0 <_gp+0x98>
    1d18:	00100793          	li	x15,1
    1d1c:	f09ff06f          	j	1c24 <__truncdfsf2+0x154>
  FP_PACK_SEMIRAW_S (r, R);
    1d20:	00058893          	mv	x17,x11
    1d24:	f2059ce3          	bnez	x11,1c5c <_gp+0x34>
    1d28:	00870713          	addi	x14,x14,8
    1d2c:	00100893          	li	x17,1
    1d30:	f2dff06f          	j	1c5c <_gp+0x34>
    1d34:	00100893          	li	x17,1
    1d38:	f20582e3          	beqz	x11,1c5c <_gp+0x34>
    1d3c:	00870713          	addi	x14,x14,8
    1d40:	00058893          	mv	x17,x11
    1d44:	f19ff06f          	j	1c5c <_gp+0x34>
  FP_DECL_EX;
    1d48:	00000893          	li	x17,0
  FP_TRUNC (S, D, 1, 2, R, A);
    1d4c:	0ff00313          	li	x6,255
    1d50:	e2dff06f          	j	1b7c <__truncdfsf2+0xac>
    1d54:	00000313          	li	x6,0
    1d58:	00000893          	li	x17,0
    1d5c:	e21ff06f          	j	1b7c <__truncdfsf2+0xac>
  FP_PACK_SEMIRAW_S (r, R);
    1d60:	de059ce3          	bnez	x11,1b58 <__truncdfsf2+0x88>
    1d64:	00878793          	addi	x15,x15,8 # 2000008 <_bsg_elf_vcache_size+0x1fe0008>
    1d68:	df1ff06f          	j	1b58 <__truncdfsf2+0x88>
    1d6c:	de0586e3          	beqz	x11,1b58 <__truncdfsf2+0x88>
    1d70:	ff5ff06f          	j	1d64 <_gp+0x13c>
    1d74:	00000793          	li	x15,0
    1d78:	02060463          	beqz	x12,1da0 <_gp+0x178>
    1d7c:	00300713          	li	x14,3
    1d80:	00e61a63          	bne	x12,x14,1d94 <_gp+0x16c>
    1d84:	00058e63          	beqz	x11,1da0 <_gp+0x178>
    1d88:	fff00793          	li	x15,-1
    1d8c:	0fe00313          	li	x6,254
    1d90:	0100006f          	j	1da0 <_gp+0x178>
    1d94:	00200713          	li	x14,2
    1d98:	fee618e3          	bne	x12,x14,1d88 <_gp+0x160>
    1d9c:	fe0586e3          	beqz	x11,1d88 <_gp+0x160>
    1da0:	0058e893          	ori	x17,x17,5
    1da4:	df9ff06f          	j	1b9c <__truncdfsf2+0xcc>
}
    1da8:	00008067          	ret

00001dac <__clzsi2>:
int
__clzSI2 (UWtype x)
{
  Wtype ret;

  count_leading_zeros (ret, x);
    1dac:	000107b7          	lui	x15,0x10
    1db0:	02f57a63          	bgeu	x10,x15,1de4 <__clzsi2+0x38>
    1db4:	0ff00793          	li	x15,255
    1db8:	00a7b7b3          	sltu	x15,x15,x10
    1dbc:	00379793          	slli	x15,x15,0x3
    1dc0:	00001737          	lui	x14,0x1
    1dc4:	02000693          	li	x13,32
    1dc8:	40f686b3          	sub	x13,x13,x15
    1dcc:	00f55533          	srl	x10,x10,x15
    1dd0:	72070793          	addi	x15,x14,1824 # 1720 <__clz_tab>
    1dd4:	00a78533          	add	x10,x15,x10
    1dd8:	00054503          	lbu	x10,0(x10)

  return ret;
}
    1ddc:	40a68533          	sub	x10,x13,x10
    1de0:	00008067          	ret
  count_leading_zeros (ret, x);
    1de4:	01000737          	lui	x14,0x1000
    1de8:	01000793          	li	x15,16
    1dec:	fce56ae3          	bltu	x10,x14,1dc0 <__clzsi2+0x14>
    1df0:	01800793          	li	x15,24
    1df4:	fcdff06f          	j	1dc0 <__clzsi2+0x14>

00001df8 <__errno>:
    1df8:	000017b7          	lui	x15,0x1
    1dfc:	4c47a503          	lw	x10,1220(x15) # 14c4 <_impure_ptr>
    1e00:	00008067          	ret

00001e04 <main>:
    1e04:	fffff297          	auipc	x5,0xfffff
    1e08:	6c42a283          	lw	x5,1732(x5) # 14c8 <cuda_kernel_not_loaded_val>
    1e0c:	fffff417          	auipc	x8,0xfffff
    1e10:	6d040413          	addi	x8,x8,1744 # 14dc <cuda_kernel_ptr>
    1e14:	1004232f          	lr.w	x6,(x8)
    1e18:	00629463          	bne	x5,x6,1e20 <__init_param>
    1e1c:	140422af          	lr.w.aq	x5,(x8)

00001e20 <__init_param>:
    1e20:	fffff297          	auipc	x5,0xfffff
    1e24:	6bc28293          	addi	x5,x5,1724 # 14dc <cuda_kernel_ptr>
    1e28:	0002a483          	lw	x9,0(x5)
    1e2c:	fffff297          	auipc	x5,0xfffff
    1e30:	6ac28293          	addi	x5,x5,1708 # 14d8 <cuda_argc>
    1e34:	0002a903          	lw	x18,0(x5)
    1e38:	fffff297          	auipc	x5,0xfffff
    1e3c:	69c28293          	addi	x5,x5,1692 # 14d4 <cuda_argv_ptr>
    1e40:	0002a983          	lw	x19,0(x5)
    1e44:	fffff297          	auipc	x5,0xfffff
    1e48:	68c28293          	addi	x5,x5,1676 # 14d0 <cuda_finish_signal_addr>
    1e4c:	0002aa03          	lw	x20,0(x5)

00001e50 <__load_argument>:
    1e50:	0009a503          	lw	x10,0(x19)
    1e54:	0049a583          	lw	x11,4(x19)
    1e58:	0089a603          	lw	x12,8(x19)
    1e5c:	00c9a683          	lw	x13,12(x19)
    1e60:	0109a703          	lw	x14,16(x19)
    1e64:	0149a783          	lw	x15,20(x19)
    1e68:	0189a803          	lw	x16,24(x19)
    1e6c:	01c9a883          	lw	x17,28(x19)
    1e70:	00800293          	li	x5,8
    1e74:	0322de63          	bge	x5,x18,1eb0 <__invoke_kernel>
    1e78:	ff890293          	addi	x5,x18,-8
    1e7c:	00229293          	slli	x5,x5,0x2
    1e80:	40510133          	sub	x2,x2,x5
    1e84:	00800293          	li	x5,8
    1e88:	02000313          	li	x6,32
    1e8c:	00000e13          	li	x28,0

00001e90 <__load_stack>:
    1e90:	013303b3          	add	x7,x6,x19
    1e94:	0003ae83          	lw	x29,0(x7)
    1e98:	002e0f33          	add	x30,x28,x2
    1e9c:	01df2023          	sw	x29,0(x30)
    1ea0:	00128293          	addi	x5,x5,1
    1ea4:	00430313          	addi	x6,x6,4
    1ea8:	004e0e13          	addi	x28,x28,4
    1eac:	ff22c2e3          	blt	x5,x18,1e90 <__load_stack>

00001eb0 <__invoke_kernel>:
    1eb0:	000480e7          	jalr	x9 # 1000 <_bsg_data_start_addr>
    1eb4:	00800293          	li	x5,8
    1eb8:	0122d863          	bge	x5,x18,1ec8 <__kernel_return>
    1ebc:	ff890293          	addi	x5,x18,-8
    1ec0:	00229293          	slli	x5,x5,0x2
    1ec4:	00510133          	add	x2,x2,x5

00001ec8 <__kernel_return>:
    1ec8:	fffff297          	auipc	x5,0xfffff
    1ecc:	6002a283          	lw	x5,1536(x5) # 14c8 <cuda_kernel_not_loaded_val>
    1ed0:	00542023          	sw	x5,0(x8)
    1ed4:	000017b7          	lui	x15,0x1
    1ed8:	4a47a783          	lw	x15,1188(x15) # 14a4 <finitef>
    1edc:	00079c63          	bnez	x15,1ef4 <__kernel_return+0x2c>
    1ee0:	000017b7          	lui	x15,0x1
    1ee4:	00001737          	lui	x14,0x1
    1ee8:	4d07a783          	lw	x15,1232(x15) # 14d0 <cuda_finish_signal_addr>
    1eec:	4cc72703          	lw	x14,1228(x14) # 14cc <cuda_finish_signal_val>
    1ef0:	00e7a023          	sw	x14,0(x15)
    1ef4:	f11ff06f          	j	1e04 <main>
    1ef8:	00000513          	li	x10,0
    1efc:	00008067          	ret
