Toplevel Directory: /home/centos/bsg_bladerunner//bsg_manycore
Dimensions: bsg_tiles_org_[X,Y] = 0 1; bsg_global_[X,Y] = 2,2+1; bsg_tiles[X,Y] = 2,2; bsg_group_size = 4
CAD Environment: Ignoring cadenv
Machine executable: /home/centos/bsg_bladerunner//bsg_manycore/machines/4x4/simv
/home/centos/bsg_bladerunner//bsg_manycore/software/riscv-tools/riscv-install/bin/riscv32-unknown-elf-objdump -M numeric --disassemble-all -S main.riscv

main.riscv:     file format elf32-littleriscv


Disassembly of section .data.dmem:

00001000 <impure_data>:
    1000:	0000                	unimp
    1002:	0000                	unimp
    1004:	12ec                	addi	x11,x2,364
    1006:	0000                	unimp
    1008:	1354                	addi	x13,x2,420
    100a:	0000                	unimp
    100c:	13bc                	addi	x15,x2,488
	...
    10a6:	0000                	unimp
    10a8:	0001                	nop
    10aa:	0000                	unimp
    10ac:	0000                	unimp
    10ae:	0000                	unimp
    10b0:	330e                	fld	f6,224(x2)
    10b2:	abcd                	j	16a4 <_tls_data+0x1c4>
    10b4:	1234                	addi	x13,x2,296
    10b6:	e66d                	bnez	x12,11a0 <__ieee754_expf+0x1c>
    10b8:	deec                	sw	x11,124(x13)
    10ba:	0005                	c.nop	1
    10bc:	0000000b          	0xb
	...

Disassembly of section .sdata.dmem:

00001428 <ln2LO-0x48>:
    1428:	0000                	unimp
    142a:	e000                	fsw	f8,0(x8)
    142c:	ffff                	0xffff
    142e:	000047ef          	jal	x15,542e <_bsg_elf_stack_ptr+0x3432>
    1432:	0000                	unimp
    1434:	0000                	unimp
    1436:	7ff0                	flw	f12,124(x15)
    1438:	7180                	flw	f8,32(x11)
    143a:	42b1                	li	x5,12
    143c:	f1b5                	bnez	x11,13a0 <__ieee754_expf+0x21c>
    143e:	f2cac2cf          	fnmadd.d	f5,f21,f12,f30,rmm
    1442:	7149                	addi	x2,x2,-368
    1444:	3fb8aa3b          	0x3fb8aa3b
    1448:	7180                	flw	f8,32(x11)
    144a:	3f31                	jal	1366 <__ieee754_expf+0x1e2>
    144c:	f7d1                	bnez	x15,13d8 <__ieee754_expf+0x254>
    144e:	bb4c3717          	auipc	x14,0xbb4c3
    1452:	3331                	jal	115e <_bsg_data_start_addr+0x15e>
    1454:	ea0e                	fsw	f3,20(x2)
    1456:	35dd                	jal	133c <__ieee754_expf+0x1b8>
    1458:	b355                	j	11fc <__ieee754_expf+0x78>
    145a:	388a                	fld	f17,160(x2)
    145c:	0b61                	addi	x22,x22,24
    145e:	3b36                	fld	f22,360(x2)
    1460:	3e2aaaab          	0x3e2aaaab
    1464:	0000                	unimp
    1466:	3f80                	fld	f8,56(x15)
    1468:	0000                	unimp
    146a:	4000                	lw	x8,0(x8)
    146c:	0000                	unimp
    146e:	0d80                	addi	x8,x2,720

00001470 <ln2LO>:
    1470:	f7d1                	bnez	x15,13fc <__ieee754_expf+0x278>
    1472:	f7d13717          	auipc	x14,0xf7d13
    1476:	          	auipc	x14,0x7180b

00001478 <ln2HI>:
    1478:	7180                	flw	f8,32(x11)
    147a:	3f31                	jal	1396 <__ieee754_expf+0x212>
    147c:	7180                	flw	f8,32(x11)
    147e:	bf31                	j	139a <__ieee754_expf+0x216>

00001480 <halF>:
    1480:	0000                	unimp
    1482:	3f00                	fld	f8,56(x14)
    1484:	0000                	unimp
    1486:	bf00                	fsd	f8,56(x14)

00001488 <_global_impure_ptr>:
    1488:	1000                	addi	x8,x2,32
	...

0000148c <__bsg_tile_group_id_y>:
    148c:	ffff                	0xffff
    148e:	ffff                	0xffff

00001490 <__bsg_tile_group_id_x>:
    1490:	ffff                	0xffff
    1492:	ffff                	0xffff

00001494 <__bsg_grid_dim_y>:
    1494:	ffff                	0xffff
    1496:	ffff                	0xffff

00001498 <__bsg_grid_dim_x>:
    1498:	ffff                	0xffff
    149a:	ffff                	0xffff

0000149c <__bsg_grp_org_y>:
    149c:	ffff                	0xffff
    149e:	ffff                	0xffff

000014a0 <__bsg_grp_org_x>:
    14a0:	ffff                	0xffff
    14a2:	ffff                	0xffff

000014a4 <__bsg_id>:
    14a4:	ffff                	0xffff
    14a6:	ffff                	0xffff

000014a8 <__bsg_y>:
    14a8:	ffff                	0xffff
    14aa:	ffff                	0xffff

000014ac <__bsg_x>:
    14ac:	ffff                	0xffff
    14ae:	ffff                	0xffff

000014b0 <c_barrier>:
    14b0:	0100                	addi	x8,x2,128
    14b2:	0000                	unimp
    14b4:	0000                	unimp
	...

000014b8 <r_barrier>:
    14b8:	0100                	addi	x8,x2,128
    14ba:	0000                	unimp
    14bc:	0000                	unimp
	...

000014c0 <__fdlib_version>:
    14c0:	0002                	c.slli64	x0
	...

000014c4 <_impure_ptr>:
    14c4:	1000                	addi	x8,x2,32
	...

Disassembly of section .sbss.dmem:

000014c8 <cuda_kernel_not_loaded_val>:
    14c8:	0000                	unimp
	...

000014cc <cuda_finish_signal_val>:
    14cc:	0000                	unimp
	...

000014d0 <cuda_finish_signal_addr>:
    14d0:	0000                	unimp
	...

000014d4 <cuda_argv_ptr>:
    14d4:	0000                	unimp
	...

000014d8 <cuda_argc>:
    14d8:	0000                	unimp
	...

000014dc <cuda_kernel_ptr>:
    14dc:	0000                	unimp
	...

Disassembly of section .rodata.dmem:

000014e0 <__clz_tab-0x240>:
#include "soft-fp.h"
#include "single.h"

SFtype
__divsf3 (SFtype a, SFtype b)
{
    14e0:	06d0                	addi	x12,x2,836
    14e2:	0000                	unimp
    14e4:	064c                	addi	x11,x2,772
    14e6:	0000                	unimp
    14e8:	064c                	addi	x11,x2,772
    14ea:	0000                	unimp
  FP_DECL_S (A);
  FP_DECL_S (B);
  FP_DECL_S (R);
  SFtype r;

  FP_INIT_ROUNDMODE;
    14ec:	06c4                	addi	x9,x2,836
    14ee:	0000                	unimp
  FP_UNPACK_S (A, a);
    14f0:	064c                	addi	x11,x2,772
    14f2:	0000                	unimp
    14f4:	064c                	addi	x11,x2,772
    14f6:	0000                	unimp
    14f8:	064c                	addi	x11,x2,772
    14fa:	0000                	unimp
    14fc:	064c                	addi	x11,x2,772
    14fe:	0000                	unimp
    1500:	064c                	addi	x11,x2,772
    1502:	0000                	unimp
    1504:	064c                	addi	x11,x2,772
    1506:	0000                	unimp
    1508:	064c                	addi	x11,x2,772
    150a:	0000                	unimp
    150c:	06b8                	addi	x14,x2,840
    150e:	0000                	unimp
    1510:	064c                	addi	x11,x2,772
    1512:	0000                	unimp
    1514:	06ac                	addi	x11,x2,840
    1516:	0000                	unimp
    1518:	064c                	addi	x11,x2,772
    151a:	0000                	unimp
    151c:	064c                	addi	x11,x2,772
    151e:	0000                	unimp
    1520:	06a0                	addi	x8,x2,840
    1522:	0000                	unimp
  FP_DECL_EX;
    1524:	0924                	addi	x9,x2,152
    1526:	0000                	unimp
    1528:	0714                	addi	x13,x2,896
    152a:	0000                	unimp
  FP_UNPACK_S (A, a);
    152c:	0714                	addi	x13,x2,896
    152e:	0000                	unimp
    1530:	0714                	addi	x13,x2,896
    1532:	0000                	unimp
    1534:	0714                	addi	x13,x2,896
    1536:	0000                	unimp
    1538:	0714                	addi	x13,x2,896
    153a:	0000                	unimp
    153c:	0714                	addi	x13,x2,896
    153e:	0000                	unimp
    1540:	0714                	addi	x13,x2,896
    1542:	0000                	unimp
    1544:	0714                	addi	x13,x2,896
    1546:	0000                	unimp
    1548:	0714                	addi	x13,x2,896
    154a:	0000                	unimp
    154c:	0714                	addi	x13,x2,896
    154e:	0000                	unimp
    1550:	0714                	addi	x13,x2,896
    1552:	0000                	unimp
    1554:	0714                	addi	x13,x2,896
    1556:	0000                	unimp
    1558:	0714                	addi	x13,x2,896
    155a:	0000                	unimp
    155c:	0714                	addi	x13,x2,896
    155e:	0000                	unimp
    1560:	0714                	addi	x13,x2,896
    1562:	0000                	unimp
  FP_UNPACK_S (B, b);
    1564:	0714                	addi	x13,x2,896
    1566:	0000                	unimp
    1568:	0714                	addi	x13,x2,896
    156a:	0000                	unimp
    156c:	0714                	addi	x13,x2,896
    156e:	0000                	unimp
    1570:	0714                	addi	x13,x2,896
    1572:	0000                	unimp
    1574:	0714                	addi	x13,x2,896
    1576:	0000                	unimp
    1578:	0714                	addi	x13,x2,896
    157a:	0000                	unimp
    157c:	0714                	addi	x13,x2,896
    157e:	0000                	unimp
    1580:	0914                	addi	x13,x2,144
    1582:	0000                	unimp
    1584:	0714                	addi	x13,x2,896
    1586:	0000                	unimp
    1588:	0714                	addi	x13,x2,896
    158a:	0000                	unimp
    158c:	0714                	addi	x13,x2,896
    158e:	0000                	unimp
    1590:	0714                	addi	x13,x2,896
    1592:	0000                	unimp
    1594:	0714                	addi	x13,x2,896
    1596:	0000                	unimp
  FP_DIV_S (R, A, B);
    1598:	0714                	addi	x13,x2,896
    159a:	0000                	unimp
    159c:	0714                	addi	x13,x2,896
    159e:	0000                	unimp
    15a0:	0714                	addi	x13,x2,896
    15a2:	0000                	unimp
    15a4:	0c28                	addi	x10,x2,536
    15a6:	0000                	unimp
    15a8:	0714                	addi	x13,x2,896
    15aa:	0000                	unimp
    15ac:	08c4                	addi	x9,x2,84
    15ae:	0000                	unimp
    15b0:	08b0                	addi	x12,x2,88
    15b2:	0000                	unimp
    15b4:	0714                	addi	x13,x2,896
    15b6:	0000                	unimp
    15b8:	0714                	addi	x13,x2,896
    15ba:	0000                	unimp
    15bc:	0714                	addi	x13,x2,896
    15be:	0000                	unimp
    15c0:	0714                	addi	x13,x2,896
    15c2:	0000                	unimp
    15c4:	08b0                	addi	x12,x2,88
    15c6:	0000                	unimp
    15c8:	0714                	addi	x13,x2,896
    15ca:	0000                	unimp
    15cc:	0714                	addi	x13,x2,896
    15ce:	0000                	unimp
  FP_UNPACK_S (A, a);
    15d0:	0714                	addi	x13,x2,896
    15d2:	0000                	unimp
    15d4:	0714                	addi	x13,x2,896
    15d6:	0000                	unimp
    15d8:	0714                	addi	x13,x2,896
    15da:	0000                	unimp
    15dc:	08a4                	addi	x9,x2,88
    15de:	0000                	unimp
    15e0:	087c                	addi	x15,x2,28
    15e2:	0000                	unimp
  FP_UNPACK_S (B, b);
    15e4:	0714                	addi	x13,x2,896
    15e6:	0000                	unimp
    15e8:	0714                	addi	x13,x2,896
    15ea:	0000                	unimp
    15ec:	07e8                	addi	x10,x2,972
    15ee:	0000                	unimp
    15f0:	0714                	addi	x13,x2,896
    15f2:	0000                	unimp
    15f4:	07d8                	addi	x14,x2,964
    15f6:	0000                	unimp
    15f8:	0714                	addi	x13,x2,896
    15fa:	0000                	unimp
    15fc:	0714                	addi	x13,x2,896
    15fe:	0000                	unimp
    1600:	07b4                	addi	x13,x2,968
    1602:	0000                	unimp
    1604:	0aa8                	addi	x10,x2,344
    1606:	0000                	unimp
    1608:	070c                	addi	x11,x2,896
    160a:	0000                	unimp
    160c:	070c                	addi	x11,x2,896
    160e:	0000                	unimp
    1610:	070c                	addi	x11,x2,896
    1612:	0000                	unimp
    1614:	070c                	addi	x11,x2,896
    1616:	0000                	unimp
    1618:	070c                	addi	x11,x2,896
    161a:	0000                	unimp
    161c:	070c                	addi	x11,x2,896
    161e:	0000                	unimp
    1620:	070c                	addi	x11,x2,896
    1622:	0000                	unimp
    1624:	070c                	addi	x11,x2,896
    1626:	0000                	unimp
    1628:	070c                	addi	x11,x2,896
    162a:	0000                	unimp
    162c:	070c                	addi	x11,x2,896
    162e:	0000                	unimp
    1630:	070c                	addi	x11,x2,896
    1632:	0000                	unimp
    1634:	070c                	addi	x11,x2,896
    1636:	0000                	unimp
    1638:	070c                	addi	x11,x2,896
    163a:	0000                	unimp
    163c:	070c                	addi	x11,x2,896
    163e:	0000                	unimp
    1640:	070c                	addi	x11,x2,896
    1642:	0000                	unimp
  FP_DIV_S (R, A, B);
    1644:	070c                	addi	x11,x2,896
    1646:	0000                	unimp
    1648:	070c                	addi	x11,x2,896
    164a:	0000                	unimp
    164c:	070c                	addi	x11,x2,896
    164e:	0000                	unimp
    1650:	070c                	addi	x11,x2,896
    1652:	0000                	unimp
    1654:	070c                	addi	x11,x2,896
    1656:	0000                	unimp
    1658:	070c                	addi	x11,x2,896
    165a:	0000                	unimp
    165c:	070c                	addi	x11,x2,896
    165e:	0000                	unimp
    1660:	0a9c                	addi	x15,x2,336
    1662:	0000                	unimp
    1664:	070c                	addi	x11,x2,896
    1666:	0000                	unimp
    1668:	070c                	addi	x11,x2,896
    166a:	0000                	unimp
    166c:	070c                	addi	x11,x2,896
    166e:	0000                	unimp
    1670:	070c                	addi	x11,x2,896
    1672:	0000                	unimp
    1674:	070c                	addi	x11,x2,896
    1676:	0000                	unimp
    1678:	070c                	addi	x11,x2,896
    167a:	0000                	unimp
    167c:	070c                	addi	x11,x2,896
    167e:	0000                	unimp
    1680:	070c                	addi	x11,x2,896
    1682:	0000                	unimp
    1684:	0aac                	addi	x11,x2,344
    1686:	0000                	unimp
    1688:	070c                	addi	x11,x2,896
    168a:	0000                	unimp
    168c:	08c0                	addi	x8,x2,84
    168e:	0000                	unimp
    1690:	0a70                	addi	x12,x2,284
    1692:	0000                	unimp
    1694:	070c                	addi	x11,x2,896
    1696:	0000                	unimp
    1698:	070c                	addi	x11,x2,896
    169a:	0000                	unimp
    169c:	070c                	addi	x11,x2,896
    169e:	0000                	unimp
    16a0:	070c                	addi	x11,x2,896
    16a2:	0000                	unimp
    16a4:	0a70                	addi	x12,x2,284
    16a6:	0000                	unimp
    16a8:	070c                	addi	x11,x2,896
    16aa:	0000                	unimp
    16ac:	070c                	addi	x11,x2,896
    16ae:	0000                	unimp
    16b0:	070c                	addi	x11,x2,896
    16b2:	0000                	unimp
    16b4:	070c                	addi	x11,x2,896
    16b6:	0000                	unimp
    16b8:	070c                	addi	x11,x2,896
    16ba:	0000                	unimp
    16bc:	0a94                	addi	x13,x2,336
    16be:	0000                	unimp
    16c0:	0878                	addi	x14,x2,28
    16c2:	0000                	unimp
    16c4:	070c                	addi	x11,x2,896
    16c6:	0000                	unimp
    16c8:	070c                	addi	x11,x2,896
    16ca:	0000                	unimp
    16cc:	07e4                	addi	x9,x2,972
    16ce:	0000                	unimp
    16d0:	070c                	addi	x11,x2,896
    16d2:	0000                	unimp
    16d4:	0d10                	addi	x12,x2,656
    16d6:	0000                	unimp
    16d8:	070c                	addi	x11,x2,896
    16da:	0000                	unimp
    16dc:	070c                	addi	x11,x2,896
    16de:	0000                	unimp
    16e0:	0d08                	addi	x10,x2,656
    16e2:	0000                	unimp
  FP_PACK_S (r, R);
    16e4:	17d4                	addi	x13,x2,996
    16e6:	0000                	unimp
    16e8:	19b0                	addi	x12,x2,248
    16ea:	0000                	unimp
    16ec:	17cc                	addi	x11,x2,996
    16ee:	0000                	unimp
    16f0:	19b0                	addi	x12,x2,248
    16f2:	0000                	unimp
    16f4:	199c                	addi	x15,x2,240
    16f6:	0000                	unimp
    16f8:	19b0                	addi	x12,x2,248
    16fa:	0000                	unimp
    16fc:	17cc                	addi	x11,x2,996
    16fe:	0000                	unimp
    1700:	17d8                	addi	x14,x2,996
    1702:	0000                	unimp
    1704:	17d8                	addi	x14,x2,996
    1706:	0000                	unimp
    1708:	199c                	addi	x15,x2,240
    170a:	0000                	unimp
    170c:	17cc                	addi	x11,x2,996
    170e:	0000                	unimp
    1710:	17a4                	addi	x9,x2,1000
    1712:	0000                	unimp
    1714:	17a4                	addi	x9,x2,1000
    1716:	0000                	unimp
    1718:	17a4                	addi	x9,x2,1000
    171a:	0000                	unimp
    171c:	17e4                	addi	x9,x2,1004
	...

00001720 <__clz_tab>:
    1720:	0100                	addi	x8,x2,128
    1722:	0202                	c.slli64	x4
    1724:	03030303          	lb	x6,48(x6)
    1728:	0404                	addi	x9,x2,512
    172a:	0404                	addi	x9,x2,512
    172c:	0404                	addi	x9,x2,512
    172e:	0404                	addi	x9,x2,512
    1730:	0505                	addi	x10,x10,1
    1732:	0505                	addi	x10,x10,1
    1734:	0505                	addi	x10,x10,1
    1736:	0505                	addi	x10,x10,1
    1738:	0505                	addi	x10,x10,1
    173a:	0505                	addi	x10,x10,1
    173c:	0505                	addi	x10,x10,1
    173e:	0505                	addi	x10,x10,1
    1740:	0606                	slli	x12,x12,0x1
    1742:	0606                	slli	x12,x12,0x1
    1744:	0606                	slli	x12,x12,0x1
    1746:	0606                	slli	x12,x12,0x1
    1748:	0606                	slli	x12,x12,0x1
    174a:	0606                	slli	x12,x12,0x1
    174c:	0606                	slli	x12,x12,0x1
    174e:	0606                	slli	x12,x12,0x1
    1750:	0606                	slli	x12,x12,0x1
    1752:	0606                	slli	x12,x12,0x1
    1754:	0606                	slli	x12,x12,0x1
    1756:	0606                	slli	x12,x12,0x1
    1758:	0606                	slli	x12,x12,0x1
    175a:	0606                	slli	x12,x12,0x1
    175c:	0606                	slli	x12,x12,0x1
    175e:	0606                	slli	x12,x12,0x1
    1760:	07070707          	0x7070707
  FP_HANDLE_EXCEPTIONS;
    1764:	07070707          	0x7070707
    1768:	07070707          	0x7070707

  return r;
}
    176c:	07070707          	0x7070707
    1770:	07070707          	0x7070707
    1774:	07070707          	0x7070707
    1778:	07070707          	0x7070707
    177c:	07070707          	0x7070707
    1780:	07070707          	0x7070707
    1784:	07070707          	0x7070707
    1788:	07070707          	0x7070707
    178c:	07070707          	0x7070707
    1790:	07070707          	0x7070707
    1794:	07070707          	0x7070707
  FP_DIV_S (R, A, B);
    1798:	07070707          	0x7070707
    179c:	07070707          	0x7070707
    17a0:	0808                	addi	x10,x2,16
    17a2:	0808                	addi	x10,x2,16
  FP_UNPACK_S (A, a);
    17a4:	0808                	addi	x10,x2,16
    17a6:	0808                	addi	x10,x2,16
  FP_DIV_S (R, A, B);
    17a8:	0808                	addi	x10,x2,16
    17aa:	0808                	addi	x10,x2,16
    17ac:	0808                	addi	x10,x2,16
    17ae:	0808                	addi	x10,x2,16
  FP_PACK_S (r, R);
    17b0:	0808                	addi	x10,x2,16
    17b2:	0808                	addi	x10,x2,16
    17b4:	0808                	addi	x10,x2,16
    17b6:	0808                	addi	x10,x2,16
    17b8:	0808                	addi	x10,x2,16
    17ba:	0808                	addi	x10,x2,16
    17bc:	0808                	addi	x10,x2,16
    17be:	0808                	addi	x10,x2,16
    17c0:	0808                	addi	x10,x2,16
    17c2:	0808                	addi	x10,x2,16
    17c4:	0808                	addi	x10,x2,16
    17c6:	0808                	addi	x10,x2,16
    17c8:	0808                	addi	x10,x2,16
    17ca:	0808                	addi	x10,x2,16
  FP_UNPACK_S (B, b);
    17cc:	0808                	addi	x10,x2,16
    17ce:	0808                	addi	x10,x2,16
  FP_DIV_S (R, A, B);
    17d0:	0808                	addi	x10,x2,16
    17d2:	0808                	addi	x10,x2,16
    17d4:	0808                	addi	x10,x2,16
    17d6:	0808                	addi	x10,x2,16
  FP_PACK_S (r, R);
    17d8:	0808                	addi	x10,x2,16
    17da:	0808                	addi	x10,x2,16
    17dc:	0808                	addi	x10,x2,16
    17de:	0808                	addi	x10,x2,16
    17e0:	0808                	addi	x10,x2,16
    17e2:	0808                	addi	x10,x2,16
  FP_DIV_S (R, A, B);
    17e4:	0808                	addi	x10,x2,16
    17e6:	0808                	addi	x10,x2,16
    17e8:	0808                	addi	x10,x2,16
    17ea:	0808                	addi	x10,x2,16
    17ec:	0808                	addi	x10,x2,16
    17ee:	0808                	addi	x10,x2,16
    17f0:	0808                	addi	x10,x2,16
    17f2:	0808                	addi	x10,x2,16
  FP_PACK_S (r, R);
    17f4:	0808                	addi	x10,x2,16
    17f6:	0808                	addi	x10,x2,16
    17f8:	0808                	addi	x10,x2,16
    17fa:	0808                	addi	x10,x2,16
    17fc:	0808                	addi	x10,x2,16
    17fe:	0808                	addi	x10,x2,16
    1800:	0808                	addi	x10,x2,16
    1802:	0808                	addi	x10,x2,16
    1804:	0808                	addi	x10,x2,16
    1806:	0808                	addi	x10,x2,16
    1808:	0808                	addi	x10,x2,16
    180a:	0808                	addi	x10,x2,16
    180c:	0808                	addi	x10,x2,16
    180e:	0808                	addi	x10,x2,16
    1810:	0808                	addi	x10,x2,16
    1812:	0808                	addi	x10,x2,16
    1814:	0808                	addi	x10,x2,16
    1816:	0808                	addi	x10,x2,16
    1818:	0808                	addi	x10,x2,16
    181a:	0808                	addi	x10,x2,16
    181c:	0808                	addi	x10,x2,16
    181e:	0808                	addi	x10,x2,16

Disassembly of section .text.dram:

00000000 <_start>:
       0:	00000093          	li	x1,0
       4:	00000193          	li	x3,0
       8:	00000213          	li	x4,0
       c:	00000293          	li	x5,0
      10:	00000313          	li	x6,0
      14:	00000393          	li	x7,0
      18:	00000413          	li	x8,0
      1c:	00000493          	li	x9,0
      20:	00000513          	li	x10,0
      24:	00000593          	li	x11,0
      28:	00000613          	li	x12,0
      2c:	00000693          	li	x13,0
      30:	00000713          	li	x14,0
      34:	00000793          	li	x15,0
      38:	00000813          	li	x16,0
      3c:	00000893          	li	x17,0
      40:	00000913          	li	x18,0
      44:	00000993          	li	x19,0
      48:	00000a13          	li	x20,0
      4c:	00000a93          	li	x21,0
      50:	00000b13          	li	x22,0
      54:	00000b93          	li	x23,0
      58:	00000c13          	li	x24,0
      5c:	00000c93          	li	x25,0
      60:	00000d13          	li	x26,0
      64:	00000d93          	li	x27,0
      68:	00000e13          	li	x28,0
      6c:	00000e93          	li	x29,0
      70:	00000f13          	li	x30,0
      74:	00000f93          	li	x31,0
      78:	000032b7          	lui	x5,0x3
      7c:	3002a073          	csrs	mstatus,x5
      80:	00301073          	fscsr	x0
      84:	00000293          	li	x5,0
      88:	d0007053          	fcvt.s.w	f0,x0
      8c:	d00070d3          	fcvt.s.w	f1,x0
      90:	d0007153          	fcvt.s.w	f2,x0
      94:	d00071d3          	fcvt.s.w	f3,x0
      98:	d0007253          	fcvt.s.w	f4,x0
      9c:	d00072d3          	fcvt.s.w	f5,x0
      a0:	d0007353          	fcvt.s.w	f6,x0
      a4:	d00073d3          	fcvt.s.w	f7,x0
      a8:	d0007453          	fcvt.s.w	f8,x0
      ac:	d00074d3          	fcvt.s.w	f9,x0
      b0:	d0007553          	fcvt.s.w	f10,x0
      b4:	d00075d3          	fcvt.s.w	f11,x0
      b8:	d0007653          	fcvt.s.w	f12,x0
      bc:	d00076d3          	fcvt.s.w	f13,x0
      c0:	d0007753          	fcvt.s.w	f14,x0
      c4:	d00077d3          	fcvt.s.w	f15,x0
      c8:	d0007853          	fcvt.s.w	f16,x0
      cc:	d00078d3          	fcvt.s.w	f17,x0
      d0:	d0007953          	fcvt.s.w	f18,x0
      d4:	d00079d3          	fcvt.s.w	f19,x0
      d8:	d0007a53          	fcvt.s.w	f20,x0
      dc:	d0007ad3          	fcvt.s.w	f21,x0
      e0:	d0007b53          	fcvt.s.w	f22,x0
      e4:	d0007bd3          	fcvt.s.w	f23,x0
      e8:	d0007c53          	fcvt.s.w	f24,x0
      ec:	d0007cd3          	fcvt.s.w	f25,x0
      f0:	d0007d53          	fcvt.s.w	f26,x0
      f4:	d0007dd3          	fcvt.s.w	f27,x0
      f8:	d0007e53          	fcvt.s.w	f28,x0
      fc:	d0007ed3          	fcvt.s.w	f29,x0
     100:	d0007f53          	fcvt.s.w	f30,x0
     104:	d0007fd3          	fcvt.s.w	f31,x0
     108:	00002197          	auipc	x3,0x2
     10c:	b2018193          	addi	x3,x3,-1248 # 1c28 <_gp>
     110:	00001217          	auipc	x4,0x1
     114:	74f20213          	addi	x4,x4,1871 # 185f <_bsg_data_end_addr+0x3f>
     118:	fc027213          	andi	x4,x4,-64
     11c:	00002117          	auipc	x2,0x2
     120:	ee010113          	addi	x2,x2,-288 # 1ffc <_bsg_elf_stack_ptr>
     124:	4e10106f          	j	1e04 <main>
     128:	0000006f          	j	128 <bsg_group_size+0x124>

0000012c <write_finish_signal>:
     12c:	000017b7          	lui	x15,0x1
     130:	4a47a783          	lw	x15,1188(x15) # 14a4 <finitef>
     134:	00079c63          	bnez	x15,14c <write_finish_signal+0x20>
     138:	000017b7          	lui	x15,0x1
     13c:	00001737          	lui	x14,0x1
     140:	4d07a783          	lw	x15,1232(x15) # 14d0 <cuda_finish_signal_addr>
     144:	4cc72703          	lw	x14,1228(x14) # 14cc <cuda_finish_signal_val>
     148:	00e7a023          	sw	x14,0(x15)
     14c:	00008067          	ret

00000150 <bsg_set_tile_x_y>:
     150:	00001737          	lui	x14,0x1
     154:	200007b7          	lui	x15,0x20000
     158:	4ac70513          	addi	x10,x14,1196 # 14ac <__bsg_x>
     15c:	000016b7          	lui	x13,0x1
     160:	00f56833          	or	x16,x10,x15
     164:	4a868593          	addi	x11,x13,1192 # 14a8 <__bsg_y>
     168:	00082023          	sw	x0,0(x16)
     16c:	00f5e633          	or	x12,x11,x15
     170:	00062023          	sw	x0,0(x12)
     174:	4ac72783          	lw	x15,1196(x14)
     178:	fe07cee3          	bltz	x15,174 <bsg_set_tile_x_y+0x24>
     17c:	4a86a783          	lw	x15,1192(x13)
     180:	fe07cee3          	bltz	x15,17c <bsg_set_tile_x_y+0x2c>
     184:	4ac72783          	lw	x15,1196(x14)
     188:	04079a63          	bnez	x15,1dc <bsg_set_tile_x_y+0x8c>
     18c:	4a86a783          	lw	x15,1192(x13)
     190:	04079663          	bnez	x15,1dc <bsg_set_tile_x_y+0x8c>
     194:	00082023          	sw	x0,0(x16)
     198:	21000837          	lui	x16,0x21000
     19c:	00062023          	sw	x0,0(x12)
     1a0:	010567b3          	or	x15,x10,x16
     1a4:	0007a023          	sw	x0,0(x15) # 20000000 <_bsg_elf_vcache_size+0x1ffe0000>
     1a8:	0105e833          	or	x16,x11,x16
     1ac:	00100793          	li	x15,1
     1b0:	20040637          	lui	x12,0x20040
     1b4:	00f82023          	sw	x15,0(x16) # 21000000 <_bsg_elf_vcache_size+0x20fe0000>
     1b8:	00c56833          	or	x16,x10,x12
     1bc:	00f82023          	sw	x15,0(x16)
     1c0:	00c5e633          	or	x12,x11,x12
     1c4:	21040837          	lui	x16,0x21040
     1c8:	00062023          	sw	x0,0(x12) # 20040000 <_bsg_elf_vcache_size+0x20020000>
     1cc:	01056533          	or	x10,x10,x16
     1d0:	00f52023          	sw	x15,0(x10)
     1d4:	0105e5b3          	or	x11,x11,x16
     1d8:	00f5a023          	sw	x15,0(x11)
     1dc:	4a86a783          	lw	x15,1192(x13)
     1e0:	4ac72583          	lw	x11,1196(x14)
     1e4:	200206b7          	lui	x13,0x20020
     1e8:	01879713          	slli	x14,x15,0x18
     1ec:	01259613          	slli	x12,x11,0x12
     1f0:	00c76733          	or	x14,x14,x12
     1f4:	00468613          	addi	x12,x13,4 # 20020004 <_bsg_elf_vcache_size+0x20000004>
     1f8:	00c76633          	or	x12,x14,x12
     1fc:	00062603          	lw	x12,0(x12)
     200:	00868693          	addi	x13,x13,8
     204:	00d76733          	or	x14,x14,x13
     208:	000016b7          	lui	x13,0x1
     20c:	4ac6a023          	sw	x12,1184(x13) # 14a0 <__bsg_grp_org_x>
     210:	00072603          	lw	x12,0(x14)
     214:	000016b7          	lui	x13,0x1
     218:	00179793          	slli	x15,x15,0x1
     21c:	00b787b3          	add	x15,x15,x11
     220:	48c6ae23          	sw	x12,1180(x13) # 149c <__bsg_grp_org_y>
     224:	000016b7          	lui	x13,0x1
     228:	00100713          	li	x14,1
     22c:	4af6a223          	sw	x15,1188(x13) # 14a4 <finitef>
     230:	000017b7          	lui	x15,0x1
     234:	48e7ac23          	sw	x14,1176(x15) # 1498 <__bsg_grid_dim_x>
     238:	000017b7          	lui	x15,0x1
     23c:	48e7aa23          	sw	x14,1172(x15) # 1494 <__bsg_grid_dim_y>
     240:	000017b7          	lui	x15,0x1
     244:	4807a823          	sw	x0,1168(x15) # 1490 <__bsg_tile_group_id_x>
     248:	000017b7          	lui	x15,0x1
     24c:	4807a623          	sw	x0,1164(x15) # 148c <__bsg_tile_group_id_y>
     250:	00008067          	ret

00000254 <number>:
     254:	fa010113          	addi	x2,x2,-96
     258:	04812e23          	sw	x8,92(x2)
     25c:	04912c23          	sw	x9,88(x2)
     260:	0407f813          	andi	x16,x15,64
     264:	1c080063          	beqz	x16,424 <number+0x1d0>
     268:	81000eb7          	lui	x29,0x81000
     26c:	0107f293          	andi	x5,x15,16
     270:	028e8e93          	addi	x29,x29,40 # 81000028 <_end+0xffffffc8>
     274:	1c028063          	beqz	x5,434 <number+0x1e0>
     278:	ffe7f793          	andi	x15,x15,-2
     27c:	00028413          	mv	x8,x5
     280:	0027f813          	andi	x16,x15,2
     284:	02000f93          	li	x31,32
     288:	0207f393          	andi	x7,x15,32
     28c:	1c080263          	beqz	x16,450 <number+0x1fc>
     290:	1c05c463          	bltz	x11,458 <number+0x204>
     294:	0047f813          	andi	x16,x15,4
     298:	20081263          	bnez	x16,49c <number+0x248>
     29c:	0087f793          	andi	x15,x15,8
     2a0:	00000493          	li	x9,0
     2a4:	00078663          	beqz	x15,2b0 <number+0x5c>
     2a8:	fff68693          	addi	x13,x13,-1
     2ac:	02000493          	li	x9,32
     2b0:	00038c63          	beqz	x7,2c8 <number+0x74>
     2b4:	01000793          	li	x15,16
     2b8:	20f60463          	beq	x12,x15,4c0 <number+0x26c>
     2bc:	ff860793          	addi	x15,x12,-8
     2c0:	0017b793          	seqz	x15,x15
     2c4:	40f686b3          	sub	x13,x13,x15
     2c8:	1a059063          	bnez	x11,468 <number+0x214>
     2cc:	03000793          	li	x15,48
     2d0:	00f10623          	sb	x15,12(x2)
     2d4:	00000893          	li	x17,0
     2d8:	03000813          	li	x16,48
     2dc:	00100f13          	li	x30,1
     2e0:	00c10793          	addi	x15,x2,12
     2e4:	000f0e13          	mv	x28,x30
     2e8:	00ef5463          	bge	x30,x14,2f0 <number+0x9c>
     2ec:	00070e13          	mv	x28,x14
     2f0:	41c68333          	sub	x6,x13,x28
     2f4:	fff30593          	addi	x11,x6,-1
     2f8:	02041263          	bnez	x8,31c <number+0xc8>
     2fc:	006506b3          	add	x13,x10,x6
     300:	02000713          	li	x14,32
     304:	1c605e63          	blez	x6,4e0 <number+0x28c>
     308:	00150513          	addi	x10,x10,1
     30c:	fee50fa3          	sb	x14,-1(x10)
     310:	fed51ce3          	bne	x10,x13,308 <number+0xb4>
     314:	ffe00593          	li	x11,-2
     318:	fff00313          	li	x6,-1
     31c:	00048663          	beqz	x9,328 <number+0xd4>
     320:	00950023          	sb	x9,0(x10)
     324:	00150513          	addi	x10,x10,1
     328:	00038a63          	beqz	x7,33c <number+0xe8>
     32c:	00800713          	li	x14,8
     330:	18e60c63          	beq	x12,x14,4c8 <number+0x274>
     334:	01000713          	li	x14,16
     338:	16e60863          	beq	x12,x14,4a8 <number+0x254>
     33c:	04029463          	bnez	x5,384 <number+0x130>
     340:	00050613          	mv	x12,x10
     344:	00100713          	li	x14,1
     348:	1a605463          	blez	x6,4f0 <number+0x29c>
     34c:	00160613          	addi	x12,x12,1
     350:	40c706b3          	sub	x13,x14,x12
     354:	00b686b3          	add	x13,x13,x11
     358:	00d506b3          	add	x13,x10,x13
     35c:	fff60fa3          	sb	x31,-1(x12)
     360:	fed046e3          	bgtz	x13,34c <number+0xf8>
     364:	fff5c713          	not	x14,x11
     368:	41f75713          	srai	x14,x14,0x1f
     36c:	00e5f733          	and	x14,x11,x14
     370:	fff58593          	addi	x11,x11,-1
     374:	40e58333          	sub	x6,x11,x14
     378:	00170713          	addi	x14,x14,1
     37c:	00e50533          	add	x10,x10,x14
     380:	fff30593          	addi	x11,x6,-1
     384:	41ee0733          	sub	x14,x28,x30
     388:	00e50733          	add	x14,x10,x14
     38c:	03000693          	li	x13,48
     390:	15cf5463          	bge	x30,x28,4d8 <number+0x284>
     394:	00150513          	addi	x10,x10,1
     398:	fed50fa3          	sb	x13,-1(x10)
     39c:	fea71ce3          	bne	x14,x10,394 <number+0x140>
     3a0:	01178633          	add	x12,x15,x17
     3a4:	00070693          	mv	x13,x14
     3a8:	00100513          	li	x10,1
     3ac:	0080006f          	j	3b4 <number+0x160>
     3b0:	00064803          	lbu	x16,0(x12)
     3b4:	00168693          	addi	x13,x13,1
     3b8:	40d507b3          	sub	x15,x10,x13
     3bc:	011787b3          	add	x15,x15,x17
     3c0:	00f707b3          	add	x15,x14,x15
     3c4:	ff068fa3          	sb	x16,-1(x13)
     3c8:	fff60613          	addi	x12,x12,-1
     3cc:	fef042e3          	bgtz	x15,3b0 <number+0x15c>
     3d0:	00188513          	addi	x10,x17,1
     3d4:	00a70533          	add	x10,x14,x10
     3d8:	02605e63          	blez	x6,414 <number+0x1c0>
     3dc:	00050713          	mv	x14,x10
     3e0:	02000613          	li	x12,32
     3e4:	00100693          	li	x13,1
     3e8:	00170713          	addi	x14,x14,1
     3ec:	40e687b3          	sub	x15,x13,x14
     3f0:	00b787b3          	add	x15,x15,x11
     3f4:	00f507b3          	add	x15,x10,x15
     3f8:	fec70fa3          	sb	x12,-1(x14)
     3fc:	fef046e3          	bgtz	x15,3e8 <number+0x194>
     400:	fff5c793          	not	x15,x11
     404:	41f7d793          	srai	x15,x15,0x1f
     408:	00f5f5b3          	and	x11,x11,x15
     40c:	00158593          	addi	x11,x11,1
     410:	00b50533          	add	x10,x10,x11
     414:	05c12403          	lw	x8,92(x2)
     418:	05812483          	lw	x9,88(x2)
     41c:	06010113          	addi	x2,x2,96
     420:	00008067          	ret
     424:	81000eb7          	lui	x29,0x81000
     428:	0107f293          	andi	x5,x15,16
     42c:	000e8e93          	mv	x29,x29
     430:	e40294e3          	bnez	x5,278 <number+0x24>
     434:	0017f813          	andi	x16,x15,1
     438:	0117f413          	andi	x8,x15,17
     43c:	03000f93          	li	x31,48
     440:	e40800e3          	beqz	x16,280 <number+0x2c>
     444:	0027f813          	andi	x16,x15,2
     448:	0207f393          	andi	x7,x15,32
     44c:	e40812e3          	bnez	x16,290 <number+0x3c>
     450:	00000493          	li	x9,0
     454:	e5dff06f          	j	2b0 <number+0x5c>
     458:	40b005b3          	neg	x11,x11
     45c:	fff68693          	addi	x13,x13,-1
     460:	02d00493          	li	x9,45
     464:	e40398e3          	bnez	x7,2b4 <number+0x60>
     468:	00000f13          	li	x30,0
     46c:	00c10793          	addi	x15,x2,12
     470:	02c5f833          	remu	x16,x11,x12
     474:	000f0893          	mv	x17,x30
     478:	001f0f13          	addi	x30,x30,1
     47c:	01e78e33          	add	x28,x15,x30
     480:	00058313          	mv	x6,x11
     484:	010e8833          	add	x16,x29,x16
     488:	00084803          	lbu	x16,0(x16) # 21040000 <_bsg_elf_vcache_size+0x21020000>
     48c:	02c5d5b3          	divu	x11,x11,x12
     490:	ff0e0fa3          	sb	x16,-1(x28)
     494:	fcc37ee3          	bgeu	x6,x12,470 <number+0x21c>
     498:	e4dff06f          	j	2e4 <number+0x90>
     49c:	fff68693          	addi	x13,x13,-1
     4a0:	02b00493          	li	x9,43
     4a4:	e0dff06f          	j	2b0 <number+0x5c>
     4a8:	03000713          	li	x14,48
     4ac:	00e50023          	sb	x14,0(x10)
     4b0:	07800713          	li	x14,120
     4b4:	00e500a3          	sb	x14,1(x10)
     4b8:	00250513          	addi	x10,x10,2
     4bc:	e81ff06f          	j	33c <number+0xe8>
     4c0:	ffe68693          	addi	x13,x13,-2
     4c4:	e05ff06f          	j	2c8 <number+0x74>
     4c8:	03000713          	li	x14,48
     4cc:	00e50023          	sb	x14,0(x10)
     4d0:	00150513          	addi	x10,x10,1
     4d4:	e69ff06f          	j	33c <number+0xe8>
     4d8:	00050713          	mv	x14,x10
     4dc:	ec5ff06f          	j	3a0 <number+0x14c>
     4e0:	ffe30713          	addi	x14,x6,-2
     4e4:	00058313          	mv	x6,x11
     4e8:	00070593          	mv	x11,x14
     4ec:	e31ff06f          	j	31c <number+0xc8>
     4f0:	00058313          	mv	x6,x11
     4f4:	fff58593          	addi	x11,x11,-1
     4f8:	e8dff06f          	j	384 <number+0x130>

000004fc <uart_send_char>:
     4fc:	4000f7b7          	lui	x15,0x4000f
     500:	aca78e23          	sb	x10,-1316(x15) # 4000eadc <_bsg_elf_vcache_size+0x3ffeeadc>
     504:	00008067          	ret

00000508 <bsg_printf>:
     508:	e9010113          	addi	x2,x2,-368
     50c:	13312e23          	sw	x19,316(x2)
     510:	14112623          	sw	x1,332(x2)
     514:	14812423          	sw	x8,328(x2)
     518:	14912223          	sw	x9,324(x2)
     51c:	15212023          	sw	x18,320(x2)
     520:	13412c23          	sw	x20,312(x2)
     524:	13512a23          	sw	x21,308(x2)
     528:	13612823          	sw	x22,304(x2)
     52c:	13712623          	sw	x23,300(x2)
     530:	13812423          	sw	x24,296(x2)
     534:	13912223          	sw	x25,292(x2)
     538:	14b12a23          	sw	x11,340(x2)
     53c:	14c12c23          	sw	x12,344(x2)
     540:	14d12e23          	sw	x13,348(x2)
     544:	16e12023          	sw	x14,352(x2)
     548:	16f12223          	sw	x15,356(x2)
     54c:	17012423          	sw	x16,360(x2)
     550:	17112623          	sw	x17,364(x2)
     554:	00054783          	lbu	x15,0(x10)
     558:	15410993          	addi	x19,x2,340
     55c:	01312223          	sw	x19,4(x2)
     560:	76078463          	beqz	x15,cc8 <bsg_printf+0x7c0>
     564:	02010913          	addi	x18,x2,32
     568:	00001ab7          	lui	x21,0x1
     56c:	00001a37          	lui	x20,0x1
     570:	81000437          	lui	x8,0x81000
     574:	00050313          	mv	x6,x10
     578:	4e0a8a93          	addi	x21,x21,1248 # 14e0 <_tls_data>
     57c:	00090513          	mv	x10,x18
     580:	524a0a13          	addi	x20,x20,1316 # 1524 <_tls_data+0x44>
     584:	00040413          	mv	x8,x8
     588:	02500713          	li	x14,37
     58c:	08e78a63          	beq	x15,x14,620 <bsg_printf+0x118>
     590:	00f50023          	sb	x15,0(x10)
     594:	00134783          	lbu	x15,1(x6)
     598:	00150513          	addi	x10,x10,1
     59c:	00130313          	addi	x6,x6,1
     5a0:	fe0794e3          	bnez	x15,588 <bsg_printf+0x80>
     5a4:	00050023          	sb	x0,0(x10)
     5a8:	400006b7          	lui	x13,0x40000
     5ac:	00100713          	li	x14,1
     5b0:	0c06a7af          	amoswap.w.aq	x15,x0,(x13)
     5b4:	fee78ee3          	beq	x15,x14,5b0 <bsg_printf+0xa8>
     5b8:	02014703          	lbu	x14,32(x2)
     5bc:	70070263          	beqz	x14,cc0 <bsg_printf+0x7b8>
     5c0:	00100693          	li	x13,1
     5c4:	00090793          	mv	x15,x18
     5c8:	4000f637          	lui	x12,0x4000f
     5cc:	412686b3          	sub	x13,x13,x18
     5d0:	ace60e23          	sb	x14,-1316(x12) # 4000eadc <_bsg_elf_vcache_size+0x3ffeeadc>
     5d4:	0017c703          	lbu	x14,1(x15)
     5d8:	00d78533          	add	x10,x15,x13
     5dc:	00178793          	addi	x15,x15,1
     5e0:	fe0718e3          	bnez	x14,5d0 <bsg_printf+0xc8>
     5e4:	400007b7          	lui	x15,0x40000
     5e8:	0a07a02f          	amoswap.w.rl	x0,x0,(x15)
     5ec:	14c12083          	lw	x1,332(x2)
     5f0:	14812403          	lw	x8,328(x2)
     5f4:	14412483          	lw	x9,324(x2)
     5f8:	14012903          	lw	x18,320(x2)
     5fc:	13c12983          	lw	x19,316(x2)
     600:	13812a03          	lw	x20,312(x2)
     604:	13412a83          	lw	x21,308(x2)
     608:	13012b03          	lw	x22,304(x2)
     60c:	12c12b83          	lw	x23,300(x2)
     610:	12812c03          	lw	x24,296(x2)
     614:	12412c83          	lw	x25,292(x2)
     618:	17010113          	addi	x2,x2,368
     61c:	00008067          	ret
     620:	00000793          	li	x15,0
     624:	01000693          	li	x13,16
     628:	00134583          	lbu	x11,1(x6)
     62c:	00130493          	addi	x9,x6,1
     630:	fe058713          	addi	x14,x11,-32
     634:	0ff77713          	andi	x14,x14,255
     638:	00e6ea63          	bltu	x13,x14,64c <bsg_printf+0x144>
     63c:	00271713          	slli	x14,x14,0x2
     640:	01570733          	add	x14,x14,x21
     644:	00072703          	lw	x14,0(x14)
     648:	00070067          	jr	x14
     64c:	fd058713          	addi	x14,x11,-48
     650:	0ff77713          	andi	x14,x14,255
     654:	00900693          	li	x13,9
     658:	10e6f463          	bgeu	x13,x14,760 <bsg_printf+0x258>
     65c:	02a00713          	li	x14,42
     660:	fff00693          	li	x13,-1
     664:	12e58863          	beq	x11,x14,794 <bsg_printf+0x28c>
     668:	02e00613          	li	x12,46
     66c:	fff00713          	li	x14,-1
     670:	0cc58263          	beq	x11,x12,734 <bsg_printf+0x22c>
     674:	0df5f613          	andi	x12,x11,223
     678:	04c00813          	li	x16,76
     67c:	07060063          	beq	x12,x16,6dc <bsg_printf+0x1d4>
     680:	fbf58613          	addi	x12,x11,-65
     684:	0ff67613          	andi	x12,x12,255
     688:	03700813          	li	x16,55
     68c:	08c86463          	bltu	x16,x12,714 <bsg_printf+0x20c>
     690:	00261613          	slli	x12,x12,0x2
     694:	01460633          	add	x12,x12,x20
     698:	00062603          	lw	x12,0(x12)
     69c:	00060067          	jr	x12
     6a0:	0017e793          	ori	x15,x15,1
     6a4:	00048313          	mv	x6,x9
     6a8:	f81ff06f          	j	628 <bsg_printf+0x120>
     6ac:	0107e793          	ori	x15,x15,16
     6b0:	00048313          	mv	x6,x9
     6b4:	f75ff06f          	j	628 <bsg_printf+0x120>
     6b8:	0047e793          	ori	x15,x15,4
     6bc:	00048313          	mv	x6,x9
     6c0:	f69ff06f          	j	628 <bsg_printf+0x120>
     6c4:	0207e793          	ori	x15,x15,32
     6c8:	00048313          	mv	x6,x9
     6cc:	f5dff06f          	j	628 <bsg_printf+0x120>
     6d0:	0087e793          	ori	x15,x15,8
     6d4:	00048313          	mv	x6,x9
     6d8:	f51ff06f          	j	628 <bsg_printf+0x120>
     6dc:	0014c803          	lbu	x16,1(x9)
     6e0:	03700893          	li	x17,55
     6e4:	00148313          	addi	x6,x9,1
     6e8:	fbf80613          	addi	x12,x16,-65
     6ec:	0ff67613          	andi	x12,x12,255
     6f0:	00c8ee63          	bltu	x17,x12,70c <bsg_printf+0x204>
     6f4:	000018b7          	lui	x17,0x1
     6f8:	00261613          	slli	x12,x12,0x2
     6fc:	60488893          	addi	x17,x17,1540 # 1604 <_tls_data+0x124>
     700:	01160633          	add	x12,x12,x17
     704:	00062603          	lw	x12,0(x12)
     708:	00060067          	jr	x12
     70c:	00080593          	mv	x11,x16
     710:	00030493          	mv	x9,x6
     714:	02500713          	li	x14,37
     718:	00150793          	addi	x15,x10,1
     71c:	54e58463          	beq	x11,x14,c64 <bsg_printf+0x75c>
     720:	00e50023          	sb	x14,0(x10)
     724:	0004c703          	lbu	x14,0(x9)
     728:	62071863          	bnez	x14,d58 <bsg_printf+0x850>
     72c:	00078513          	mv	x10,x15
     730:	e75ff06f          	j	5a4 <bsg_printf+0x9c>
     734:	0014c583          	lbu	x11,1(x9)
     738:	00900613          	li	x12,9
     73c:	00148813          	addi	x16,x9,1
     740:	fd058713          	addi	x14,x11,-48
     744:	0ff77713          	andi	x14,x14,255
     748:	4ae67463          	bgeu	x12,x14,bf0 <bsg_printf+0x6e8>
     74c:	02a00713          	li	x14,42
     750:	4ee58263          	beq	x11,x14,c34 <bsg_printf+0x72c>
     754:	00080493          	mv	x9,x16
     758:	00000713          	li	x14,0
     75c:	f19ff06f          	j	674 <bsg_printf+0x16c>
     760:	00000693          	li	x13,0
     764:	00900613          	li	x12,9
     768:	00269713          	slli	x14,x13,0x2
     76c:	00d706b3          	add	x13,x14,x13
     770:	00148493          	addi	x9,x9,1
     774:	00169693          	slli	x13,x13,0x1
     778:	00b686b3          	add	x13,x13,x11
     77c:	0004c583          	lbu	x11,0(x9)
     780:	fd068693          	addi	x13,x13,-48 # 3fffffd0 <_bsg_elf_vcache_size+0x3ffdffd0>
     784:	fd058713          	addi	x14,x11,-48
     788:	0ff77713          	andi	x14,x14,255
     78c:	fce67ee3          	bgeu	x12,x14,768 <bsg_printf+0x260>
     790:	ed9ff06f          	j	668 <bsg_printf+0x160>
     794:	0009a683          	lw	x13,0(x19)
     798:	00234583          	lbu	x11,2(x6)
     79c:	00230493          	addi	x9,x6,2
     7a0:	00498993          	addi	x19,x19,4
     7a4:	ec06d2e3          	bgez	x13,668 <bsg_printf+0x160>
     7a8:	40d006b3          	neg	x13,x13
     7ac:	0107e793          	ori	x15,x15,16
     7b0:	eb9ff06f          	j	668 <bsg_printf+0x160>
     7b4:	00498813          	addi	x16,x19,4
     7b8:	01000613          	li	x12,16
     7bc:	0009a583          	lw	x11,0(x19)
     7c0:	00080993          	mv	x19,x16
     7c4:	a91ff0ef          	jal	x1,254 <number>
     7c8:	0014c783          	lbu	x15,1(x9)
     7cc:	00148313          	addi	x6,x9,1
     7d0:	da079ce3          	bnez	x15,588 <bsg_printf+0x80>
     7d4:	dd1ff06f          	j	5a4 <bsg_printf+0x9c>
     7d8:	00498813          	addi	x16,x19,4
     7dc:	00a00613          	li	x12,10
     7e0:	fddff06f          	j	7bc <bsg_printf+0x2b4>
     7e4:	00030493          	mv	x9,x6
     7e8:	0009a603          	lw	x12,0(x19)
     7ec:	00498993          	addi	x19,x19,4
     7f0:	4a060263          	beqz	x12,c94 <bsg_printf+0x78c>
     7f4:	00064583          	lbu	x11,0(x12)
     7f8:	52058063          	beqz	x11,d18 <bsg_printf+0x810>
     7fc:	50070e63          	beqz	x14,d18 <bsg_printf+0x810>
     800:	00060593          	mv	x11,x12
     804:	00c0006f          	j	810 <bsg_printf+0x308>
     808:	40e58833          	sub	x16,x11,x14
     80c:	00c80863          	beq	x16,x12,81c <bsg_printf+0x314>
     810:	0015c803          	lbu	x16,1(x11)
     814:	00158593          	addi	x11,x11,1
     818:	fe0818e3          	bnez	x16,808 <bsg_printf+0x300>
     81c:	0107f793          	andi	x15,x15,16
     820:	40c585b3          	sub	x11,x11,x12
     824:	4a078863          	beqz	x15,cd4 <bsg_printf+0x7cc>
     828:	54b05c63          	blez	x11,d80 <bsg_printf+0x878>
     82c:	00b60833          	add	x16,x12,x11
     830:	00050793          	mv	x15,x10
     834:	00064703          	lbu	x14,0(x12)
     838:	00160613          	addi	x12,x12,1
     83c:	00178793          	addi	x15,x15,1 # 40000001 <_bsg_elf_vcache_size+0x3ffe0001>
     840:	fee78fa3          	sb	x14,-1(x15)
     844:	ff0618e3          	bne	x12,x16,834 <bsg_printf+0x32c>
     848:	00b50733          	add	x14,x10,x11
     84c:	40b68533          	sub	x10,x13,x11
     850:	00148313          	addi	x6,x9,1
     854:	00a70533          	add	x10,x14,x10
     858:	02000793          	li	x15,32
     85c:	4ed5d263          	bge	x11,x13,d40 <bsg_printf+0x838>
     860:	00170713          	addi	x14,x14,1
     864:	fef70fa3          	sb	x15,-1(x14)
     868:	fea71ce3          	bne	x14,x10,860 <bsg_printf+0x358>
     86c:	0014c783          	lbu	x15,1(x9)
     870:	d0079ce3          	bnez	x15,588 <bsg_printf+0x80>
     874:	d31ff06f          	j	5a4 <bsg_printf+0x9c>
     878:	00030493          	mv	x9,x6
     87c:	fff00613          	li	x12,-1
     880:	40c68463          	beq	x13,x12,c88 <bsg_printf+0x780>
     884:	0009a583          	lw	x11,0(x19)
     888:	01000613          	li	x12,16
     88c:	00498993          	addi	x19,x19,4
     890:	9c5ff0ef          	jal	x1,254 <number>
     894:	0014c783          	lbu	x15,1(x9)
     898:	00148313          	addi	x6,x9,1
     89c:	ce0796e3          	bnez	x15,588 <bsg_printf+0x80>
     8a0:	d05ff06f          	j	5a4 <bsg_printf+0x9c>
     8a4:	00498813          	addi	x16,x19,4
     8a8:	00800613          	li	x12,8
     8ac:	f11ff06f          	j	7bc <bsg_printf+0x2b4>
     8b0:	0027e793          	ori	x15,x15,2
     8b4:	00498813          	addi	x16,x19,4
     8b8:	00a00613          	li	x12,10
     8bc:	f01ff06f          	j	7bc <bsg_printf+0x2b4>
     8c0:	00030493          	mv	x9,x6
     8c4:	0107f793          	andi	x15,x15,16
     8c8:	fff68693          	addi	x13,x13,-1
     8cc:	3c078a63          	beqz	x15,ca0 <bsg_printf+0x798>
     8d0:	0009a603          	lw	x12,0(x19)
     8d4:	00150713          	addi	x14,x10,1
     8d8:	00168793          	addi	x15,x13,1
     8dc:	00c50023          	sb	x12,0(x10)
     8e0:	00498993          	addi	x19,x19,4
     8e4:	00f50533          	add	x10,x10,x15
     8e8:	00148313          	addi	x6,x9,1
     8ec:	00070793          	mv	x15,x14
     8f0:	02000613          	li	x12,32
     8f4:	44d05663          	blez	x13,d40 <bsg_printf+0x838>
     8f8:	00178793          	addi	x15,x15,1
     8fc:	fec78fa3          	sb	x12,-1(x15)
     900:	fea79ce3          	bne	x15,x10,8f8 <bsg_printf+0x3f0>
     904:	0014c783          	lbu	x15,1(x9)
     908:	00d70533          	add	x10,x14,x13
     90c:	c6079ee3          	bnez	x15,588 <bsg_printf+0x80>
     910:	c95ff06f          	j	5a4 <bsg_printf+0x9c>
     914:	0407e793          	ori	x15,x15,64
     918:	00498813          	addi	x16,x19,4
     91c:	01000613          	li	x12,16
     920:	e9dff06f          	j	7bc <bsg_printf+0x2b4>
     924:	0009a703          	lw	x14,0(x19)
     928:	0407e793          	ori	x15,x15,64
     92c:	00498993          	addi	x19,x19,4
     930:	00074583          	lbu	x11,0(x14)
     934:	00000813          	li	x16,0
     938:	00470893          	addi	x17,x14,4
     93c:	06300f13          	li	x30,99
     940:	00900293          	li	x5,9
     944:	00a00e13          	li	x28,10
     948:	06400f93          	li	x31,100
     94c:	03000e93          	li	x29,48
     950:	02e00313          	li	x6,46
     954:	00180613          	addi	x12,x16,1
     958:	02059a63          	bnez	x11,98c <bsg_printf+0x484>
     95c:	12010593          	addi	x11,x2,288
     960:	01058833          	add	x16,x11,x16
     964:	efd80423          	sb	x29,-280(x16)
     968:	00170713          	addi	x14,x14,1
     96c:	07170e63          	beq	x14,x17,9e8 <bsg_printf+0x4e0>
     970:	12010593          	addi	x11,x2,288
     974:	00c585b3          	add	x11,x11,x12
     978:	ee658423          	sb	x6,-280(x11)
     97c:	00074583          	lbu	x11,0(x14)
     980:	00160813          	addi	x16,x12,1
     984:	00180613          	addi	x12,x16,1
     988:	fc058ae3          	beqz	x11,95c <bsg_printf+0x454>
     98c:	22bf5a63          	bge	x30,x11,bc0 <bsg_printf+0x6b8>
     990:	03f5ebb3          	rem	x23,x11,x31
     994:	12010393          	addi	x7,x2,288
     998:	01038cb3          	add	x25,x7,x16
     99c:	00c38c33          	add	x24,x7,x12
     9a0:	00280b13          	addi	x22,x16,2
     9a4:	00380613          	addi	x12,x16,3
     9a8:	03f5c3b3          	div	x7,x11,x31
     9ac:	03cbc833          	div	x16,x23,x28
     9b0:	007403b3          	add	x7,x8,x7
     9b4:	0003c583          	lbu	x11,0(x7)
     9b8:	eebc8423          	sb	x11,-280(x25)
     9bc:	03cbe5b3          	rem	x11,x23,x28
     9c0:	01040833          	add	x16,x8,x16
     9c4:	00084803          	lbu	x16,0(x16)
     9c8:	ef0c0423          	sb	x16,-280(x24)
     9cc:	00b405b3          	add	x11,x8,x11
     9d0:	0005c803          	lbu	x16,0(x11)
     9d4:	12010593          	addi	x11,x2,288
     9d8:	016585b3          	add	x11,x11,x22
     9dc:	ef058423          	sb	x16,-280(x11)
     9e0:	00170713          	addi	x14,x14,1
     9e4:	f91716e3          	bne	x14,x17,970 <bsg_printf+0x468>
     9e8:	0107f793          	andi	x15,x15,16
     9ec:	fff68813          	addi	x16,x13,-1
     9f0:	02079663          	bnez	x15,a1c <bsg_printf+0x514>
     9f4:	40c687b3          	sub	x15,x13,x12
     9f8:	00f507b3          	add	x15,x10,x15
     9fc:	02000713          	li	x14,32
     a00:	36d65063          	bge	x12,x13,d60 <bsg_printf+0x858>
     a04:	00150513          	addi	x10,x10,1
     a08:	fee50fa3          	sb	x14,-1(x10)
     a0c:	fef51ce3          	bne	x10,x15,a04 <bsg_printf+0x4fc>
     a10:	40d606b3          	sub	x13,x12,x13
     a14:	010686b3          	add	x13,x13,x16
     a18:	fff68813          	addi	x16,x13,-1
     a1c:	00810793          	addi	x15,x2,8
     a20:	00c505b3          	add	x11,x10,x12
     a24:	0007c703          	lbu	x14,0(x15)
     a28:	00150513          	addi	x10,x10,1
     a2c:	00178793          	addi	x15,x15,1
     a30:	fee50fa3          	sb	x14,-1(x10)
     a34:	feb518e3          	bne	x10,x11,a24 <bsg_printf+0x51c>
     a38:	d8d658e3          	bge	x12,x13,7c8 <bsg_printf+0x2c0>
     a3c:	00058713          	mv	x14,x11
     a40:	02000513          	li	x10,32
     a44:	00100693          	li	x13,1
     a48:	00170713          	addi	x14,x14,1
     a4c:	40e687b3          	sub	x15,x13,x14
     a50:	010787b3          	add	x15,x15,x16
     a54:	00f587b3          	add	x15,x11,x15
     a58:	fea70fa3          	sb	x10,-1(x14)
     a5c:	fef646e3          	blt	x12,x15,a48 <bsg_printf+0x540>
     a60:	00100513          	li	x10,1
     a64:	1ec85863          	bge	x16,x12,c54 <bsg_printf+0x74c>
     a68:	00a58533          	add	x10,x11,x10
     a6c:	d5dff06f          	j	7c8 <bsg_printf+0x2c0>
     a70:	0027e793          	ori	x15,x15,2
     a74:	00a00613          	li	x12,10
     a78:	06c00893          	li	x17,108
     a7c:	00498813          	addi	x16,x19,4
     a80:	2d159863          	bne	x11,x17,d50 <bsg_printf+0x848>
     a84:	0009a583          	lw	x11,0(x19)
     a88:	00030493          	mv	x9,x6
     a8c:	00080993          	mv	x19,x16
     a90:	d35ff06f          	j	7c4 <bsg_printf+0x2bc>
     a94:	00800613          	li	x12,8
     a98:	fe1ff06f          	j	a78 <bsg_printf+0x570>
     a9c:	0407e793          	ori	x15,x15,64
     aa0:	01000613          	li	x12,16
     aa4:	fd5ff06f          	j	a78 <bsg_printf+0x570>
     aa8:	0407e793          	ori	x15,x15,64
     aac:	06c00613          	li	x12,108
     ab0:	0009a703          	lw	x14,0(x19)
     ab4:	00498993          	addi	x19,x19,4
     ab8:	24c59463          	bne	x11,x12,d00 <bsg_printf+0x7f8>
     abc:	0407f613          	andi	x12,x15,64
     ac0:	00040893          	mv	x17,x8
     ac4:	00060663          	beqz	x12,ad0 <bsg_printf+0x5c8>
     ac8:	810008b7          	lui	x17,0x81000
     acc:	02888893          	addi	x17,x17,40 # 81000028 <_end+0xffffffc8>
     ad0:	00810313          	addi	x6,x2,8
     ad4:	01a10e13          	addi	x28,x2,26
     ad8:	00030593          	mv	x11,x6
     adc:	03a00e93          	li	x29,58
     ae0:	0080006f          	j	ae8 <bsg_printf+0x5e0>
     ae4:	ffd58fa3          	sb	x29,-1(x11)
     ae8:	00074603          	lbu	x12,0(x14)
     aec:	00358593          	addi	x11,x11,3
     af0:	00170713          	addi	x14,x14,1
     af4:	00465813          	srli	x16,x12,0x4
     af8:	00f67613          	andi	x12,x12,15
     afc:	01088833          	add	x16,x17,x16
     b00:	00c88633          	add	x12,x17,x12
     b04:	00084803          	lbu	x16,0(x16)
     b08:	00064603          	lbu	x12,0(x12)
     b0c:	ff058ea3          	sb	x16,-3(x11)
     b10:	fec58f23          	sb	x12,-2(x11)
     b14:	fdc598e3          	bne	x11,x28,ae4 <bsg_printf+0x5dc>
     b18:	0107f793          	andi	x15,x15,16
     b1c:	fff68613          	addi	x12,x13,-1
     b20:	02079663          	bnez	x15,b4c <bsg_printf+0x644>
     b24:	fef68593          	addi	x11,x13,-17
     b28:	01100813          	li	x16,17
     b2c:	00b50733          	add	x14,x10,x11
     b30:	02000793          	li	x15,32
     b34:	22d85e63          	bge	x16,x13,d70 <bsg_printf+0x868>
     b38:	00150513          	addi	x10,x10,1
     b3c:	fef50fa3          	sb	x15,-1(x10)
     b40:	fee51ce3          	bne	x10,x14,b38 <bsg_printf+0x630>
     b44:	40b606b3          	sub	x13,x12,x11
     b48:	fff68613          	addi	x12,x13,-1
     b4c:	00050793          	mv	x15,x10
     b50:	01130593          	addi	x11,x6,17
     b54:	00034703          	lbu	x14,0(x6)
     b58:	00130313          	addi	x6,x6,1
     b5c:	00178793          	addi	x15,x15,1
     b60:	fee78fa3          	sb	x14,-1(x15)
     b64:	fe6598e3          	bne	x11,x6,b54 <bsg_printf+0x64c>
     b68:	01100793          	li	x15,17
     b6c:	01150513          	addi	x10,x10,17
     b70:	04d7d063          	bge	x15,x13,bb0 <bsg_printf+0x6a8>
     b74:	00050713          	mv	x14,x10
     b78:	02000813          	li	x16,32
     b7c:	00100593          	li	x11,1
     b80:	01100693          	li	x13,17
     b84:	00170713          	addi	x14,x14,1
     b88:	40e587b3          	sub	x15,x11,x14
     b8c:	00c787b3          	add	x15,x15,x12
     b90:	00f507b3          	add	x15,x10,x15
     b94:	ff070fa3          	sb	x16,-1(x14)
     b98:	fef6c6e3          	blt	x13,x15,b84 <bsg_printf+0x67c>
     b9c:	01000713          	li	x14,16
     ba0:	00100793          	li	x15,1
     ba4:	00c75463          	bge	x14,x12,bac <bsg_printf+0x6a4>
     ba8:	ff060793          	addi	x15,x12,-16
     bac:	00f50533          	add	x10,x10,x15
     bb0:	0024c783          	lbu	x15,2(x9)
     bb4:	00248313          	addi	x6,x9,2
     bb8:	9c0798e3          	bnez	x15,588 <bsg_printf+0x80>
     bbc:	9e9ff06f          	j	5a4 <bsg_printf+0x9c>
     bc0:	00080b13          	mv	x22,x16
     bc4:	e0b2d4e3          	bge	x5,x11,9cc <bsg_printf+0x4c4>
     bc8:	03c5c3b3          	div	x7,x11,x28
     bcc:	12010b13          	addi	x22,x2,288
     bd0:	010b0bb3          	add	x23,x22,x16
     bd4:	00060b13          	mv	x22,x12
     bd8:	00280613          	addi	x12,x16,2
     bdc:	00740833          	add	x16,x8,x7
     be0:	00084803          	lbu	x16,0(x16)
     be4:	03c5e5b3          	rem	x11,x11,x28
     be8:	ef0b8423          	sb	x16,-280(x23)
     bec:	de1ff06f          	j	9cc <bsg_printf+0x4c4>
     bf0:	00000713          	li	x14,0
     bf4:	00900893          	li	x17,9
     bf8:	00271613          	slli	x12,x14,0x2
     bfc:	00e60733          	add	x14,x12,x14
     c00:	00180813          	addi	x16,x16,1
     c04:	00171713          	slli	x14,x14,0x1
     c08:	00b70733          	add	x14,x14,x11
     c0c:	00084583          	lbu	x11,0(x16)
     c10:	fd070713          	addi	x14,x14,-48
     c14:	fd058613          	addi	x12,x11,-48
     c18:	0ff67613          	andi	x12,x12,255
     c1c:	fcc8fee3          	bgeu	x17,x12,bf8 <bsg_printf+0x6f0>
     c20:	00080493          	mv	x9,x16
     c24:	a51ff06f          	j	674 <bsg_printf+0x16c>
     c28:	0009a703          	lw	x14,0(x19)
     c2c:	00498993          	addi	x19,x19,4
     c30:	d01ff06f          	j	930 <bsg_printf+0x428>
     c34:	0009a703          	lw	x14,0(x19)
     c38:	0024c583          	lbu	x11,2(x9)
     c3c:	00498993          	addi	x19,x19,4
     c40:	fff74613          	not	x12,x14
     c44:	41f65613          	srai	x12,x12,0x1f
     c48:	00c77733          	and	x14,x14,x12
     c4c:	00248493          	addi	x9,x9,2
     c50:	a25ff06f          	j	674 <bsg_printf+0x16c>
     c54:	40c686b3          	sub	x13,x13,x12
     c58:	01068533          	add	x10,x13,x16
     c5c:	00a58533          	add	x10,x11,x10
     c60:	b69ff06f          	j	7c8 <bsg_printf+0x2c0>
     c64:	0004c703          	lbu	x14,0(x9)
     c68:	00078693          	mv	x13,x15
     c6c:	00050793          	mv	x15,x10
     c70:	00068513          	mv	x10,x13
     c74:	00e78023          	sb	x14,0(x15)
     c78:	0014c783          	lbu	x15,1(x9)
     c7c:	00148313          	addi	x6,x9,1
     c80:	900794e3          	bnez	x15,588 <bsg_printf+0x80>
     c84:	921ff06f          	j	5a4 <bsg_printf+0x9c>
     c88:	0017e793          	ori	x15,x15,1
     c8c:	00800693          	li	x13,8
     c90:	bf5ff06f          	j	884 <bsg_printf+0x37c>
     c94:	81000637          	lui	x12,0x81000
     c98:	05060613          	addi	x12,x12,80 # 81000050 <_end+0xfffffff0>
     c9c:	b61ff06f          	j	7fc <bsg_printf+0x2f4>
     ca0:	00d50733          	add	x14,x10,x13
     ca4:	02000793          	li	x15,32
     ca8:	08d05263          	blez	x13,d2c <bsg_printf+0x824>
     cac:	00150513          	addi	x10,x10,1
     cb0:	fef50fa3          	sb	x15,-1(x10)
     cb4:	fee51ce3          	bne	x10,x14,cac <bsg_printf+0x7a4>
     cb8:	fff00693          	li	x13,-1
     cbc:	c15ff06f          	j	8d0 <bsg_printf+0x3c8>
     cc0:	00000513          	li	x10,0
     cc4:	921ff06f          	j	5e4 <bsg_printf+0xdc>
     cc8:	02010913          	addi	x18,x2,32
     ccc:	00090513          	mv	x10,x18
     cd0:	8d5ff06f          	j	5a4 <bsg_printf+0x9c>
     cd4:	fff68813          	addi	x16,x13,-1
     cd8:	0cd5d263          	bge	x11,x13,d9c <bsg_printf+0x894>
     cdc:	40b687b3          	sub	x15,x13,x11
     ce0:	00f507b3          	add	x15,x10,x15
     ce4:	02000713          	li	x14,32
     ce8:	00150513          	addi	x10,x10,1
     cec:	fee50fa3          	sb	x14,-1(x10)
     cf0:	fef51ce3          	bne	x10,x15,ce8 <bsg_printf+0x7e0>
     cf4:	40d586b3          	sub	x13,x11,x13
     cf8:	010686b3          	add	x13,x13,x16
     cfc:	b2dff06f          	j	828 <bsg_printf+0x320>
     d00:	00030493          	mv	x9,x6
     d04:	c2dff06f          	j	930 <bsg_printf+0x428>
     d08:	01000613          	li	x12,16
     d0c:	d6dff06f          	j	a78 <bsg_printf+0x570>
     d10:	00a00613          	li	x12,10
     d14:	d65ff06f          	j	a78 <bsg_printf+0x570>
     d18:	0107f593          	andi	x11,x15,16
     d1c:	06058663          	beqz	x11,d88 <bsg_printf+0x880>
     d20:	00050713          	mv	x14,x10
     d24:	00000593          	li	x11,0
     d28:	b25ff06f          	j	84c <bsg_printf+0x344>
     d2c:	0009a783          	lw	x15,0(x19)
     d30:	00150713          	addi	x14,x10,1
     d34:	00498993          	addi	x19,x19,4
     d38:	00f50023          	sb	x15,0(x10)
     d3c:	00148313          	addi	x6,x9,1
     d40:	0014c783          	lbu	x15,1(x9)
     d44:	00070513          	mv	x10,x14
     d48:	840790e3          	bnez	x15,588 <bsg_printf+0x80>
     d4c:	859ff06f          	j	5a4 <bsg_printf+0x9c>
     d50:	00030493          	mv	x9,x6
     d54:	a69ff06f          	j	7bc <bsg_printf+0x2b4>
     d58:	00250513          	addi	x10,x10,2
     d5c:	f19ff06f          	j	c74 <bsg_printf+0x76c>
     d60:	ffe68793          	addi	x15,x13,-2
     d64:	00080693          	mv	x13,x16
     d68:	00078813          	mv	x16,x15
     d6c:	cb1ff06f          	j	a1c <bsg_printf+0x514>
     d70:	ffe68793          	addi	x15,x13,-2
     d74:	00060693          	mv	x13,x12
     d78:	00078613          	mv	x12,x15
     d7c:	dd1ff06f          	j	b4c <bsg_printf+0x644>
     d80:	00050713          	mv	x14,x10
     d84:	ac9ff06f          	j	84c <bsg_printf+0x344>
     d88:	fff68813          	addi	x16,x13,-1
     d8c:	f4d048e3          	bgtz	x13,cdc <bsg_printf+0x7d4>
     d90:	00080693          	mv	x13,x16
     d94:	00050713          	mv	x14,x10
     d98:	ab5ff06f          	j	84c <bsg_printf+0x344>
     d9c:	00080693          	mv	x13,x16
     da0:	a89ff06f          	j	828 <bsg_printf+0x320>

00000da4 <bsg_tile_group_barrier>:
     da4:	000017b7          	lui	x15,0x1
     da8:	00054e83          	lbu	x29,0(x10)
     dac:	4a87a603          	lw	x12,1192(x15) # 14a8 <__bsg_y>
     db0:	00154f03          	lbu	x30,1(x10)
     db4:	000017b7          	lui	x15,0x1
     db8:	4ac7ae03          	lw	x28,1196(x15) # 14ac <__bsg_x>
     dbc:	01861813          	slli	x16,x12,0x18
     dc0:	01ee87b3          	add	x15,x29,x30
     dc4:	4017d793          	srai	x15,x15,0x1
     dc8:	01056833          	or	x16,x10,x16
     dcc:	200008b7          	lui	x17,0x20000
     dd0:	01279693          	slli	x13,x15,0x12
     dd4:	01186833          	or	x16,x16,x17
     dd8:	41de0333          	sub	x6,x28,x29
     ddc:	0106e733          	or	x14,x13,x16
     de0:	00670733          	add	x14,x14,x6
     de4:	00100313          	li	x6,1
     de8:	0005c383          	lbu	x7,0(x11)
     dec:	0015c283          	lbu	x5,1(x11)
     df0:	00670123          	sb	x6,2(x14)
     df4:	03c78463          	beq	x15,x28,e1c <bsg_tile_group_barrier+0x78>
     df8:	00450713          	addi	x14,x10,4
     dfc:	00100793          	li	x15,1
     e00:	00c0006f          	j	e0c <bsg_tile_group_barrier+0x68>
     e04:	140726af          	lr.w.aq	x13,(x14)
     e08:	00f68663          	beq	x13,x15,e14 <bsg_tile_group_barrier+0x70>
     e0c:	100726af          	lr.w	x13,(x14)
     e10:	fef69ae3          	bne	x13,x15,e04 <bsg_tile_group_barrier+0x60>
     e14:	00052223          	sw	x0,4(x10)
     e18:	00008067          	ret
     e1c:	00538333          	add	x6,x7,x5
     e20:	40135313          	srai	x6,x6,0x1
     e24:	01831793          	slli	x15,x6,0x18
     e28:	00b6e6b3          	or	x13,x13,x11
     e2c:	00d7e6b3          	or	x13,x15,x13
     e30:	0116e8b3          	or	x17,x13,x17
     e34:	00038f93          	mv	x31,x7
     e38:	41df06b3          	sub	x13,x30,x29
     e3c:	0006ce63          	bltz	x13,e58 <bsg_tile_group_barrier+0xb4>
     e40:	00000793          	li	x15,0
     e44:	00f50733          	add	x14,x10,x15
     e48:	00274703          	lbu	x14,2(x14)
     e4c:	00178793          	addi	x15,x15,1
     e50:	fe0706e3          	beqz	x14,e3c <bsg_tile_group_barrier+0x98>
     e54:	fef6d8e3          	bge	x13,x15,e44 <bsg_tile_group_barrier+0xa0>
     e58:	407607b3          	sub	x15,x12,x7
     e5c:	00f888b3          	add	x17,x17,x15
     e60:	00100793          	li	x15,1
     e64:	00f88123          	sb	x15,2(x17) # 20000002 <_bsg_elf_vcache_size+0x1ffe0002>
     e68:	06c30063          	beq	x6,x12,ec8 <bsg_tile_group_barrier+0x124>
     e6c:	00458713          	addi	x14,x11,4
     e70:	00100793          	li	x15,1
     e74:	00c0006f          	j	e80 <bsg_tile_group_barrier+0xdc>
     e78:	1407262f          	lr.w.aq	x12,(x14)
     e7c:	00f60663          	beq	x12,x15,e88 <bsg_tile_group_barrier+0xe4>
     e80:	1007262f          	lr.w	x12,(x14)
     e84:	fef61ae3          	bne	x12,x15,e78 <bsg_tile_group_barrier+0xd4>
     e88:	001f0613          	addi	x12,x30,1
     e8c:	012e9793          	slli	x15,x29,0x12
     e90:	01261613          	slli	x12,x12,0x12
     e94:	00100313          	li	x6,1
     e98:	000408b7          	lui	x17,0x40
     e9c:	01df4a63          	blt	x30,x29,eb0 <bsg_tile_group_barrier+0x10c>
     ea0:	0107e733          	or	x14,x15,x16
     ea4:	00672223          	sw	x6,4(x14)
     ea8:	011787b3          	add	x15,x15,x17
     eac:	fef61ae3          	bne	x12,x15,ea0 <bsg_tile_group_barrier+0xfc>
     eb0:	0006c863          	bltz	x13,ec0 <bsg_tile_group_barrier+0x11c>
     eb4:	00050123          	sb	x0,2(x10)
     eb8:	00068463          	beqz	x13,ec0 <bsg_tile_group_barrier+0x11c>
     ebc:	000501a3          	sb	x0,3(x10)
     ec0:	0005a223          	sw	x0,4(x11)
     ec4:	f35ff06f          	j	df8 <bsg_tile_group_barrier+0x54>
     ec8:	ffe00313          	li	x6,-2
     ecc:	407288b3          	sub	x17,x5,x7
     ed0:	40b30333          	sub	x6,x6,x11
     ed4:	0408ce63          	bltz	x17,f30 <bsg_tile_group_barrier+0x18c>
     ed8:	00258793          	addi	x15,x11,2
     edc:	0007c703          	lbu	x14,0(x15)
     ee0:	00178793          	addi	x15,x15,1
     ee4:	00f30633          	add	x12,x6,x15
     ee8:	fe0706e3          	beqz	x14,ed4 <bsg_tile_group_barrier+0x130>
     eec:	fec8d8e3          	bge	x17,x12,edc <bsg_tile_group_barrier+0x138>
     ef0:	0272c863          	blt	x5,x7,f20 <bsg_tile_group_barrier+0x17c>
     ef4:	012e1e13          	slli	x28,x28,0x12
     ef8:	20000637          	lui	x12,0x20000
     efc:	00100713          	li	x14,1
     f00:	018f9793          	slli	x15,x31,0x18
     f04:	01c7e7b3          	or	x15,x15,x28
     f08:	00f5e7b3          	or	x15,x11,x15
     f0c:	00c7e7b3          	or	x15,x15,x12
     f10:	00e7a223          	sw	x14,4(x15)
     f14:	001f8f93          	addi	x31,x31,1
     f18:	fff2d4e3          	bge	x5,x31,f00 <bsg_tile_group_barrier+0x15c>
     f1c:	f408c8e3          	bltz	x17,e6c <bsg_tile_group_barrier+0xc8>
     f20:	00058123          	sb	x0,2(x11)
     f24:	f40884e3          	beqz	x17,e6c <bsg_tile_group_barrier+0xc8>
     f28:	000581a3          	sb	x0,3(x11)
     f2c:	f41ff06f          	j	e6c <bsg_tile_group_barrier+0xc8>
     f30:	fc72d2e3          	bge	x5,x7,ef4 <bsg_tile_group_barrier+0x150>
     f34:	f39ff06f          	j	e6c <bsg_tile_group_barrier+0xc8>

00000f38 <kernel_float_vec_exp>:
     f38:	000017b7          	lui	x15,0x1
     f3c:	00001737          	lui	x14,0x1
     f40:	49872703          	lw	x14,1176(x14) # 1498 <__bsg_grid_dim_x>
     f44:	48c7a783          	lw	x15,1164(x15) # 148c <__bsg_tile_group_id_y>
     f48:	ff010113          	addi	x2,x2,-16
     f4c:	00001637          	lui	x12,0x1
     f50:	02e787b3          	mul	x15,x15,x14
     f54:	00912223          	sw	x9,4(x2)
     f58:	00001737          	lui	x14,0x1
     f5c:	49062483          	lw	x9,1168(x12) # 1490 <__bsg_tile_group_id_x>
     f60:	4a472703          	lw	x14,1188(x14) # 14a4 <finitef>
     f64:	00112623          	sw	x1,12(x2)
     f68:	00812423          	sw	x8,8(x2)
     f6c:	01212023          	sw	x18,0(x2)
     f70:	009787b3          	add	x15,x15,x9
     f74:	02d784b3          	mul	x9,x15,x13
     f78:	04d75463          	bge	x14,x13,fc0 <kernel_float_vec_exp+0x88>
     f7c:	fff74913          	not	x18,x14
     f80:	00d90933          	add	x18,x18,x13
     f84:	00e484b3          	add	x9,x9,x14
     f88:	ffc97913          	andi	x18,x18,-4
     f8c:	00990933          	add	x18,x18,x9
     f90:	00291913          	slli	x18,x18,0x2
     f94:	00249493          	slli	x9,x9,0x2
     f98:	01050793          	addi	x15,x10,16
     f9c:	00950433          	add	x8,x10,x9
     fa0:	00f90933          	add	x18,x18,x15
     fa4:	009584b3          	add	x9,x11,x9
     fa8:	00042503          	lw	x10,0(x8) # 81000000 <_end+0xffffffa0>
     fac:	01048493          	addi	x9,x9,16
     fb0:	01040413          	addi	x8,x8,16
     fb4:	03c000ef          	jal	x1,ff0 <expf>
     fb8:	fea4a823          	sw	x10,-16(x9)
     fbc:	ff2416e3          	bne	x8,x18,fa8 <kernel_float_vec_exp+0x70>
     fc0:	00001537          	lui	x10,0x1
     fc4:	000015b7          	lui	x11,0x1
     fc8:	4b850513          	addi	x10,x10,1208 # 14b8 <matherr>
     fcc:	4b058593          	addi	x11,x11,1200 # 14b0 <c_barrier>
     fd0:	dd5ff0ef          	jal	x1,da4 <bsg_tile_group_barrier>
     fd4:	00c12083          	lw	x1,12(x2)
     fd8:	00812403          	lw	x8,8(x2)
     fdc:	00412483          	lw	x9,4(x2)
     fe0:	00012903          	lw	x18,0(x2)
     fe4:	00000513          	li	x10,0
     fe8:	01010113          	addi	x2,x2,16
     fec:	00008067          	ret

00000ff0 <expf>:
     ff0:	fc010113          	addi	x2,x2,-64
     ff4:	02812c23          	sw	x8,56(x2)
     ff8:	02912a23          	sw	x9,52(x2)
     ffc:	03212823          	sw	x18,48(x2)
    1000:	02112e23          	sw	x1,60(x2)
    1004:	00001937          	lui	x18,0x1
    1008:	00050493          	mv	x9,x10
    100c:	178000ef          	jal	x1,1184 <__ieee754_expf>
    1010:	4c092703          	lw	x14,1216(x18) # 14c0 <__divsf3>
    1014:	fff00793          	li	x15,-1
    1018:	00050413          	mv	x8,x10
    101c:	02f70a63          	beq	x14,x15,1050 <_bsg_data_start_addr+0x50>
    1020:	00048513          	mv	x10,x9
    1024:	480000ef          	jal	x1,14a4 <finitef>
    1028:	02050463          	beqz	x10,1050 <_bsg_data_start_addr+0x50>
    102c:	000017b7          	lui	x15,0x1
    1030:	4387a787          	flw	f15,1080(x15) # 1438 <__ieee754_expf+0x2b4>
    1034:	f0048753          	fmv.w.x	f14,x9
    1038:	a0e797d3          	flt.s	x15,f15,f14
    103c:	0e079263          	bnez	x15,1120 <_bsg_data_start_addr+0x120>
    1040:	000017b7          	lui	x15,0x1
    1044:	43c7a787          	flw	f15,1084(x15) # 143c <__ieee754_expf+0x2b8>
    1048:	a0f717d3          	flt.s	x15,f14,f15
    104c:	02079063          	bnez	x15,106c <_bsg_data_start_addr+0x6c>
    1050:	03c12083          	lw	x1,60(x2)
    1054:	00040513          	mv	x10,x8
    1058:	03812403          	lw	x8,56(x2)
    105c:	03412483          	lw	x9,52(x2)
    1060:	03012903          	lw	x18,48(x2)
    1064:	04010113          	addi	x2,x2,64
    1068:	00008067          	ret
    106c:	00400793          	li	x15,4
    1070:	00f12423          	sw	x15,8(x2)
    1074:	810007b7          	lui	x15,0x81000
    1078:	05878793          	addi	x15,x15,88 # 81000058 <_end+0xfffffff8>
    107c:	00048513          	mv	x10,x9
    1080:	00f12623          	sw	x15,12(x2)
    1084:	02012423          	sw	x0,40(x2)
    1088:	141000ef          	jal	x1,19c8 <__extendsfdf2>
    108c:	00050613          	mv	x12,x10
    1090:	4c092503          	lw	x10,1216(x18)
    1094:	00c12c23          	sw	x12,24(x2)
    1098:	00b12e23          	sw	x11,28(x2)
    109c:	00c12823          	sw	x12,16(x2)
    10a0:	00b12a23          	sw	x11,20(x2)
    10a4:	02012023          	sw	x0,32(x2)
    10a8:	02012223          	sw	x0,36(x2)
    10ac:	00200793          	li	x15,2
    10b0:	06f50063          	beq	x10,x15,1110 <_bsg_data_start_addr+0x110>
    10b4:	00810513          	addi	x10,x2,8
    10b8:	400000ef          	jal	x1,14b8 <matherr>
    10bc:	04050a63          	beqz	x10,1110 <_bsg_data_start_addr+0x110>
    10c0:	02812783          	lw	x15,40(x2)
    10c4:	0a079863          	bnez	x15,1174 <_bsg_data_start_addr+0x174>
    10c8:	02012503          	lw	x10,32(x2)
    10cc:	02412583          	lw	x11,36(x2)
    10d0:	201000ef          	jal	x1,1ad0 <__truncdfsf2>
    10d4:	00050413          	mv	x8,x10
    10d8:	03c12083          	lw	x1,60(x2)
    10dc:	00040513          	mv	x10,x8
    10e0:	03812403          	lw	x8,56(x2)
    10e4:	03412483          	lw	x9,52(x2)
    10e8:	03012903          	lw	x18,48(x2)
    10ec:	04010113          	addi	x2,x2,64
    10f0:	00008067          	ret
    10f4:	00001737          	lui	x14,0x1
    10f8:	43072603          	lw	x12,1072(x14) # 1430 <__ieee754_expf+0x2ac>
    10fc:	43472683          	lw	x13,1076(x14)
    1100:	00200793          	li	x15,2
    1104:	02c12023          	sw	x12,32(x2)
    1108:	02d12223          	sw	x13,36(x2)
    110c:	faf514e3          	bne	x10,x15,10b4 <_bsg_data_start_addr+0xb4>
    1110:	4e9000ef          	jal	x1,1df8 <__errno>
    1114:	02200793          	li	x15,34
    1118:	00f52023          	sw	x15,0(x10)
    111c:	fa5ff06f          	j	10c0 <_bsg_data_start_addr+0xc0>
    1120:	00300793          	li	x15,3
    1124:	00f12423          	sw	x15,8(x2)
    1128:	810007b7          	lui	x15,0x81000
    112c:	05878793          	addi	x15,x15,88 # 81000058 <_end+0xfffffff8>
    1130:	00048513          	mv	x10,x9
    1134:	00f12623          	sw	x15,12(x2)
    1138:	02012423          	sw	x0,40(x2)
    113c:	08d000ef          	jal	x1,19c8 <__extendsfdf2>
    1140:	00050613          	mv	x12,x10
    1144:	4c092503          	lw	x10,1216(x18)
    1148:	00c12c23          	sw	x12,24(x2)
    114c:	00b12e23          	sw	x11,28(x2)
    1150:	00c12823          	sw	x12,16(x2)
    1154:	00b12a23          	sw	x11,20(x2)
    1158:	f8051ee3          	bnez	x10,10f4 <_bsg_data_start_addr+0xf4>
    115c:	000017b7          	lui	x15,0x1
    1160:	4287a703          	lw	x14,1064(x15) # 1428 <__ieee754_expf+0x2a4>
    1164:	42c7a783          	lw	x15,1068(x15)
    1168:	02e12023          	sw	x14,32(x2)
    116c:	02f12223          	sw	x15,36(x2)
    1170:	f45ff06f          	j	10b4 <_bsg_data_start_addr+0xb4>
    1174:	485000ef          	jal	x1,1df8 <__errno>
    1178:	02812783          	lw	x15,40(x2)
    117c:	00f52023          	sw	x15,0(x10)
    1180:	f49ff06f          	j	10c8 <_bsg_data_start_addr+0xc8>

00001184 <__ieee754_expf>:
    1184:	fe010113          	addi	x2,x2,-32
    1188:	00151793          	slli	x15,x10,0x1
    118c:	00812c23          	sw	x8,24(x2)
    1190:	00112e23          	sw	x1,28(x2)
    1194:	00912a23          	sw	x9,20(x2)
    1198:	01212823          	sw	x18,16(x2)
    119c:	01312623          	sw	x19,12(x2)
    11a0:	7f800737          	lui	x14,0x7f800
    11a4:	0017d793          	srli	x15,x15,0x1
    11a8:	00050413          	mv	x8,x10
    11ac:	12f76863          	bltu	x14,x15,12dc <__ieee754_expf+0x158>
    11b0:	01f55613          	srli	x12,x10,0x1f
    11b4:	24e78663          	beq	x15,x14,1400 <__ieee754_expf+0x27c>
    11b8:	42b17737          	lui	x14,0x42b17
    11bc:	21770713          	addi	x14,x14,535 # 42b17217 <_bsg_elf_vcache_size+0x42af7217>
    11c0:	14a74263          	blt	x14,x10,1304 <__ieee754_expf+0x180>
    11c4:	22054463          	bltz	x10,13ec <__ieee754_expf+0x268>
    11c8:	3eb17737          	lui	x14,0x3eb17
    11cc:	21870713          	addi	x14,x14,536 # 3eb17218 <_bsg_elf_vcache_size+0x3eaf7218>
    11d0:	16f77063          	bgeu	x14,x15,1330 <__ieee754_expf+0x1ac>
    11d4:	3f851737          	lui	x14,0x3f851
    11d8:	59170713          	addi	x14,x14,1425 # 3f851591 <_bsg_elf_vcache_size+0x3f831591>
    11dc:	24f76c63          	bltu	x14,x15,1434 <__ieee754_expf+0x2b0>
    11e0:	00001737          	lui	x14,0x1
    11e4:	00261693          	slli	x13,x12,0x2
    11e8:	47870713          	addi	x14,x14,1144 # 1478 <ln2HI>
    11ec:	00d70733          	add	x14,x14,x13
    11f0:	00072787          	flw	f15,0(x14)
    11f4:	f0040753          	fmv.w.x	f14,x8
    11f8:	000017b7          	lui	x15,0x1
    11fc:	47078793          	addi	x15,x15,1136 # 1470 <ln2LO>
    1200:	08f777d3          	fsub.s	f15,f14,f15
    1204:	00d787b3          	add	x15,x15,x13
    1208:	00100493          	li	x9,1
    120c:	0007a903          	lw	x18,0(x15)
    1210:	40c484b3          	sub	x9,x9,x12
    1214:	e00789d3          	fmv.x.w	x19,f15
    1218:	40c484b3          	sub	x9,x9,x12
    121c:	f0090753          	fmv.w.x	f14,x18
    1220:	f00987d3          	fmv.w.x	f15,x19
    1224:	000017b7          	lui	x15,0x1
    1228:	08e7f7d3          	fsub.s	f15,f15,f14
    122c:	10f7f753          	fmul.s	f14,f15,f15
    1230:	e0078453          	fmv.x.w	x8,f15
    1234:	4507a787          	flw	f15,1104(x15) # 1450 <__ieee754_expf+0x2cc>
    1238:	000017b7          	lui	x15,0x1
    123c:	4547a687          	flw	f13,1108(x15) # 1454 <__ieee754_expf+0x2d0>
    1240:	10f777d3          	fmul.s	f15,f14,f15
    1244:	000017b7          	lui	x15,0x1
    1248:	08d7f7d3          	fsub.s	f15,f15,f13
    124c:	4587a687          	flw	f13,1112(x15) # 1458 <__ieee754_expf+0x2d4>
    1250:	000017b7          	lui	x15,0x1
    1254:	10e7f7d3          	fmul.s	f15,f15,f14
    1258:	00d7f7d3          	fadd.s	f15,f15,f13
    125c:	45c7a687          	flw	f13,1116(x15) # 145c <__ieee754_expf+0x2d8>
    1260:	000017b7          	lui	x15,0x1
    1264:	10e7f7d3          	fmul.s	f15,f15,f14
    1268:	08d7f7d3          	fsub.s	f15,f15,f13
    126c:	4607a687          	flw	f13,1120(x15) # 1460 <__ieee754_expf+0x2dc>
    1270:	10e7f7d3          	fmul.s	f15,f15,f14
    1274:	00d7f7d3          	fadd.s	f15,f15,f13
    1278:	10e7f7d3          	fmul.s	f15,f15,f14
    127c:	f0040753          	fmv.w.x	f14,x8
    1280:	08f777d3          	fsub.s	f15,f14,f15
    1284:	10f77753          	fmul.s	f14,f14,f15
    1288:	e0070553          	fmv.x.w	x10,f14
    128c:	20048863          	beqz	x9,149c <__bsg_grp_org_y>
    1290:	000017b7          	lui	x15,0x1
    1294:	4687a707          	flw	f14,1128(x15) # 1468 <__ieee754_expf+0x2e4>
    1298:	08f777d3          	fsub.s	f15,f14,f15
    129c:	e00785d3          	fmv.x.w	x11,f15
    12a0:	220000ef          	jal	x1,14c0 <__divsf3>
    12a4:	f0090753          	fmv.w.x	f14,x18
    12a8:	f00507d3          	fmv.w.x	f15,x10
    12ac:	00001737          	lui	x14,0x1
    12b0:	f8300793          	li	x15,-125
    12b4:	08f777d3          	fsub.s	f15,f14,f15
    12b8:	f0098753          	fmv.w.x	f14,x19
    12bc:	08e7f7d3          	fsub.s	f15,f15,f14
    12c0:	46472707          	flw	f14,1124(x14) # 1464 <__ieee754_expf+0x2e0>
    12c4:	08f777d3          	fsub.s	f15,f14,f15
    12c8:	e0078953          	fmv.x.w	x18,f15
    12cc:	14f4c263          	blt	x9,x15,1410 <__ieee754_expf+0x28c>
    12d0:	01749493          	slli	x9,x9,0x17
    12d4:	01248533          	add	x10,x9,x18
    12d8:	0100006f          	j	12e8 <__ieee754_expf+0x164>
    12dc:	f00507d3          	fmv.w.x	f15,x10
    12e0:	00f7f7d3          	fadd.s	f15,f15,f15
    12e4:	e0078553          	fmv.x.w	x10,f15
    12e8:	01c12083          	lw	x1,28(x2)
    12ec:	01812403          	lw	x8,24(x2)
    12f0:	01412483          	lw	x9,20(x2)
    12f4:	01012903          	lw	x18,16(x2)
    12f8:	00c12983          	lw	x19,12(x2)
    12fc:	02010113          	addi	x2,x2,32
    1300:	00008067          	ret
    1304:	000017b7          	lui	x15,0x1
    1308:	4407a787          	flw	f15,1088(x15) # 1440 <__ieee754_expf+0x2bc>
    130c:	01c12083          	lw	x1,28(x2)
    1310:	01812403          	lw	x8,24(x2)
    1314:	10f7f7d3          	fmul.s	f15,f15,f15
    1318:	01412483          	lw	x9,20(x2)
    131c:	01012903          	lw	x18,16(x2)
    1320:	00c12983          	lw	x19,12(x2)
    1324:	e0078553          	fmv.x.w	x10,f15
    1328:	02010113          	addi	x2,x2,32
    132c:	00008067          	ret
    1330:	31800737          	lui	x14,0x31800
    1334:	000014b7          	lui	x9,0x1
    1338:	02e7f063          	bgeu	x15,x14,1358 <__ieee754_expf+0x1d4>
    133c:	000017b7          	lui	x15,0x1
    1340:	4407a707          	flw	f14,1088(x15) # 1440 <__ieee754_expf+0x2bc>
    1344:	f00406d3          	fmv.w.x	f13,x8
    1348:	4644a787          	flw	f15,1124(x9) # 1464 <__ieee754_expf+0x2e0>
    134c:	00e6f753          	fadd.s	f14,f13,f14
    1350:	a0e797d3          	flt.s	x15,f15,f14
    1354:	12079e63          	bnez	x15,1490 <__bsg_tile_group_id_x>
    1358:	f0040753          	fmv.w.x	f14,x8
    135c:	000017b7          	lui	x15,0x1
    1360:	4507a787          	flw	f15,1104(x15) # 1450 <__ieee754_expf+0x2cc>
    1364:	10e77753          	fmul.s	f14,f14,f14
    1368:	000017b7          	lui	x15,0x1
    136c:	4547a687          	flw	f13,1108(x15) # 1454 <__ieee754_expf+0x2d0>
    1370:	000017b7          	lui	x15,0x1
    1374:	10f777d3          	fmul.s	f15,f14,f15
    1378:	08d7f7d3          	fsub.s	f15,f15,f13
    137c:	4587a687          	flw	f13,1112(x15) # 1458 <__ieee754_expf+0x2d4>
    1380:	000017b7          	lui	x15,0x1
    1384:	10e7f7d3          	fmul.s	f15,f15,f14
    1388:	00d7f7d3          	fadd.s	f15,f15,f13
    138c:	45c7a687          	flw	f13,1116(x15) # 145c <__ieee754_expf+0x2d8>
    1390:	000017b7          	lui	x15,0x1
    1394:	10e7f7d3          	fmul.s	f15,f15,f14
    1398:	08d7f7d3          	fsub.s	f15,f15,f13
    139c:	4607a687          	flw	f13,1120(x15) # 1460 <__ieee754_expf+0x2dc>
    13a0:	10e7f7d3          	fmul.s	f15,f15,f14
    13a4:	00d7f7d3          	fadd.s	f15,f15,f13
    13a8:	10e7f7d3          	fmul.s	f15,f15,f14
    13ac:	f0040753          	fmv.w.x	f14,x8
    13b0:	08f777d3          	fsub.s	f15,f14,f15
    13b4:	10f77753          	fmul.s	f14,f14,f15
    13b8:	e0070553          	fmv.x.w	x10,f14
    13bc:	000017b7          	lui	x15,0x1
    13c0:	4687a707          	flw	f14,1128(x15) # 1468 <__ieee754_expf+0x2e4>
    13c4:	08e7f7d3          	fsub.s	f15,f15,f14
    13c8:	e00785d3          	fmv.x.w	x11,f15
    13cc:	0f4000ef          	jal	x1,14c0 <__divsf3>
    13d0:	f0050753          	fmv.w.x	f14,x10
    13d4:	f00406d3          	fmv.w.x	f13,x8
    13d8:	4644a787          	flw	f15,1124(x9)
    13dc:	08d77753          	fsub.s	f14,f14,f13
    13e0:	08e7f7d3          	fsub.s	f15,f15,f14
    13e4:	e0078553          	fmv.x.w	x10,f15
    13e8:	f01ff06f          	j	12e8 <__ieee754_expf+0x164>
    13ec:	42cff737          	lui	x14,0x42cff
    13f0:	1b570713          	addi	x14,x14,437 # 42cff1b5 <_bsg_elf_vcache_size+0x42cdf1b5>
    13f4:	00000513          	li	x10,0
    13f8:	dcf778e3          	bgeu	x14,x15,11c8 <__ieee754_expf+0x44>
    13fc:	eedff06f          	j	12e8 <__ieee754_expf+0x164>
    1400:	00000513          	li	x10,0
    1404:	ee0612e3          	bnez	x12,12e8 <__ieee754_expf+0x164>
    1408:	00040513          	mv	x10,x8
    140c:	eddff06f          	j	12e8 <__ieee754_expf+0x164>
    1410:	06448513          	addi	x10,x9,100
    1414:	01751513          	slli	x10,x10,0x17
    1418:	01250533          	add	x10,x10,x18
    141c:	000017b7          	lui	x15,0x1
    1420:	f0050753          	fmv.w.x	f14,x10
    1424:	46c7a787          	flw	f15,1132(x15) # 146c <__ieee754_expf+0x2e8>
    1428:	10f777d3          	fmul.s	f15,f14,f15
    142c:	e0078553          	fmv.x.w	x10,f15
    1430:	eb9ff06f          	j	12e8 <__ieee754_expf+0x164>
    1434:	000017b7          	lui	x15,0x1
    1438:	4447a787          	flw	f15,1092(x15) # 1444 <__ieee754_expf+0x2c0>
    143c:	f0040753          	fmv.w.x	f14,x8
    1440:	000014b7          	lui	x9,0x1
    1444:	48048493          	addi	x9,x9,1152 # 1480 <halF>
    1448:	10f777d3          	fmul.s	f15,f14,f15
    144c:	00261613          	slli	x12,x12,0x2
    1450:	00c48633          	add	x12,x9,x12
    1454:	00062707          	flw	f14,0(x12)
    1458:	000017b7          	lui	x15,0x1
    145c:	00e7f7d3          	fadd.s	f15,f15,f14
    1460:	c00794d3          	fcvt.w.s	x9,f15,rtz
    1464:	4487a787          	flw	f15,1096(x15) # 1448 <__ieee754_expf+0x2c4>
    1468:	000017b7          	lui	x15,0x1
    146c:	d004f753          	fcvt.s.w	f14,x9
    1470:	44c7a687          	flw	f13,1100(x15) # 144c <__ieee754_expf+0x2c8>
    1474:	10f777d3          	fmul.s	f15,f14,f15
    1478:	10d77753          	fmul.s	f14,f14,f13
    147c:	e0070953          	fmv.x.w	x18,f14
    1480:	f0040753          	fmv.w.x	f14,x8
    1484:	08f777d3          	fsub.s	f15,f14,f15
    1488:	e00789d3          	fmv.x.w	x19,f15
    148c:	d91ff06f          	j	121c <__ieee754_expf+0x98>
    1490:	00f6f7d3          	fadd.s	f15,f13,f15
    1494:	e0078553          	fmv.x.w	x10,f15
    1498:	e51ff06f          	j	12e8 <__ieee754_expf+0x164>
    149c:	000014b7          	lui	x9,0x1
    14a0:	f1dff06f          	j	13bc <__ieee754_expf+0x238>

000014a4 <finitef>:
    14a4:	00151513          	slli	x10,x10,0x1
    14a8:	7f8007b7          	lui	x15,0x7f800
    14ac:	00155513          	srli	x10,x10,0x1
    14b0:	00f52533          	slt	x10,x10,x15
    14b4:	00008067          	ret

000014b8 <matherr>:
    14b8:	00000513          	li	x10,0
    14bc:	00008067          	ret

000014c0 <__divsf3>:
{
    14c0:	fd010113          	addi	x2,x2,-48
    14c4:	01612823          	sw	x22,16(x2)
    14c8:	02112623          	sw	x1,44(x2)
    14cc:	02812423          	sw	x8,40(x2)
    14d0:	02912223          	sw	x9,36(x2)
    14d4:	03212023          	sw	x18,32(x2)
    14d8:	01312e23          	sw	x19,28(x2)
    14dc:	01412c23          	sw	x20,24(x2)
    14e0:	01512a23          	sw	x21,20(x2)
    14e4:	01712623          	sw	x23,12(x2)
    14e8:	00058b13          	mv	x22,x11
  FP_INIT_ROUNDMODE;
    14ec:	00202a73          	frrm	x20
  FP_UNPACK_S (A, a);
    14f0:	01755993          	srli	x19,x10,0x17
    14f4:	00951913          	slli	x18,x10,0x9
    14f8:	0ff9f993          	andi	x19,x19,255
    14fc:	00995913          	srli	x18,x18,0x9
    1500:	01f55a93          	srli	x21,x10,0x1f
    1504:	02098463          	beqz	x19,152c <_tls_data+0x4c>
    1508:	0ff00793          	li	x15,255
    150c:	04f98063          	beq	x19,x15,154c <_tls_data+0x6c>
    1510:	00391913          	slli	x18,x18,0x3
    1514:	040007b7          	lui	x15,0x4000
    1518:	00f96933          	or	x18,x18,x15
    151c:	f8198993          	addi	x19,x19,-127
    1520:	00000b93          	li	x23,0
  FP_DECL_EX;
    1524:	00000493          	li	x9,0
    1528:	03c0006f          	j	1564 <_tls_data+0x84>
  FP_UNPACK_S (A, a);
    152c:	0a090063          	beqz	x18,15cc <_tls_data+0xec>
    1530:	00090513          	mv	x10,x18
    1534:	079000ef          	jal	x1,1dac <__clzsi2>
    1538:	ffb50793          	addi	x15,x10,-5
    153c:	f8a00993          	li	x19,-118
    1540:	00f91933          	sll	x18,x18,x15
    1544:	40a989b3          	sub	x19,x19,x10
    1548:	fd9ff06f          	j	1520 <_tls_data+0x40>
    154c:	08090663          	beqz	x18,15d8 <_tls_data+0xf8>
    1550:	00991793          	slli	x15,x18,0x9
    1554:	0ff00993          	li	x19,255
    1558:	00300b93          	li	x23,3
    155c:	01000493          	li	x9,16
    1560:	fc07c2e3          	bltz	x15,1524 <_tls_data+0x44>
  FP_UNPACK_S (B, b);
    1564:	017b5793          	srli	x15,x22,0x17
    1568:	009b1413          	slli	x8,x22,0x9
    156c:	0ff7f793          	andi	x15,x15,255
    1570:	00945413          	srli	x8,x8,0x9
    1574:	01fb5b13          	srli	x22,x22,0x1f
    1578:	06078663          	beqz	x15,15e4 <_tls_data+0x104>
    157c:	0ff00713          	li	x14,255
    1580:	08e78263          	beq	x15,x14,1604 <_tls_data+0x124>
    1584:	00341413          	slli	x8,x8,0x3
    1588:	04000737          	lui	x14,0x4000
    158c:	00e46433          	or	x8,x8,x14
    1590:	f8178793          	addi	x15,x15,-127 # 3ffff81 <_bsg_elf_vcache_size+0x3fdff81>
    1594:	00000713          	li	x14,0
  FP_DIV_S (R, A, B);
    1598:	40f989b3          	sub	x19,x19,x15
    159c:	002b9793          	slli	x15,x23,0x2
    15a0:	00e7e7b3          	or	x15,x15,x14
    15a4:	fff78793          	addi	x15,x15,-1
    15a8:	00e00693          	li	x13,14
    15ac:	016ac633          	xor	x12,x21,x22
    15b0:	08f6ea63          	bltu	x13,x15,1644 <_tls_data+0x164>
    15b4:	000016b7          	lui	x13,0x1
    15b8:	00279793          	slli	x15,x15,0x2
    15bc:	6e468693          	addi	x13,x13,1764 # 16e4 <_tls_data+0x204>
    15c0:	00d787b3          	add	x15,x15,x13
    15c4:	0007a783          	lw	x15,0(x15)
    15c8:	00078067          	jr	x15
    15cc:	00000993          	li	x19,0
  FP_UNPACK_S (A, a);
    15d0:	00100b93          	li	x23,1
    15d4:	f51ff06f          	j	1524 <_tls_data+0x44>
    15d8:	0ff00993          	li	x19,255
    15dc:	00200b93          	li	x23,2
    15e0:	f45ff06f          	j	1524 <_tls_data+0x44>
  FP_UNPACK_S (B, b);
    15e4:	02040e63          	beqz	x8,1620 <_tls_data+0x140>
    15e8:	00040513          	mv	x10,x8
    15ec:	7c0000ef          	jal	x1,1dac <__clzsi2>
    15f0:	ffb50793          	addi	x15,x10,-5
    15f4:	00f41433          	sll	x8,x8,x15
    15f8:	f8a00793          	li	x15,-118
    15fc:	40a787b3          	sub	x15,x15,x10
    1600:	f95ff06f          	j	1594 <_tls_data+0xb4>
    1604:	02040463          	beqz	x8,162c <_tls_data+0x14c>
    1608:	00941793          	slli	x15,x8,0x9
    160c:	0207c663          	bltz	x15,1638 <_tls_data+0x158>
    1610:	0ff00793          	li	x15,255
    1614:	00300713          	li	x14,3
    1618:	01000493          	li	x9,16
    161c:	f7dff06f          	j	1598 <_tls_data+0xb8>
    1620:	00000793          	li	x15,0
    1624:	00100713          	li	x14,1
    1628:	f71ff06f          	j	1598 <_tls_data+0xb8>
    162c:	0ff00793          	li	x15,255
    1630:	00200713          	li	x14,2
    1634:	f65ff06f          	j	1598 <_tls_data+0xb8>
    1638:	0ff00793          	li	x15,255
    163c:	00300713          	li	x14,3
    1640:	f59ff06f          	j	1598 <_tls_data+0xb8>
  FP_DIV_S (R, A, B);
    1644:	00541513          	slli	x10,x8,0x5
    1648:	14897863          	bgeu	x18,x8,1798 <__clz_tab+0x78>
    164c:	fff98993          	addi	x19,x19,-1
    1650:	00000693          	li	x13,0
    1654:	01055413          	srli	x8,x10,0x10
    1658:	028958b3          	divu	x17,x18,x8
    165c:	000107b7          	lui	x15,0x10
    1660:	fff78793          	addi	x15,x15,-1 # ffff <_bsg_elf_stack_ptr+0xe003>
    1664:	00f577b3          	and	x15,x10,x15
    1668:	0106d693          	srli	x13,x13,0x10
    166c:	02897733          	remu	x14,x18,x8
    1670:	00088593          	mv	x11,x17
    1674:	03178833          	mul	x16,x15,x17
    1678:	01071713          	slli	x14,x14,0x10
    167c:	00e6e733          	or	x14,x13,x14
    1680:	01077e63          	bgeu	x14,x16,169c <_tls_data+0x1bc>
    1684:	00a70733          	add	x14,x14,x10
    1688:	fff88593          	addi	x11,x17,-1 # 3ffff <_bsg_elf_vcache_size+0x1ffff>
    168c:	00a76863          	bltu	x14,x10,169c <_tls_data+0x1bc>
    1690:	01077663          	bgeu	x14,x16,169c <_tls_data+0x1bc>
    1694:	ffe88593          	addi	x11,x17,-2
    1698:	00a70733          	add	x14,x14,x10
    169c:	41070733          	sub	x14,x14,x16
    16a0:	02875833          	divu	x16,x14,x8
    16a4:	02877733          	remu	x14,x14,x8
    16a8:	030786b3          	mul	x13,x15,x16
    16ac:	01071793          	slli	x15,x14,0x10
    16b0:	00080713          	mv	x14,x16
    16b4:	00d7fe63          	bgeu	x15,x13,16d0 <_tls_data+0x1f0>
    16b8:	00a787b3          	add	x15,x15,x10
    16bc:	fff80713          	addi	x14,x16,-1
    16c0:	00a7e863          	bltu	x15,x10,16d0 <_tls_data+0x1f0>
    16c4:	00d7f663          	bgeu	x15,x13,16d0 <_tls_data+0x1f0>
    16c8:	ffe80713          	addi	x14,x16,-2
    16cc:	00a787b3          	add	x15,x15,x10
    16d0:	01059413          	slli	x8,x11,0x10
    16d4:	40d787b3          	sub	x15,x15,x13
    16d8:	00e46433          	or	x8,x8,x14
    16dc:	00f037b3          	snez	x15,x15
    16e0:	00f46433          	or	x8,x8,x15
  FP_PACK_S (r, R);
    16e4:	07f98693          	addi	x13,x19,127
    16e8:	14d05e63          	blez	x13,1844 <_bsg_data_end_addr+0x24>
    16ec:	00747793          	andi	x15,x8,7
    16f0:	02078663          	beqz	x15,171c <_tls_data+0x23c>
    16f4:	00200793          	li	x15,2
    16f8:	0014e493          	ori	x9,x9,1
    16fc:	10fa0263          	beq	x20,x15,1800 <__clz_tab+0xe0>
    1700:	00300793          	li	x15,3
    1704:	0efa0863          	beq	x20,x15,17f4 <__clz_tab+0xd4>
    1708:	000a1a63          	bnez	x20,171c <_tls_data+0x23c>
    170c:	00f47793          	andi	x15,x8,15
    1710:	00400713          	li	x14,4
    1714:	00e78463          	beq	x15,x14,171c <_tls_data+0x23c>
    1718:	00440413          	addi	x8,x8,4
    171c:	00441793          	slli	x15,x8,0x4
    1720:	0007da63          	bgez	x15,1734 <__clz_tab+0x14>
    1724:	f80007b7          	lui	x15,0xf8000
    1728:	fff78793          	addi	x15,x15,-1 # f7ffffff <_end+0x76ffff9f>
    172c:	00f47433          	and	x8,x8,x15
    1730:	08098693          	addi	x13,x19,128
    1734:	0fe00793          	li	x15,254
    1738:	0cd7c863          	blt	x15,x13,1808 <__clz_tab+0xe8>
    173c:	00345413          	srli	x8,x8,0x3
    1740:	00068793          	mv	x15,x13
    1744:	01779793          	slli	x15,x15,0x17
    1748:	7f800537          	lui	x10,0x7f800
    174c:	00941413          	slli	x8,x8,0x9
    1750:	00a7f533          	and	x10,x15,x10
    1754:	00945413          	srli	x8,x8,0x9
    1758:	00856433          	or	x8,x10,x8
    175c:	01f61513          	slli	x10,x12,0x1f
    1760:	00a46533          	or	x10,x8,x10
  FP_HANDLE_EXCEPTIONS;
    1764:	00048463          	beqz	x9,176c <__clz_tab+0x4c>
    1768:	0014a073          	csrs	fflags,x9
}
    176c:	02c12083          	lw	x1,44(x2)
    1770:	02812403          	lw	x8,40(x2)
    1774:	02412483          	lw	x9,36(x2)
    1778:	02012903          	lw	x18,32(x2)
    177c:	01c12983          	lw	x19,28(x2)
    1780:	01812a03          	lw	x20,24(x2)
    1784:	01412a83          	lw	x21,20(x2)
    1788:	01012b03          	lw	x22,16(x2)
    178c:	00c12b83          	lw	x23,12(x2)
    1790:	03010113          	addi	x2,x2,48
    1794:	00008067          	ret
  FP_DIV_S (R, A, B);
    1798:	01f91693          	slli	x13,x18,0x1f
    179c:	00195913          	srli	x18,x18,0x1
    17a0:	eb5ff06f          	j	1654 <_tls_data+0x174>
  FP_UNPACK_S (A, a);
    17a4:	000a8613          	mv	x12,x21
  FP_DIV_S (R, A, B);
    17a8:	00090413          	mv	x8,x18
    17ac:	000b8713          	mv	x14,x23
  FP_PACK_S (r, R);
    17b0:	00300793          	li	x15,3
    17b4:	20f70263          	beq	x14,x15,19b8 <_bsg_data_end_addr+0x198>
    17b8:	00100793          	li	x15,1
    17bc:	1ef70a63          	beq	x14,x15,19b0 <_bsg_data_end_addr+0x190>
    17c0:	00200793          	li	x15,2
    17c4:	f2f710e3          	bne	x14,x15,16e4 <_tls_data+0x204>
    17c8:	0100006f          	j	17d8 <__clz_tab+0xb8>
  FP_UNPACK_S (B, b);
    17cc:	000b0613          	mv	x12,x22
  FP_DIV_S (R, A, B);
    17d0:	fe1ff06f          	j	17b0 <__clz_tab+0x90>
    17d4:	0084e493          	ori	x9,x9,8
  FP_PACK_S (r, R);
    17d8:	00000413          	li	x8,0
    17dc:	0ff00793          	li	x15,255
    17e0:	f65ff06f          	j	1744 <__clz_tab+0x24>
  FP_DIV_S (R, A, B);
    17e4:	00400437          	lui	x8,0x400
    17e8:	00000613          	li	x12,0
    17ec:	00300713          	li	x14,3
    17f0:	fc1ff06f          	j	17b0 <__clz_tab+0x90>
  FP_PACK_S (r, R);
    17f4:	f20614e3          	bnez	x12,171c <_tls_data+0x23c>
    17f8:	00840413          	addi	x8,x8,8 # 400008 <_bsg_elf_vcache_size+0x3e0008>
    17fc:	f21ff06f          	j	171c <_tls_data+0x23c>
    1800:	f0060ee3          	beqz	x12,171c <_tls_data+0x23c>
    1804:	ff5ff06f          	j	17f8 <__clz_tab+0xd8>
    1808:	00200793          	li	x15,2
    180c:	02fa0863          	beq	x20,x15,183c <_bsg_data_end_addr+0x1c>
    1810:	00300793          	li	x15,3
    1814:	00fa0a63          	beq	x20,x15,1828 <_bsg_data_end_addr+0x8>
    1818:	000a1a63          	bnez	x20,182c <_bsg_data_end_addr+0xc>
    181c:	00000413          	li	x8,0
    1820:	0ff00793          	li	x15,255
    1824:	0100006f          	j	1834 <_bsg_data_end_addr+0x14>
    1828:	fe060ae3          	beqz	x12,181c <__clz_tab+0xfc>
    182c:	fff00413          	li	x8,-1
    1830:	0fe00793          	li	x15,254
    1834:	0054e493          	ori	x9,x9,5
    1838:	f0dff06f          	j	1744 <__clz_tab+0x24>
    183c:	fe0610e3          	bnez	x12,181c <__clz_tab+0xfc>
    1840:	fedff06f          	j	182c <_bsg_data_end_addr+0xc>
    1844:	00100793          	li	x15,1
    1848:	04069463          	bnez	x13,1890 <_bsg_data_end_addr+0x70>
    184c:	00747713          	andi	x14,x8,7
    1850:	00040793          	mv	x15,x8
    1854:	02070863          	beqz	x14,1884 <_bsg_data_end_addr+0x64>
    1858:	00200793          	li	x15,2
    185c:	0014e493          	ori	x9,x9,1
    1860:	0afa0863          	beq	x20,x15,1910 <_bsg_data_end_addr+0xf0>
    1864:	00300793          	li	x15,3
    1868:	08fa0c63          	beq	x20,x15,1900 <_bsg_data_end_addr+0xe0>
    186c:	00040793          	mv	x15,x8
    1870:	000a1a63          	bnez	x20,1884 <_bsg_data_end_addr+0x64>
    1874:	00f47713          	andi	x14,x8,15
    1878:	00400593          	li	x11,4
    187c:	00b70463          	beq	x14,x11,1884 <_bsg_data_end_addr+0x64>
    1880:	00440793          	addi	x15,x8,4
    1884:	01b7d793          	srli	x15,x15,0x1b
    1888:	0017c793          	xori	x15,x15,1
    188c:	0017f793          	andi	x15,x15,1
    1890:	00100713          	li	x14,1
    1894:	40d70733          	sub	x14,x14,x13
    1898:	01b00693          	li	x13,27
    189c:	0ae6c863          	blt	x13,x14,194c <_bsg_data_end_addr+0x12c>
    18a0:	09e98993          	addi	x19,x19,158
    18a4:	00e45733          	srl	x14,x8,x14
    18a8:	01341433          	sll	x8,x8,x19
    18ac:	00803433          	snez	x8,x8
    18b0:	00876433          	or	x8,x14,x8
    18b4:	00747713          	andi	x14,x8,7
    18b8:	02070663          	beqz	x14,18e4 <_bsg_data_end_addr+0xc4>
    18bc:	00200713          	li	x14,2
    18c0:	0014e493          	ori	x9,x9,1
    18c4:	06ea0263          	beq	x20,x14,1928 <_bsg_data_end_addr+0x108>
    18c8:	00300713          	li	x14,3
    18cc:	04ea0863          	beq	x20,x14,191c <_bsg_data_end_addr+0xfc>
    18d0:	000a1a63          	bnez	x20,18e4 <_bsg_data_end_addr+0xc4>
    18d4:	00f47713          	andi	x14,x8,15
    18d8:	00400693          	li	x13,4
    18dc:	00d70463          	beq	x14,x13,18e4 <_bsg_data_end_addr+0xc4>
    18e0:	00440413          	addi	x8,x8,4
    18e4:	00541713          	slli	x14,x8,0x5
    18e8:	04075463          	bgez	x14,1930 <_bsg_data_end_addr+0x110>
    18ec:	0014e493          	ori	x9,x9,1
    18f0:	00000413          	li	x8,0
    18f4:	04079863          	bnez	x15,1944 <_bsg_data_end_addr+0x124>
    18f8:	00100793          	li	x15,1
    18fc:	e49ff06f          	j	1744 <__clz_tab+0x24>
    1900:	00040793          	mv	x15,x8
    1904:	f80610e3          	bnez	x12,1884 <_bsg_data_end_addr+0x64>
    1908:	00840793          	addi	x15,x8,8
    190c:	f79ff06f          	j	1884 <_bsg_data_end_addr+0x64>
    1910:	00040793          	mv	x15,x8
    1914:	f60608e3          	beqz	x12,1884 <_bsg_data_end_addr+0x64>
    1918:	ff1ff06f          	j	1908 <_bsg_data_end_addr+0xe8>
    191c:	fc0614e3          	bnez	x12,18e4 <_bsg_data_end_addr+0xc4>
    1920:	00840413          	addi	x8,x8,8
    1924:	fc1ff06f          	j	18e4 <_bsg_data_end_addr+0xc4>
    1928:	fa060ee3          	beqz	x12,18e4 <_bsg_data_end_addr+0xc4>
    192c:	ff5ff06f          	j	1920 <_bsg_data_end_addr+0x100>
    1930:	00345413          	srli	x8,x8,0x3
    1934:	e00788e3          	beqz	x15,1744 <__clz_tab+0x24>
    1938:	0014f793          	andi	x15,x9,1
    193c:	e00784e3          	beqz	x15,1744 <__clz_tab+0x24>
    1940:	00000793          	li	x15,0
    1944:	0024e493          	ori	x9,x9,2
    1948:	dfdff06f          	j	1744 <__clz_tab+0x24>
    194c:	02040463          	beqz	x8,1974 <_bsg_data_end_addr+0x154>
    1950:	00200793          	li	x15,2
    1954:	0014e493          	ori	x9,x9,1
    1958:	02fa0c63          	beq	x20,x15,1990 <_bsg_data_end_addr+0x170>
    195c:	00300793          	li	x15,3
    1960:	02fa0063          	beq	x20,x15,1980 <_bsg_data_end_addr+0x160>
    1964:	00100413          	li	x8,1
    1968:	000a1463          	bnez	x20,1970 <_bsg_data_end_addr+0x150>
    196c:	00500413          	li	x8,5
    1970:	00345413          	srli	x8,x8,0x3
    1974:	0024e493          	ori	x9,x9,2
    1978:	00000793          	li	x15,0
    197c:	dc9ff06f          	j	1744 <__clz_tab+0x24>
    1980:	00900413          	li	x8,9
    1984:	fe0606e3          	beqz	x12,1970 <_bsg_data_end_addr+0x150>
    1988:	00100413          	li	x8,1
    198c:	fe5ff06f          	j	1970 <_bsg_data_end_addr+0x150>
    1990:	00900413          	li	x8,9
    1994:	fc061ee3          	bnez	x12,1970 <_bsg_data_end_addr+0x150>
    1998:	ff1ff06f          	j	1988 <_bsg_data_end_addr+0x168>
    199c:	00400437          	lui	x8,0x400
    19a0:	0ff00793          	li	x15,255
    19a4:	00000613          	li	x12,0
  FP_DIV_S (R, A, B);
    19a8:	01000493          	li	x9,16
    19ac:	d99ff06f          	j	1744 <__clz_tab+0x24>
  FP_PACK_S (r, R);
    19b0:	00000413          	li	x8,0
    19b4:	fc5ff06f          	j	1978 <_bsg_data_end_addr+0x158>
    19b8:	00400437          	lui	x8,0x400
    19bc:	0ff00793          	li	x15,255
    19c0:	00000613          	li	x12,0
    19c4:	d81ff06f          	j	1744 <__clz_tab+0x24>

000019c8 <__extendsfdf2>:
#include "single.h"
#include "double.h"

DFtype
__extendsfdf2 (SFtype a)
{
    19c8:	ff010113          	addi	x2,x2,-16
    19cc:	00112623          	sw	x1,12(x2)
    19d0:	00812423          	sw	x8,8(x2)
    19d4:	00912223          	sw	x9,4(x2)
    19d8:	01212023          	sw	x18,0(x2)
  FP_DECL_EX;
  FP_DECL_S (A);
  FP_DECL_D (R);
  DFtype r;

  FP_INIT_EXCEPTIONS;
    19dc:	002027f3          	frrm	x15
  FP_UNPACK_RAW_S (A, a);
    19e0:	01755793          	srli	x15,x10,0x17
    19e4:	0ff7f793          	andi	x15,x15,255
#if _FP_W_TYPE_SIZE < _FP_FRACBITS_D
  FP_EXTEND (D, S, 2, 1, R, A);
    19e8:	00178913          	addi	x18,x15,1
  FP_UNPACK_RAW_S (A, a);
    19ec:	00951413          	slli	x8,x10,0x9
  FP_EXTEND (D, S, 2, 1, R, A);
    19f0:	0fe97913          	andi	x18,x18,254
  FP_UNPACK_RAW_S (A, a);
    19f4:	00945413          	srli	x8,x8,0x9
    19f8:	01f55493          	srli	x9,x10,0x1f
  FP_EXTEND (D, S, 2, 1, R, A);
    19fc:	04090a63          	beqz	x18,1a50 <__extendsfdf2+0x88>
    1a00:	38078513          	addi	x10,x15,896
  FP_DECL_EX;
    1a04:	00000913          	li	x18,0
  FP_EXTEND (D, S, 2, 1, R, A);
    1a08:	00345793          	srli	x15,x8,0x3
    1a0c:	01d41413          	slli	x8,x8,0x1d
#else
  FP_EXTEND (D, S, 1, 1, R, A);
#endif
  FP_PACK_RAW_D (r, R);
    1a10:	00c79793          	slli	x15,x15,0xc
    1a14:	01451513          	slli	x10,x10,0x14
    1a18:	00c7d793          	srli	x15,x15,0xc
    1a1c:	00f567b3          	or	x15,x10,x15
    1a20:	01f49513          	slli	x10,x9,0x1f
    1a24:	00a7e733          	or	x14,x15,x10
    1a28:	00070593          	mv	x11,x14
    1a2c:	00040513          	mv	x10,x8
  FP_HANDLE_EXCEPTIONS;
    1a30:	00090463          	beqz	x18,1a38 <__extendsfdf2+0x70>
    1a34:	00192073          	csrs	fflags,x18

  return r;
}
    1a38:	00c12083          	lw	x1,12(x2)
    1a3c:	00812403          	lw	x8,8(x2)
    1a40:	00412483          	lw	x9,4(x2)
    1a44:	00012903          	lw	x18,0(x2)
    1a48:	01010113          	addi	x2,x2,16
    1a4c:	00008067          	ret
  FP_EXTEND (D, S, 2, 1, R, A);
    1a50:	04079463          	bnez	x15,1a98 <__extendsfdf2+0xd0>
    1a54:	06040863          	beqz	x8,1ac4 <__extendsfdf2+0xfc>
    1a58:	00040513          	mv	x10,x8
    1a5c:	350000ef          	jal	x1,1dac <__clzsi2>
    1a60:	00a00793          	li	x15,10
    1a64:	02a7c263          	blt	x15,x10,1a88 <__extendsfdf2+0xc0>
    1a68:	00b00793          	li	x15,11
    1a6c:	40a787b3          	sub	x15,x15,x10
    1a70:	01550713          	addi	x14,x10,21 # 7f800015 <_bsg_elf_vcache_size+0x7f7e0015>
    1a74:	00f457b3          	srl	x15,x8,x15
    1a78:	00e41433          	sll	x8,x8,x14
    1a7c:	38900713          	li	x14,905
    1a80:	40a70533          	sub	x10,x14,x10
    1a84:	f8dff06f          	j	1a10 <__extendsfdf2+0x48>
    1a88:	ff550793          	addi	x15,x10,-11
    1a8c:	00f417b3          	sll	x15,x8,x15
    1a90:	00000413          	li	x8,0
    1a94:	fe9ff06f          	j	1a7c <__extendsfdf2+0xb4>
    1a98:	00000793          	li	x15,0
    1a9c:	02040063          	beqz	x8,1abc <__extendsfdf2+0xf4>
    1aa0:	00941793          	slli	x15,x8,0x9
    1aa4:	0007c463          	bltz	x15,1aac <__extendsfdf2+0xe4>
    1aa8:	01000913          	li	x18,16
    1aac:	00345793          	srli	x15,x8,0x3
    1ab0:	00080737          	lui	x14,0x80
    1ab4:	01d41413          	slli	x8,x8,0x1d
    1ab8:	00e7e7b3          	or	x15,x15,x14
    1abc:	7ff00513          	li	x10,2047
    1ac0:	f51ff06f          	j	1a10 <__extendsfdf2+0x48>
    1ac4:	00000793          	li	x15,0
    1ac8:	00000513          	li	x10,0
    1acc:	f45ff06f          	j	1a10 <__extendsfdf2+0x48>

00001ad0 <__truncdfsf2>:
  FP_DECL_EX;
  FP_DECL_D (A);
  FP_DECL_S (R);
  SFtype r;

  FP_INIT_ROUNDMODE;
    1ad0:	00202673          	frrm	x12
  FP_UNPACK_SEMIRAW_D (A, a);
    1ad4:	00c59713          	slli	x14,x11,0xc
    1ad8:	0145d813          	srli	x16,x11,0x14
    1adc:	00c75713          	srli	x14,x14,0xc
    1ae0:	7ff87813          	andi	x16,x16,2047
    1ae4:	00371693          	slli	x13,x14,0x3
#if _FP_W_TYPE_SIZE < _FP_FRACBITS_D
  FP_TRUNC (S, D, 1, 2, R, A);
    1ae8:	00180713          	addi	x14,x16,1
  FP_UNPACK_SEMIRAW_D (A, a);
    1aec:	01d55793          	srli	x15,x10,0x1d
  FP_TRUNC (S, D, 1, 2, R, A);
    1af0:	7fe77713          	andi	x14,x14,2046
  FP_UNPACK_SEMIRAW_D (A, a);
    1af4:	00d7e6b3          	or	x13,x15,x13
    1af8:	01f5d593          	srli	x11,x11,0x1f
    1afc:	00351793          	slli	x15,x10,0x3
  FP_TRUNC (S, D, 1, 2, R, A);
    1b00:	1c070a63          	beqz	x14,1cd4 <_gp+0xac>
    1b04:	c8080313          	addi	x6,x16,-896
    1b08:	0fe00713          	li	x14,254
    1b0c:	0c675a63          	bge	x14,x6,1be0 <__truncdfsf2+0x110>
    1b10:	06060063          	beqz	x12,1b70 <__truncdfsf2+0xa0>
    1b14:	00300793          	li	x15,3
    1b18:	04f61663          	bne	x12,x15,1b64 <__truncdfsf2+0x94>
    1b1c:	04058a63          	beqz	x11,1b70 <__truncdfsf2+0xa0>
    1b20:	fff00793          	li	x15,-1
    1b24:	0fe00313          	li	x6,254
#else
  FP_TRUNC (S, D, 1, 1, R, A);
#endif
  FP_PACK_SEMIRAW_S (r, R);
    1b28:	00000713          	li	x14,0
  FP_TRUNC (S, D, 1, 2, R, A);
    1b2c:	00500893          	li	x17,5
  FP_PACK_SEMIRAW_S (r, R);
    1b30:	00200693          	li	x13,2
    1b34:	0018e893          	ori	x17,x17,1
    1b38:	22d60a63          	beq	x12,x13,1d6c <_gp+0x144>
    1b3c:	00300693          	li	x13,3
    1b40:	22d60063          	beq	x12,x13,1d60 <_gp+0x138>
    1b44:	00061a63          	bnez	x12,1b58 <__truncdfsf2+0x88>
    1b48:	00f7f693          	andi	x13,x15,15
    1b4c:	00400513          	li	x10,4
    1b50:	00a68463          	beq	x13,x10,1b58 <__truncdfsf2+0x88>
    1b54:	00478793          	addi	x15,x15,4
    1b58:	02070263          	beqz	x14,1b7c <__truncdfsf2+0xac>
    1b5c:	0028e893          	ori	x17,x17,2
    1b60:	01c0006f          	j	1b7c <__truncdfsf2+0xac>
  FP_TRUNC (S, D, 1, 2, R, A);
    1b64:	00200793          	li	x15,2
    1b68:	faf61ce3          	bne	x12,x15,1b20 <__truncdfsf2+0x50>
    1b6c:	fa058ae3          	beqz	x11,1b20 <__truncdfsf2+0x50>
    1b70:	00000793          	li	x15,0
    1b74:	0ff00313          	li	x6,255
    1b78:	00500893          	li	x17,5
  FP_PACK_SEMIRAW_S (r, R);
    1b7c:	00579713          	slli	x14,x15,0x5
    1b80:	00075e63          	bgez	x14,1b9c <__truncdfsf2+0xcc>
    1b84:	00130313          	addi	x6,x6,1
    1b88:	0ff00713          	li	x14,255
    1b8c:	1ee30463          	beq	x6,x14,1d74 <_gp+0x14c>
    1b90:	fc000737          	lui	x14,0xfc000
    1b94:	fff70713          	addi	x14,x14,-1 # fbffffff <_end+0x7affff9f>
    1b98:	00e7f7b3          	and	x15,x15,x14
    1b9c:	0ff00713          	li	x14,255
    1ba0:	0037d793          	srli	x15,x15,0x3
    1ba4:	00e31863          	bne	x6,x14,1bb4 <__truncdfsf2+0xe4>
    1ba8:	00078663          	beqz	x15,1bb4 <__truncdfsf2+0xe4>
    1bac:	004007b7          	lui	x15,0x400
    1bb0:	00000593          	li	x11,0
    1bb4:	01731513          	slli	x10,x6,0x17
    1bb8:	7f800737          	lui	x14,0x7f800
    1bbc:	00979793          	slli	x15,x15,0x9
    1bc0:	00e57533          	and	x10,x10,x14
    1bc4:	0097d793          	srli	x15,x15,0x9
    1bc8:	00f56533          	or	x10,x10,x15
    1bcc:	01f59593          	slli	x11,x11,0x1f
    1bd0:	00b56533          	or	x10,x10,x11
  FP_HANDLE_EXCEPTIONS;
    1bd4:	1c088a63          	beqz	x17,1da8 <_gp+0x180>
    1bd8:	0018a073          	csrs	fflags,x17

  return r;
    1bdc:	00008067          	ret
  FP_TRUNC (S, D, 1, 2, R, A);
    1be0:	0c604063          	bgtz	x6,1ca0 <_gp+0x78>
    1be4:	fe900713          	li	x14,-23
    1be8:	12e34863          	blt	x6,x14,1d18 <_gp+0xf0>
    1bec:	00800737          	lui	x14,0x800
    1bf0:	01e00893          	li	x17,30
    1bf4:	00e6e6b3          	or	x13,x13,x14
    1bf8:	406888b3          	sub	x17,x17,x6
    1bfc:	01f00713          	li	x14,31
    1c00:	07174863          	blt	x14,x17,1c70 <_gp+0x48>
    1c04:	c8280813          	addi	x16,x16,-894
    1c08:	0117d8b3          	srl	x17,x15,x17
    1c0c:	010797b3          	sll	x15,x15,x16
    1c10:	00f037b3          	snez	x15,x15
    1c14:	010696b3          	sll	x13,x13,x16
    1c18:	00d7e6b3          	or	x13,x15,x13
    1c1c:	00d8e7b3          	or	x15,x17,x13
  FP_PACK_SEMIRAW_S (r, R);
    1c20:	12078a63          	beqz	x15,1d54 <_gp+0x12c>
    1c24:	00179713          	slli	x14,x15,0x1
    1c28:	00777693          	andi	x13,x14,7
    1c2c:	00000893          	li	x17,0
    1c30:	02068663          	beqz	x13,1c5c <_gp+0x34>
    1c34:	00200693          	li	x13,2
    1c38:	0ed60e63          	beq	x12,x13,1d34 <_gp+0x10c>
    1c3c:	00300693          	li	x13,3
    1c40:	0ed60063          	beq	x12,x13,1d20 <_gp+0xf8>
    1c44:	00100893          	li	x17,1
    1c48:	00061a63          	bnez	x12,1c5c <_gp+0x34>
    1c4c:	00f77693          	andi	x13,x14,15
    1c50:	00400513          	li	x10,4
    1c54:	00a68463          	beq	x13,x10,1c5c <_gp+0x34>
    1c58:	00470713          	addi	x14,x14,4 # 800004 <_bsg_elf_vcache_size+0x7e0004>
    1c5c:	01b75713          	srli	x14,x14,0x1b
    1c60:	00174713          	xori	x14,x14,1
    1c64:	00177713          	andi	x14,x14,1
    1c68:	00000313          	li	x6,0
    1c6c:	0540006f          	j	1cc0 <_gp+0x98>
  FP_TRUNC (S, D, 1, 2, R, A);
    1c70:	ffe00513          	li	x10,-2
    1c74:	40650533          	sub	x10,x10,x6
    1c78:	02000313          	li	x6,32
    1c7c:	00a6d533          	srl	x10,x13,x10
    1c80:	00000713          	li	x14,0
    1c84:	00688663          	beq	x17,x6,1c90 <_gp+0x68>
    1c88:	ca280813          	addi	x16,x16,-862
    1c8c:	01069733          	sll	x14,x13,x16
    1c90:	00f767b3          	or	x15,x14,x15
    1c94:	00f037b3          	snez	x15,x15
    1c98:	00f567b3          	or	x15,x10,x15
    1c9c:	f85ff06f          	j	1c20 <__truncdfsf2+0x150>
    1ca0:	00651513          	slli	x10,x10,0x6
    1ca4:	00a03533          	snez	x10,x10
    1ca8:	00369693          	slli	x13,x13,0x3
    1cac:	01d7d793          	srli	x15,x15,0x1d
    1cb0:	00d566b3          	or	x13,x10,x13
    1cb4:	00f6e7b3          	or	x15,x13,x15
  FP_PACK_SEMIRAW_S (r, R);
    1cb8:	00000713          	li	x14,0
  FP_DECL_EX;
    1cbc:	00000893          	li	x17,0
  FP_PACK_SEMIRAW_S (r, R);
    1cc0:	0077f693          	andi	x13,x15,7
    1cc4:	e60696e3          	bnez	x13,1b30 <__truncdfsf2+0x60>
    1cc8:	ea070ae3          	beqz	x14,1b7c <__truncdfsf2+0xac>
    1ccc:	0018f713          	andi	x14,x17,1
    1cd0:	e89ff06f          	j	1b58 <__truncdfsf2+0x88>
  FP_TRUNC (S, D, 1, 2, R, A);
    1cd4:	00f6e7b3          	or	x15,x13,x15
    1cd8:	00081663          	bnez	x16,1ce4 <_gp+0xbc>
    1cdc:	00f037b3          	snez	x15,x15
    1ce0:	f41ff06f          	j	1c20 <__truncdfsf2+0x150>
    1ce4:	06078263          	beqz	x15,1d48 <_gp+0x120>
    1ce8:	7ff00793          	li	x15,2047
  FP_DECL_EX;
    1cec:	00000893          	li	x17,0
  FP_TRUNC (S, D, 1, 2, R, A);
    1cf0:	00f81a63          	bne	x16,x15,1d04 <_gp+0xdc>
    1cf4:	004008b7          	lui	x17,0x400
    1cf8:	0116f8b3          	and	x17,x13,x17
  FP_DECL_EX;
    1cfc:	0018b893          	seqz	x17,x17
    1d00:	00489893          	slli	x17,x17,0x4
  FP_TRUNC (S, D, 1, 2, R, A);
    1d04:	00369693          	slli	x13,x13,0x3
    1d08:	020007b7          	lui	x15,0x2000
    1d0c:	00f6e7b3          	or	x15,x13,x15
    1d10:	0ff00313          	li	x6,255
    1d14:	fadff06f          	j	1cc0 <_gp+0x98>
    1d18:	00100793          	li	x15,1
    1d1c:	f09ff06f          	j	1c24 <__truncdfsf2+0x154>
  FP_PACK_SEMIRAW_S (r, R);
    1d20:	00058893          	mv	x17,x11
    1d24:	f2059ce3          	bnez	x11,1c5c <_gp+0x34>
    1d28:	00870713          	addi	x14,x14,8
    1d2c:	00100893          	li	x17,1
    1d30:	f2dff06f          	j	1c5c <_gp+0x34>
    1d34:	00100893          	li	x17,1
    1d38:	f20582e3          	beqz	x11,1c5c <_gp+0x34>
    1d3c:	00870713          	addi	x14,x14,8
    1d40:	00058893          	mv	x17,x11
    1d44:	f19ff06f          	j	1c5c <_gp+0x34>
  FP_DECL_EX;
    1d48:	00000893          	li	x17,0
  FP_TRUNC (S, D, 1, 2, R, A);
    1d4c:	0ff00313          	li	x6,255
    1d50:	e2dff06f          	j	1b7c <__truncdfsf2+0xac>
    1d54:	00000313          	li	x6,0
    1d58:	00000893          	li	x17,0
    1d5c:	e21ff06f          	j	1b7c <__truncdfsf2+0xac>
  FP_PACK_SEMIRAW_S (r, R);
    1d60:	de059ce3          	bnez	x11,1b58 <__truncdfsf2+0x88>
    1d64:	00878793          	addi	x15,x15,8 # 2000008 <_bsg_elf_vcache_size+0x1fe0008>
    1d68:	df1ff06f          	j	1b58 <__truncdfsf2+0x88>
    1d6c:	de0586e3          	beqz	x11,1b58 <__truncdfsf2+0x88>
    1d70:	ff5ff06f          	j	1d64 <_gp+0x13c>
    1d74:	00000793          	li	x15,0
    1d78:	02060463          	beqz	x12,1da0 <_gp+0x178>
    1d7c:	00300713          	li	x14,3
    1d80:	00e61a63          	bne	x12,x14,1d94 <_gp+0x16c>
    1d84:	00058e63          	beqz	x11,1da0 <_gp+0x178>
    1d88:	fff00793          	li	x15,-1
    1d8c:	0fe00313          	li	x6,254
    1d90:	0100006f          	j	1da0 <_gp+0x178>
    1d94:	00200713          	li	x14,2
    1d98:	fee618e3          	bne	x12,x14,1d88 <_gp+0x160>
    1d9c:	fe0586e3          	beqz	x11,1d88 <_gp+0x160>
    1da0:	0058e893          	ori	x17,x17,5
    1da4:	df9ff06f          	j	1b9c <__truncdfsf2+0xcc>
}
    1da8:	00008067          	ret

00001dac <__clzsi2>:
int
__clzSI2 (UWtype x)
{
  Wtype ret;

  count_leading_zeros (ret, x);
    1dac:	000107b7          	lui	x15,0x10
    1db0:	02f57a63          	bgeu	x10,x15,1de4 <__clzsi2+0x38>
    1db4:	0ff00793          	li	x15,255
    1db8:	00a7b7b3          	sltu	x15,x15,x10
    1dbc:	00379793          	slli	x15,x15,0x3
    1dc0:	00001737          	lui	x14,0x1
    1dc4:	02000693          	li	x13,32
    1dc8:	40f686b3          	sub	x13,x13,x15
    1dcc:	00f55533          	srl	x10,x10,x15
    1dd0:	72070793          	addi	x15,x14,1824 # 1720 <__clz_tab>
    1dd4:	00a78533          	add	x10,x15,x10
    1dd8:	00054503          	lbu	x10,0(x10)

  return ret;
}
    1ddc:	40a68533          	sub	x10,x13,x10
    1de0:	00008067          	ret
  count_leading_zeros (ret, x);
    1de4:	01000737          	lui	x14,0x1000
    1de8:	01000793          	li	x15,16
    1dec:	fce56ae3          	bltu	x10,x14,1dc0 <__clzsi2+0x14>
    1df0:	01800793          	li	x15,24
    1df4:	fcdff06f          	j	1dc0 <__clzsi2+0x14>

00001df8 <__errno>:
    1df8:	000017b7          	lui	x15,0x1
    1dfc:	4c47a503          	lw	x10,1220(x15) # 14c4 <_impure_ptr>
    1e00:	00008067          	ret

00001e04 <main>:
    1e04:	fffff297          	auipc	x5,0xfffff
    1e08:	6c42a283          	lw	x5,1732(x5) # 14c8 <cuda_kernel_not_loaded_val>
    1e0c:	fffff417          	auipc	x8,0xfffff
    1e10:	6d040413          	addi	x8,x8,1744 # 14dc <cuda_kernel_ptr>
    1e14:	1004232f          	lr.w	x6,(x8)
    1e18:	00629463          	bne	x5,x6,1e20 <__init_param>
    1e1c:	140422af          	lr.w.aq	x5,(x8)

00001e20 <__init_param>:
    1e20:	fffff297          	auipc	x5,0xfffff
    1e24:	6bc28293          	addi	x5,x5,1724 # 14dc <cuda_kernel_ptr>
    1e28:	0002a483          	lw	x9,0(x5)
    1e2c:	fffff297          	auipc	x5,0xfffff
    1e30:	6ac28293          	addi	x5,x5,1708 # 14d8 <cuda_argc>
    1e34:	0002a903          	lw	x18,0(x5)
    1e38:	fffff297          	auipc	x5,0xfffff
    1e3c:	69c28293          	addi	x5,x5,1692 # 14d4 <cuda_argv_ptr>
    1e40:	0002a983          	lw	x19,0(x5)
    1e44:	fffff297          	auipc	x5,0xfffff
    1e48:	68c28293          	addi	x5,x5,1676 # 14d0 <cuda_finish_signal_addr>
    1e4c:	0002aa03          	lw	x20,0(x5)

00001e50 <__load_argument>:
    1e50:	0009a503          	lw	x10,0(x19)
    1e54:	0049a583          	lw	x11,4(x19)
    1e58:	0089a603          	lw	x12,8(x19)
    1e5c:	00c9a683          	lw	x13,12(x19)
    1e60:	0109a703          	lw	x14,16(x19)
    1e64:	0149a783          	lw	x15,20(x19)
    1e68:	0189a803          	lw	x16,24(x19)
    1e6c:	01c9a883          	lw	x17,28(x19)
    1e70:	00800293          	li	x5,8
    1e74:	0322de63          	bge	x5,x18,1eb0 <__invoke_kernel>
    1e78:	ff890293          	addi	x5,x18,-8
    1e7c:	00229293          	slli	x5,x5,0x2
    1e80:	40510133          	sub	x2,x2,x5
    1e84:	00800293          	li	x5,8
    1e88:	02000313          	li	x6,32
    1e8c:	00000e13          	li	x28,0

00001e90 <__load_stack>:
    1e90:	013303b3          	add	x7,x6,x19
    1e94:	0003ae83          	lw	x29,0(x7)
    1e98:	002e0f33          	add	x30,x28,x2
    1e9c:	01df2023          	sw	x29,0(x30)
    1ea0:	00128293          	addi	x5,x5,1
    1ea4:	00430313          	addi	x6,x6,4
    1ea8:	004e0e13          	addi	x28,x28,4
    1eac:	ff22c2e3          	blt	x5,x18,1e90 <__load_stack>

00001eb0 <__invoke_kernel>:
    1eb0:	000480e7          	jalr	x9 # 1000 <_bsg_data_start_addr>
    1eb4:	00800293          	li	x5,8
    1eb8:	0122d863          	bge	x5,x18,1ec8 <__kernel_return>
    1ebc:	ff890293          	addi	x5,x18,-8
    1ec0:	00229293          	slli	x5,x5,0x2
    1ec4:	00510133          	add	x2,x2,x5

00001ec8 <__kernel_return>:
    1ec8:	fffff297          	auipc	x5,0xfffff
    1ecc:	6002a283          	lw	x5,1536(x5) # 14c8 <cuda_kernel_not_loaded_val>
    1ed0:	00542023          	sw	x5,0(x8)
    1ed4:	000017b7          	lui	x15,0x1
    1ed8:	4a47a783          	lw	x15,1188(x15) # 14a4 <finitef>
    1edc:	00079c63          	bnez	x15,1ef4 <__kernel_return+0x2c>
    1ee0:	000017b7          	lui	x15,0x1
    1ee4:	00001737          	lui	x14,0x1
    1ee8:	4d07a783          	lw	x15,1232(x15) # 14d0 <cuda_finish_signal_addr>
    1eec:	4cc72703          	lw	x14,1228(x14) # 14cc <cuda_finish_signal_val>
    1ef0:	00e7a023          	sw	x14,0(x15)
    1ef4:	f11ff06f          	j	1e04 <main>
    1ef8:	00000513          	li	x10,0
    1efc:	00008067          	ret

Disassembly of section .data.dram:

81000000 <_bsg_dram_d_start_addr>:
81000000:	3130                	fld	f12,96(x10)
81000002:	3332                	fld	f6,296(x2)
81000004:	3534                	fld	f13,104(x10)
81000006:	3736                	fld	f14,360(x2)
81000008:	3938                	fld	f14,112(x10)
8100000a:	6261                	lui	x4,0x18
8100000c:	66656463          	bltu	x10,x6,81000674 <_bsg_dram_d_end_addr+0x614>
81000010:	6a696867          	0x6a696867
81000014:	6e6d6c6b          	0x6e6d6c6b
81000018:	7271706f          	j	81017f3e <_bsg_dram_d_end_addr+0x17ede>
8100001c:	76757473          	csrrci	x8,0x767,10
81000020:	7a797877          	0x7a797877
81000024:	0000                	unimp
81000026:	0000                	unimp
81000028:	3130                	fld	f12,96(x10)
8100002a:	3332                	fld	f6,296(x2)
8100002c:	3534                	fld	f13,104(x10)
8100002e:	3736                	fld	f14,360(x2)
81000030:	3938                	fld	f14,112(x10)
81000032:	4241                	li	x4,16
81000034:	46454443          	fmadd.q	f8,f10,f4,f8,rmm
81000038:	4a494847          	fmsub.d	f16,f18,f4,f9,rmm
8100003c:	4e4d4c4b          	fnmsub.q	f24,f26,f4,f9,rmm
81000040:	5251504f          	fnmadd.d	f0,f2,f5,f10,unknown
81000044:	56555453          	0x56555453
81000048:	5a595857          	0x5a595857
8100004c:	0000                	unimp
8100004e:	0000                	unimp
81000050:	4e3c                	lw	x15,88(x12)
81000052:	4c55                	li	x24,21
81000054:	3e4c                	fld	f11,184(x12)
81000056:	0000                	unimp
81000058:	7865                	lui	x16,0xffff9
8100005a:	6670                	flw	f12,76(x12)
8100005c:	0000                	unimp
	...

Disassembly of section .comment:

00000000 <.comment>:
   0:	3a434347          	fmsub.d	f6,f6,f4,f7,rmm
   4:	2820                	fld	f8,80(x8)
   6:	29554e47          	fmsub.s	f28,f10,f21,f5,rmm
   a:	3920                	fld	f8,112(x10)
   c:	322e                	fld	f4,232(x2)
   e:	302e                	fld	f0,232(x2)
	...

Disassembly of section .riscv.attributes:

00000000 <.riscv.attributes>:
   0:	2a41                	jal	190 <bsg_set_tile_x_y+0x40>
   2:	0000                	unimp
   4:	7200                	flw	f8,32(x12)
   6:	7369                	lui	x6,0xffffa
   8:	01007663          	bgeu	x0,x16,14 <bsg_group_size+0x10>
   c:	0020                	addi	x8,x2,8
   e:	0000                	unimp
  10:	1004                	addi	x9,x2,32
  12:	7205                	lui	x4,0xfffe1
  14:	3376                	fld	f6,376(x2)
  16:	6932                	flw	f18,12(x2)
  18:	7032                	flw	f0,44(x2)
  1a:	5f30                	lw	x12,120(x14)
  1c:	326d                	jal	fffff9c6 <_end+0x7efff966>
  1e:	3070                	fld	f12,224(x8)
  20:	615f 7032 5f30      	0x5f307032615f
  26:	3266                	fld	f4,120(x2)
  28:	3070                	fld	f12,224(x8)
	...

Disassembly of section .debug_info:

00000000 <.debug_info>:
       0:	03ca                	slli	x7,x7,0x12
       2:	0000                	unimp
       4:	0004                	0x4
       6:	0000                	unimp
       8:	0000                	unimp
       a:	0104                	addi	x9,x2,128
       c:	0000                	unimp
       e:	0000                	unimp
      10:	ae0c                	fsd	f11,24(x12)
      12:	0002                	c.slli64	x0
      14:	1100                	addi	x8,x2,160
      16:	0002                	c.slli64	x0
      18:	c000                	sw	x8,0(x8)
      1a:	0014                	0x14
      1c:	0800                	addi	x8,x2,16
      1e:	0005                	c.nop	1
      20:	0000                	unimp
      22:	0000                	unimp
      24:	0200                	addi	x8,x2,256
      26:	0404                	addi	x9,x2,512
      28:	000007f7          	0x7f7
      2c:	69050403          	lb	x8,1680(x10)
      30:	746e                	flw	f8,248(x2)
      32:	0200                	addi	x8,x2,256
      34:	0601                	addi	x12,x12,0
      36:	0141                	addi	x2,x2,16
      38:	0000                	unimp
      3a:	0802                	c.slli64	x16
      3c:	fb05                	bnez	x14,ffffff6c <_end+0x7effff0c>
      3e:	0002                	c.slli64	x0
      40:	0400                	addi	x8,x2,512
      42:	000001e3          	beqz	x0,844 <bsg_printf+0x33c>
      46:	4a02                	lw	x20,0(x2)
      48:	1601                	addi	x12,x12,-32
      4a:	00000053          	fadd.s	f0,f0,f0,rne
      4e:	4105                	li	x2,1
      50:	0000                	unimp
      52:	0200                	addi	x8,x2,256
      54:	0801                	addi	x16,x16,0
      56:	0000013f 04070402 	0x40704020000013f
      5e:	0002                	c.slli64	x0
      60:	0200                	addi	x8,x2,256
      62:	0708                	addi	x10,x2,896
      64:	01fa                	slli	x3,x3,0x1e
      66:	0000                	unimp
      68:	0202                	c.slli64	x4
      6a:	00016b07          	0x16b07
      6e:	0600                	addi	x8,x2,768
      70:	004e                	c.slli	x0,0x13
      72:	0000                	unimp
      74:	007f                	0x7f
      76:	0000                	unimp
      78:	00005a07          	0x5a07
      7c:	ff00                	fsw	f8,56(x14)
      7e:	0500                	addi	x8,x2,640
      80:	0000006f          	j	80 <bsg_group_size+0x7c>
      84:	eb08                	fsw	f10,16(x14)
      86:	0001                	nop
      88:	0400                	addi	x8,x2,512
      8a:	163c                	addi	x15,x2,808
      8c:	007f                	0x7f
      8e:	0000                	unimp
      90:	3509                	jal	fffffe92 <_end+0x7efffe32>
      92:	03000003          	lb	x0,48(x0) # 30 <bsg_group_size+0x2c>
      96:	0f45                	addi	x30,x30,17
      98:	0025                	c.nop	9
      9a:	0000                	unimp
      9c:	040a                	slli	x8,x8,0x2
      9e:	d6034a03          	lbu	x20,-672(x6) # ffff9d60 <_end+0x7eff9d00>
      a2:	0000                	unimp
      a4:	0b00                	addi	x8,x2,400
      a6:	01f5                	addi	x3,x3,29
      a8:	0000                	unimp
      aa:	5a0e5103          	lhu	x2,1440(x28)
      ae:	0000                	unimp
      b0:	0400                	addi	x8,x2,512
      b2:	0c000917          	auipc	x18,0xc000
      b6:	7865                	lui	x16,0xffff9
      b8:	0070                	addi	x12,x2,12
      ba:	5a0e5203          	lhu	x4,1440(x28)
      be:	0000                	unimp
      c0:	0400                	addi	x8,x2,512
      c2:	0108                	addi	x10,x2,128
      c4:	0b00                	addi	x8,x2,400
      c6:	06ad                	addi	x13,x13,11
      c8:	0000                	unimp
      ca:	5a0e5303          	lhu	x6,1440(x28)
      ce:	0000                	unimp
      d0:	0400                	addi	x8,x2,512
      d2:	0001                	nop
      d4:	0000                	unimp
      d6:	290d                	jal	508 <bsg_printf>
      d8:	04000003          	lb	x0,64(x0) # 40 <bsg_group_size+0x3c>
      dc:	fc074703          	lbu	x14,-64(x14)
      e0:	0000                	unimp
      e2:	0e00                	addi	x8,x2,784
      e4:	6c66                	flw	f24,88(x2)
      e6:	0074                	addi	x13,x2,12
      e8:	900a4903          	lbu	x18,-1792(x20)
      ec:	0000                	unimp
      ee:	0f00                	addi	x8,x2,912
      f0:	0309                	addi	x6,x6,2
      f2:	0000                	unimp
      f4:	9c055503          	lhu	x10,-1600(x10)
      f8:	0000                	unimp
      fa:	0000                	unimp
      fc:	6210                	flw	f12,0(x12)
      fe:	0001                	nop
     100:	0100                	addi	x8,x2,128
     102:	00900123          	sb	x9,2(x0) # 2 <_start+0x2>
     106:	0000                	unimp
     108:	14c0                	addi	x8,x2,612
     10a:	0000                	unimp
     10c:	0508                	addi	x10,x2,640
     10e:	0000                	unimp
     110:	9c01                	0x9c01
     112:	000003bf 01006111 	0x1006111000003bf
     11a:	00901223          	sh	x9,4(x0) # 4 <bsg_group_size>
     11e:	0000                	unimp
     120:	0000                	unimp
     122:	0000                	unimp
     124:	6211                	lui	x4,0x4
     126:	0100                	addi	x8,x2,128
     128:	00901c23          	sh	x9,24(x0) # 18 <bsg_group_size+0x14>
     12c:	0000                	unimp
     12e:	0074                	addi	x13,x2,12
     130:	0000                	unimp
     132:	0312                	slli	x6,x6,0x4
     134:	0001                	nop
     136:	0100                	addi	x8,x2,128
     138:	0325                	addi	x6,x6,9
     13a:	002c                	addi	x11,x2,8
     13c:	0000                	unimp
     13e:	00e9                	addi	x1,x1,26
     140:	0000                	unimp
     142:	7312                	flw	f6,36(x2)
     144:	01000003          	lb	x0,16(x0) # 10 <bsg_group_size+0xc>
     148:	0325                	addi	x6,x6,9
     14a:	002c                	addi	x11,x2,8
     14c:	0000                	unimp
     14e:	015a                	slli	x2,x2,0x16
     150:	0000                	unimp
     152:	635f4113          	xori	x2,x30,1589
     156:	0100                	addi	x8,x2,128
     158:	0326                	slli	x6,x6,0x9
     15a:	000003bf 00000178 	0x178000003bf
     162:	735f4113          	xori	x2,x30,1845
     166:	0100                	addi	x8,x2,128
     168:	0326                	slli	x6,x6,0x9
     16a:	000003bf 000001b9 	0x1b9000003bf
     172:	655f4113          	xori	x2,x30,1621
     176:	0100                	addi	x8,x2,128
     178:	0326                	slli	x6,x6,0x9
     17a:	000003bf 000001e1 	0x1e1000003bf
     182:	665f4113          	xori	x2,x30,1637
     186:	0100                	addi	x8,x2,128
     188:	0326                	slli	x6,x6,0x9
     18a:	03c6                	slli	x7,x7,0x11
     18c:	0000                	unimp
     18e:	0290                	addi	x12,x2,320
     190:	0000                	unimp
     192:	635f4213          	xori	x4,x30,1589
     196:	0100                	addi	x8,x2,128
     198:	03bf0327          	0x3bf0327
     19c:	0000                	unimp
     19e:	02f5                	addi	x5,x5,29
     1a0:	0000                	unimp
     1a2:	735f4213          	xori	x4,x30,1845
     1a6:	0100                	addi	x8,x2,128
     1a8:	03bf0327          	0x3bf0327
     1ac:	0000                	unimp
     1ae:	00000363          	beqz	x0,1b4 <bsg_set_tile_x_y+0x64>
     1b2:	655f4213          	xori	x4,x30,1621
     1b6:	0100                	addi	x8,x2,128
     1b8:	03bf0327          	0x3bf0327
     1bc:	0000                	unimp
     1be:	0000039b          	0x39b
     1c2:	665f4213          	xori	x4,x30,1637
     1c6:	0100                	addi	x8,x2,128
     1c8:	03c60327          	0x3c60327
     1cc:	0000                	unimp
     1ce:	03fe                	slli	x7,x7,0x1f
     1d0:	0000                	unimp
     1d2:	635f5213          	0x635f5213
     1d6:	0100                	addi	x8,x2,128
     1d8:	0328                	addi	x10,x2,392
     1da:	000003bf 00000545 	0x545000003bf
     1e2:	735f5213          	0x735f5213
     1e6:	0100                	addi	x8,x2,128
     1e8:	0328                	addi	x10,x2,392
     1ea:	000003bf 00000591 	0x591000003bf
     1f2:	655f5213          	0x655f5213
     1f6:	0100                	addi	x8,x2,128
     1f8:	0328                	addi	x10,x2,392
     1fa:	000003bf 00000653 	0x653000003bf
     202:	665f5213          	0x665f5213
     206:	0100                	addi	x8,x2,128
     208:	0328                	addi	x10,x2,392
     20a:	03c6                	slli	x7,x7,0x11
     20c:	0000                	unimp
     20e:	070e                	slli	x14,x14,0x3
     210:	0000                	unimp
     212:	01007213          	andi	x4,x0,16
     216:	0a29                	addi	x20,x20,10
     218:	0090                	addi	x12,x2,64
     21a:	0000                	unimp
     21c:	07f0                	addi	x12,x2,972
     21e:	0000                	unimp
     220:	0014                	0x14
     222:	0000                	unimp
     224:	3600                	fld	f8,40(x12)
     226:	0002                	c.slli64	x0
     228:	1500                	addi	x8,x2,672
     22a:	014d                	addi	x2,x2,19
     22c:	0000                	unimp
     22e:	2c01                	jal	43e <number+0x1ea>
     230:	0000d603          	lhu	x12,0(x1)
     234:	0000                	unimp
     236:	1814                	addi	x13,x2,48
     238:	0000                	unimp
     23a:	5000                	lw	x8,32(x8)
     23c:	0002                	c.slli64	x0
     23e:	1200                	addi	x8,x2,288
     240:	0358                	addi	x14,x2,388
     242:	0000                	unimp
     244:	2c01                	jal	454 <number+0x200>
     246:	0003bf03          	0x3bf03
     24a:	0300                	addi	x8,x2,384
     24c:	0008                	0x8
     24e:	0000                	unimp
     250:	3014                	fld	f13,32(x8)
     252:	0000                	unimp
     254:	6600                	flw	f8,8(x12)
     256:	0002                	c.slli64	x0
     258:	1500                	addi	x8,x2,672
     25a:	014d                	addi	x2,x2,19
     25c:	0000                	unimp
     25e:	2d01                	jal	86e <bsg_printf+0x366>
     260:	0000d603          	lhu	x12,0(x1)
     264:	0000                	unimp
     266:	4814                	lw	x13,16(x8)
     268:	0000                	unimp
     26a:	8000                	0x8000
     26c:	0002                	c.slli64	x0
     26e:	1200                	addi	x8,x2,288
     270:	0358                	addi	x14,x2,388
     272:	0000                	unimp
     274:	2d01                	jal	884 <bsg_printf+0x37c>
     276:	0003bf03          	0x3bf03
     27a:	1800                	addi	x8,x2,48
     27c:	0008                	0x8
     27e:	0000                	unimp
     280:	6014                	flw	f13,0(x8)
     282:	0000                	unimp
     284:	5000                	lw	x8,32(x8)
     286:	12000003          	lb	x0,288(x0) # 120 <bsg_group_size+0x11c>
     28a:	0195                	addi	x3,x3,5
     28c:	0000                	unimp
     28e:	2e01                	jal	59e <bsg_printf+0x96>
     290:	0003c603          	lbu	x12,0(x7)
     294:	2d00                	fld	f8,24(x10)
     296:	0008                	0x8
     298:	1200                	addi	x8,x2,288
     29a:	033c                	addi	x15,x2,392
     29c:	0000                	unimp
     29e:	2e01                	jal	5ae <bsg_printf+0xa6>
     2a0:	0003c603          	lbu	x12,0(x7)
     2a4:	4b00                	lw	x8,16(x14)
     2a6:	0008                	0x8
     2a8:	1200                	addi	x8,x2,288
     2aa:	02e0                	addi	x8,x2,332
     2ac:	0000                	unimp
     2ae:	2e01                	jal	5be <bsg_printf+0xb6>
     2b0:	0003c603          	lbu	x12,0(x7)
     2b4:	7500                	flw	f8,40(x10)
     2b6:	0008                	0x8
     2b8:	1200                	addi	x8,x2,288
     2ba:	01b1                	addi	x3,x3,12
     2bc:	0000                	unimp
     2be:	2e01                	jal	5ce <bsg_printf+0xc6>
     2c0:	0003c603          	lbu	x12,0(x7)
     2c4:	9a00                	0x9a00
     2c6:	0008                	0x8
     2c8:	1200                	addi	x8,x2,288
     2ca:	030e                	slli	x6,x6,0x3
     2cc:	0000                	unimp
     2ce:	2e01                	jal	5de <bsg_printf+0xd6>
     2d0:	0003c603          	lbu	x12,0(x7)
     2d4:	bd00                	fsd	f8,56(x10)
     2d6:	0008                	0x8
     2d8:	1600                	addi	x8,x2,800
     2da:	0078                	addi	x14,x2,12
     2dc:	0000                	unimp
     2de:	3a12                	fld	f20,288(x2)
     2e0:	0001                	nop
     2e2:	0100                	addi	x8,x2,128
     2e4:	032e                	slli	x6,x6,0xb
     2e6:	03c6                	slli	x7,x7,0x11
     2e8:	0000                	unimp
     2ea:	000008db          	0x8db
     2ee:	db12                	sw	x4,180(x2)
     2f0:	0002                	c.slli64	x0
     2f2:	0100                	addi	x8,x2,128
     2f4:	032e                	slli	x6,x6,0xb
     2f6:	03c6                	slli	x7,x7,0x11
     2f8:	0000                	unimp
     2fa:	08fd                	addi	x17,x17,31
     2fc:	0000                	unimp
     2fe:	fe12                	fsw	f4,60(x2)
     300:	0000                	unimp
     302:	0100                	addi	x8,x2,128
     304:	032e                	slli	x6,x6,0xb
     306:	03c6                	slli	x7,x7,0x11
     308:	0000                	unimp
     30a:	0921                	addi	x18,x18,8
     30c:	0000                	unimp
     30e:	f912                	fsw	f4,176(x2)
     310:	0000                	unimp
     312:	0100                	addi	x8,x2,128
     314:	032e                	slli	x6,x6,0xb
     316:	03c6                	slli	x7,x7,0x11
     318:	0000                	unimp
     31a:	0000093f 0000f412 	0xf4120000093f
     322:	0100                	addi	x8,x2,128
     324:	032e                	slli	x6,x6,0xb
     326:	03c6                	slli	x7,x7,0x11
     328:	0000                	unimp
     32a:	095d                	addi	x18,x18,23
     32c:	0000                	unimp
     32e:	ef12                	fsw	f4,156(x2)
     330:	0000                	unimp
     332:	0100                	addi	x8,x2,128
     334:	032e                	slli	x6,x6,0xb
     336:	03c6                	slli	x7,x7,0x11
     338:	0000                	unimp
     33a:	000009bb          	0x9bb
     33e:	6d5f5f13          	0x6d5f5f13
     342:	0100                	addi	x8,x2,128
     344:	032e                	slli	x6,x6,0xb
     346:	03c6                	slli	x7,x7,0x11
     348:	0000                	unimp
     34a:	00000a0f          	0xa0f
     34e:	0000                	unimp
     350:	9814                	0x9814
     352:	0000                	unimp
     354:	a800                	fsd	f8,16(x8)
     356:	12000003          	lb	x0,288(x0) # 120 <bsg_group_size+0x11c>
     35a:	0108                	addi	x10,x2,128
     35c:	0000                	unimp
     35e:	2f01                	jal	a6e <bsg_printf+0x566>
     360:	00002c03          	lw	x24,0(x0) # 0 <_start>
     364:	3d00                	fld	f8,56(x10)
     366:	000a                	c.slli	x0,0x2
     368:	1600                	addi	x8,x2,800
     36a:	00b0                	addi	x12,x2,72
     36c:	0000                	unimp
     36e:	cc15                	beqz	x8,3aa <number+0x156>
     370:	0001                	nop
     372:	0100                	addi	x8,x2,128
     374:	03bf032f          	0x3bf032f
     378:	0000                	unimp
     37a:	9715                	srai	x14,x14,0x25
     37c:	0002                	c.slli64	x0
     37e:	0100                	addi	x8,x2,128
     380:	03bf032f          	0x3bf032f
     384:	0000                	unimp
     386:	7e12                	flw	f28,36(x2)
     388:	0001                	nop
     38a:	0100                	addi	x8,x2,128
     38c:	03bf032f          	0x3bf032f
     390:	0000                	unimp
     392:	00000a83          	lb	x21,0(x0) # 0 <_start>
     396:	2312                	fld	f6,256(x2)
     398:	0001                	nop
     39a:	0100                	addi	x8,x2,128
     39c:	03c6032f          	0x3c6032f
     3a0:	0000                	unimp
     3a2:	00000aa3          	sb	x0,21(x0) # 15 <bsg_group_size+0x11>
     3a6:	0000                	unimp
     3a8:	00174417          	auipc	x8,0x174
     3ac:	2000                	fld	f8,0(x8)
     3ae:	0000                	unimp
     3b0:	1500                	addi	x8,x2,672
     3b2:	00dc                	addi	x15,x2,68
     3b4:	0000                	unimp
     3b6:	2f01                	jal	ac6 <bsg_printf+0x5be>
     3b8:	0000d603          	lhu	x12,0(x1)
     3bc:	0000                	unimp
     3be:	0200                	addi	x8,x2,256
     3c0:	0504                	addi	x9,x2,640
     3c2:	0300                	addi	x8,x2,384
     3c4:	0000                	unimp
     3c6:	0402                	c.slli64	x8
     3c8:	0001ff07          	0x1ff07
     3cc:	0000                	unimp
     3ce:	000002a7          	0x2a7
     3d2:	0004                	0x4
     3d4:	0159                	addi	x2,x2,22
     3d6:	0000                	unimp
     3d8:	0104                	addi	x9,x2,128
     3da:	0000                	unimp
     3dc:	0000                	unimp
     3de:	b00c                	fsd	f11,32(x8)
     3e0:	11000003          	lb	x0,272(x0) # 110 <bsg_group_size+0x10c>
     3e4:	0002                	c.slli64	x0
     3e6:	c800                	sw	x8,16(x8)
     3e8:	0019                	c.nop	6
     3ea:	0800                	addi	x8,x2,16
     3ec:	0001                	nop
     3ee:	da00                	sw	x8,48(x12)
     3f0:	000a                	c.slli	x0,0x2
     3f2:	0200                	addi	x8,x2,256
     3f4:	0404                	addi	x9,x2,512
     3f6:	000007f7          	0x7f7
     3fa:	69050403          	lb	x8,1680(x10)
     3fe:	746e                	flw	f8,248(x2)
     400:	0200                	addi	x8,x2,256
     402:	0601                	addi	x12,x12,0
     404:	0141                	addi	x2,x2,16
     406:	0000                	unimp
     408:	0802                	c.slli64	x16
     40a:	fb05                	bnez	x14,33a <number+0xe6>
     40c:	0002                	c.slli64	x0
     40e:	0400                	addi	x8,x2,512
     410:	000001e3          	beqz	x0,c12 <bsg_printf+0x70a>
     414:	4a02                	lw	x20,0(x2)
     416:	1601                	addi	x12,x12,-32
     418:	00000053          	fadd.s	f0,f0,f0,rne
     41c:	4105                	li	x2,1
     41e:	0000                	unimp
     420:	0200                	addi	x8,x2,256
     422:	0801                	addi	x16,x16,0
     424:	0000013f 04070402 	0x40704020000013f
     42c:	0002                	c.slli64	x0
     42e:	0200                	addi	x8,x2,256
     430:	0708                	addi	x10,x2,896
     432:	01fa                	slli	x3,x3,0x1e
     434:	0000                	unimp
     436:	0202                	c.slli64	x4
     438:	00016b07          	0x16b07
     43c:	0600                	addi	x8,x2,768
     43e:	004e                	c.slli	x0,0x13
     440:	0000                	unimp
     442:	007f                	0x7f
     444:	0000                	unimp
     446:	00005a07          	0x5a07
     44a:	ff00                	fsw	f8,56(x14)
     44c:	0500                	addi	x8,x2,640
     44e:	0000006f          	j	44e <number+0x1fa>
     452:	eb08                	fsw	f10,16(x14)
     454:	0001                	nop
     456:	0500                	addi	x8,x2,640
     458:	163c                	addi	x15,x2,808
     45a:	007f                	0x7f
     45c:	0000                	unimp
     45e:	3509                	jal	260 <number+0xc>
     460:	03000003          	lb	x0,48(x0) # 30 <bsg_group_size+0x2c>
     464:	0f45                	addi	x30,x30,17
     466:	0025                	c.nop	9
     468:	0000                	unimp
     46a:	040a                	slli	x8,x8,0x2
     46c:	d6034a03          	lbu	x20,-672(x6)
     470:	0000                	unimp
     472:	0b00                	addi	x8,x2,400
     474:	01f5                	addi	x3,x3,29
     476:	0000                	unimp
     478:	5a0e5103          	lhu	x2,1440(x28)
     47c:	0000                	unimp
     47e:	0400                	addi	x8,x2,512
     480:	0c000917          	auipc	x18,0xc000
     484:	7865                	lui	x16,0xffff9
     486:	0070                	addi	x12,x2,12
     488:	5a0e5203          	lhu	x4,1440(x28)
     48c:	0000                	unimp
     48e:	0400                	addi	x8,x2,512
     490:	0108                	addi	x10,x2,128
     492:	0b00                	addi	x8,x2,400
     494:	06ad                	addi	x13,x13,11
     496:	0000                	unimp
     498:	5a0e5303          	lhu	x6,1440(x28)
     49c:	0000                	unimp
     49e:	0400                	addi	x8,x2,512
     4a0:	0001                	nop
     4a2:	0000                	unimp
     4a4:	290d                	jal	8d6 <bsg_printf+0x3ce>
     4a6:	04000003          	lb	x0,64(x0) # 40 <bsg_group_size+0x3c>
     4aa:	fc074703          	lbu	x14,-64(x14)
     4ae:	0000                	unimp
     4b0:	0e00                	addi	x8,x2,784
     4b2:	6c66                	flw	f24,88(x2)
     4b4:	0074                	addi	x13,x2,12
     4b6:	900a4903          	lbu	x18,-1792(x20)
     4ba:	0000                	unimp
     4bc:	0f00                	addi	x8,x2,912
     4be:	0309                	addi	x6,x6,2
     4c0:	0000                	unimp
     4c2:	9c055503          	lhu	x10,-1600(x10)
     4c6:	0000                	unimp
     4c8:	0000                	unimp
     4ca:	a409                	j	6cc <bsg_printf+0x1c4>
     4cc:	04000003          	lb	x0,64(x0) # 40 <bsg_group_size+0x3c>
     4d0:	0f48                	addi	x10,x2,916
     4d2:	0108                	addi	x10,x2,128
     4d4:	0000                	unimp
     4d6:	0802                	c.slli64	x16
     4d8:	7f04                	flw	f9,56(x14)
     4da:	0005                	c.nop	1
     4dc:	0a00                	addi	x8,x2,272
     4de:	0408                	addi	x10,x2,512
     4e0:	0159034f          	fnmadd.s	f6,f18,f21,f0,rne
     4e4:	0000                	unimp
     4e6:	0003850b          	0x3850b
     4ea:	0400                	addi	x8,x2,512
     4ec:	005a0e57          	0x5a0e57
     4f0:	0000                	unimp
     4f2:	2004                	fld	f9,0(x8)
     4f4:	0000                	unimp
     4f6:	00038b0b          	0x38b0b
     4fa:	0400                	addi	x8,x2,512
     4fc:	0e58                	addi	x14,x2,788
     4fe:	005a                	c.slli	x0,0x16
     500:	0000                	unimp
     502:	1404                	addi	x9,x2,544
     504:	040c                	addi	x11,x2,512
     506:	650c                	flw	f11,8(x10)
     508:	7078                	flw	f14,100(x8)
     50a:	0400                	addi	x8,x2,512
     50c:	0e59                	addi	x28,x28,22
     50e:	005a                	c.slli	x0,0x16
     510:	0000                	unimp
     512:	0b04                	addi	x9,x2,400
     514:	0401                	addi	x8,x8,0
     516:	0006ad0b          	0x6ad0b
     51a:	0400                	addi	x8,x2,512
     51c:	0e5a                	slli	x28,x28,0x16
     51e:	005a                	c.slli	x0,0x16
     520:	0000                	unimp
     522:	0104                	addi	x9,x2,128
     524:	0400                	addi	x8,x2,512
     526:	0d00                	addi	x8,x2,656
     528:	03e2                	slli	x7,x7,0x18
     52a:	0000                	unimp
     52c:	0408                	addi	x10,x2,512
     52e:	074c                	addi	x11,x2,900
     530:	017f                	0x17f
     532:	0000                	unimp
     534:	660e                	flw	f12,192(x2)
     536:	746c                	flw	f11,108(x8)
     538:	0400                	addi	x8,x2,512
     53a:	0a4e                	slli	x20,x20,0x13
     53c:	00fc                	addi	x15,x2,76
     53e:	0000                	unimp
     540:	0003090f          	0x3090f
     544:	0400                	addi	x8,x2,512
     546:	055c                	addi	x15,x2,644
     548:	0000010f          	0x10f
     54c:	1000                	addi	x8,x2,32
     54e:	03ee                	slli	x7,x7,0x1b
     550:	0000                	unimp
     552:	2501                	jal	b52 <bsg_printf+0x64a>
     554:	fc01                	bnez	x8,46c <number+0x218>
     556:	0000                	unimp
     558:	c800                	sw	x8,16(x8)
     55a:	0019                	c.nop	6
     55c:	0800                	addi	x8,x2,16
     55e:	0001                	nop
     560:	0100                	addi	x8,x2,128
     562:	9c9c                	0x9c9c
     564:	0002                	c.slli64	x0
     566:	1100                	addi	x8,x2,160
     568:	0061                	c.nop	24
     56a:	2501                	jal	b6a <bsg_printf+0x662>
     56c:	00009017          	auipc	x0,0x9
     570:	c100                	sw	x8,0(x10)
     572:	000a                	c.slli	x0,0x2
     574:	1200                	addi	x8,x2,288
     576:	00000103          	lb	x2,0(x0) # 0 <_start>
     57a:	2701                	jal	c7a <bsg_printf+0x772>
     57c:	00002c03          	lw	x24,0(x0) # 0 <_start>
     580:	3500                	fld	f8,40(x10)
     582:	1300000b          	0x1300000b
     586:	00000373          	0x373
     58a:	2701                	jal	c8a <bsg_printf+0x782>
     58c:	00002c03          	lw	x24,0(x0) # 0 <_start>
     590:	1400                	addi	x8,x2,544
     592:	5f41                	li	x30,-16
     594:	28010063          	beqz	x2,814 <bsg_printf+0x30c>
     598:	00029c03          	lh	x24,0(x5)
     59c:	1500                	addi	x8,x2,672
     59e:	5f41                	li	x30,-16
     5a0:	28010073          	0x28010073
     5a4:	00029c03          	lh	x24,0(x5)
     5a8:	7700                	flw	f8,40(x14)
     5aa:	1500000b          	0x1500000b
     5ae:	5f41                	li	x30,-16
     5b0:	0065                	c.nop	25
     5b2:	2801                	jal	5c2 <bsg_printf+0xba>
     5b4:	00029c03          	lh	x24,0(x5)
     5b8:	9f00                	0x9f00
     5ba:	1500000b          	0x1500000b
     5be:	5f41                	li	x30,-16
     5c0:	0066                	c.slli	x0,0x19
     5c2:	2801                	jal	5d2 <bsg_printf+0xca>
     5c4:	0002a303          	lw	x6,0(x5)
     5c8:	0500                	addi	x8,x2,640
     5ca:	000c                	0xc
     5cc:	1400                	addi	x8,x2,544
     5ce:	5f52                	lw	x30,52(x2)
     5d0:	29010063          	beq	x2,x16,850 <bsg_printf+0x348>
     5d4:	00029c03          	lh	x24,0(x5)
     5d8:	1500                	addi	x8,x2,672
     5da:	5f52                	lw	x30,52(x2)
     5dc:	29010073          	0x29010073
     5e0:	00029c03          	lh	x24,0(x5)
     5e4:	7700                	flw	f8,40(x14)
     5e6:	1500000b          	0x1500000b
     5ea:	5f52                	lw	x30,52(x2)
     5ec:	0065                	c.nop	25
     5ee:	2901                	jal	9fe <bsg_printf+0x4f6>
     5f0:	00029c03          	lh	x24,0(x5)
     5f4:	5500                	lw	x8,40(x10)
     5f6:	000c                	0xc
     5f8:	1200                	addi	x8,x2,288
     5fa:	000003ab          	0x3ab
     5fe:	2901                	jal	a0e <bsg_printf+0x506>
     600:	0002a303          	lw	x6,0(x5)
     604:	8100                	0x8100
     606:	000c                	0xc
     608:	1200                	addi	x8,x2,288
     60a:	03fc                	addi	x15,x2,460
     60c:	0000                	unimp
     60e:	2901                	jal	a1e <bsg_printf+0x516>
     610:	0002a303          	lw	x6,0(x5)
     614:	c100                	sw	x8,0(x10)
     616:	000c                	0xc
     618:	1400                	addi	x8,x2,544
     61a:	0072                	c.slli	x0,0x1c
     61c:	2a01                	jal	72c <bsg_printf+0x224>
     61e:	fc0a                	fsw	f2,56(x2)
     620:	0000                	unimp
     622:	1600                	addi	x8,x2,800
     624:	00c8                	addi	x10,x2,68
     626:	0000                	unimp
     628:	0000026b          	0x26b
     62c:	00014d13          	xori	x26,x2,0
     630:	0100                	addi	x8,x2,128
     632:	032d                	addi	x6,x6,11
     634:	00d6                	slli	x1,x1,0x15
     636:	0000                	unimp
     638:	1700                	addi	x8,x2,928
     63a:	1a58                	addi	x14,x2,308
     63c:	0000                	unimp
     63e:	0040                	addi	x8,x2,4
     640:	0000                	unimp
     642:	0289                	addi	x5,x5,2
     644:	0000                	unimp
     646:	7812                	flw	f16,36(x2)
     648:	01000003          	lb	x0,16(x0) # 10 <bsg_group_size+0xc>
     64c:	002c032f          	0x2c032f
     650:	0000                	unimp
     652:	0d31                	addi	x26,x26,12
     654:	0000                	unimp
     656:	1800                	addi	x8,x2,48
     658:	00e8                	addi	x10,x2,76
     65a:	0000                	unimp
     65c:	00039113          	slli	x2,x7,0x0
     660:	0100                	addi	x8,x2,128
     662:	01590333          	add	x6,x18,x21
     666:	0000                	unimp
     668:	0000                	unimp
     66a:	0402                	c.slli64	x8
     66c:	0005                	c.nop	1
     66e:	02000003          	lb	x0,32(x0) # 20 <bsg_group_size+0x1c>
     672:	0704                	addi	x9,x2,896
     674:	01ff                	0x1ff
     676:	0000                	unimp
     678:	ef00                	fsw	f8,24(x14)
     67a:	0002                	c.slli64	x0
     67c:	0400                	addi	x8,x2,512
     67e:	c300                	sw	x8,0(x14)
     680:	0002                	c.slli64	x0
     682:	0400                	addi	x8,x2,512
     684:	0001                	nop
     686:	0000                	unimp
     688:	0c00                	addi	x8,x2,528
     68a:	049a                	slli	x9,x9,0x6
     68c:	0000                	unimp
     68e:	0211                	addi	x4,x4,4
     690:	0000                	unimp
     692:	1ad0                	addi	x12,x2,372
     694:	0000                	unimp
     696:	02dc                	addi	x15,x2,324
     698:	0000                	unimp
     69a:	00000edb          	0xedb
     69e:	0802                	c.slli64	x16
     6a0:	7f04                	flw	f9,56(x14)
     6a2:	0005                	c.nop	1
     6a4:	0300                	addi	x8,x2,384
     6a6:	0504                	addi	x9,x2,640
     6a8:	6e69                	lui	x28,0x1a
     6aa:	0074                	addi	x13,x2,12
     6ac:	0102                	c.slli64	x2
     6ae:	4106                	lw	x2,64(x2)
     6b0:	0001                	nop
     6b2:	0200                	addi	x8,x2,256
     6b4:	0508                	addi	x10,x2,640
     6b6:	000002fb          	0x2fb
     6ba:	e304                	fsw	f9,0(x14)
     6bc:	0001                	nop
     6be:	0200                	addi	x8,x2,256
     6c0:	014a                	slli	x2,x2,0x12
     6c2:	5316                	lw	x6,100(x2)
     6c4:	0000                	unimp
     6c6:	0500                	addi	x8,x2,640
     6c8:	0041                	c.nop	16
     6ca:	0000                	unimp
     6cc:	0102                	c.slli64	x2
     6ce:	3f08                	fld	f10,56(x14)
     6d0:	0001                	nop
     6d2:	0200                	addi	x8,x2,256
     6d4:	0704                	addi	x9,x2,896
     6d6:	0204                	addi	x9,x2,256
     6d8:	0000                	unimp
     6da:	0802                	c.slli64	x16
     6dc:	0001fa07          	0x1fa07
     6e0:	0200                	addi	x8,x2,256
     6e2:	0702                	c.slli64	x14
     6e4:	0000016b          	0x16b
     6e8:	4e06                	lw	x28,64(x2)
     6ea:	0000                	unimp
     6ec:	7f00                	flw	f8,56(x14)
     6ee:	0000                	unimp
     6f0:	0700                	addi	x8,x2,896
     6f2:	005a                	c.slli	x0,0x16
     6f4:	0000                	unimp
     6f6:	00ff                	0xff
     6f8:	6f05                	lui	x30,0x1
     6fa:	0000                	unimp
     6fc:	0800                	addi	x8,x2,16
     6fe:	000001eb          	0x1eb
     702:	3c05                	jal	132 <write_finish_signal+0x6>
     704:	7f16                	flw	f30,100(x2)
     706:	0000                	unimp
     708:	0900                	addi	x8,x2,144
     70a:	0335                	addi	x6,x6,13
     70c:	0000                	unimp
     70e:	9c0f4503          	lbu	x10,-1600(x30) # 9c0 <bsg_printf+0x4b8>
     712:	0000                	unimp
     714:	0200                	addi	x8,x2,256
     716:	0404                	addi	x9,x2,512
     718:	000007f7          	0x7f7
     71c:	040a                	slli	x8,x8,0x2
     71e:	dd034a03          	lbu	x20,-560(x6)
     722:	0000                	unimp
     724:	0b00                	addi	x8,x2,400
     726:	01f5                	addi	x3,x3,29
     728:	0000                	unimp
     72a:	5a0e5103          	lhu	x2,1440(x28) # 1a5a0 <_bsg_elf_stack_ptr+0x185a4>
     72e:	0000                	unimp
     730:	0400                	addi	x8,x2,512
     732:	0c000917          	auipc	x18,0xc000
     736:	7865                	lui	x16,0xffff9
     738:	0070                	addi	x12,x2,12
     73a:	5a0e5203          	lhu	x4,1440(x28)
     73e:	0000                	unimp
     740:	0400                	addi	x8,x2,512
     742:	0108                	addi	x10,x2,128
     744:	0b00                	addi	x8,x2,400
     746:	06ad                	addi	x13,x13,11
     748:	0000                	unimp
     74a:	5a0e5303          	lhu	x6,1440(x28)
     74e:	0000                	unimp
     750:	0400                	addi	x8,x2,512
     752:	0001                	nop
     754:	0000                	unimp
     756:	290d                	jal	b88 <bsg_printf+0x680>
     758:	04000003          	lb	x0,64(x0) # 40 <bsg_group_size+0x3c>
     75c:	03074703          	lbu	x14,48(x14)
     760:	0001                	nop
     762:	0e00                	addi	x8,x2,784
     764:	6c66                	flw	f24,88(x2)
     766:	0074                	addi	x13,x2,12
     768:	900a4903          	lbu	x18,-1792(x20)
     76c:	0000                	unimp
     76e:	0f00                	addi	x8,x2,912
     770:	0309                	addi	x6,x6,2
     772:	0000                	unimp
     774:	a3055503          	lhu	x10,-1488(x10)
     778:	0000                	unimp
     77a:	0000                	unimp
     77c:	a409                	j	97e <bsg_printf+0x476>
     77e:	04000003          	lb	x0,64(x0) # 40 <bsg_group_size+0x3c>
     782:	0f48                	addi	x10,x2,916
     784:	0025                	c.nop	9
     786:	0000                	unimp
     788:	080a                	slli	x16,x16,0x2
     78a:	4f04                	lw	x9,24(x14)
     78c:	00015903          	lhu	x18,0(x2)
     790:	0b00                	addi	x8,x2,400
     792:	0385                	addi	x7,x7,1
     794:	0000                	unimp
     796:	5704                	lw	x9,40(x14)
     798:	5a0e                	lw	x20,224(x2)
     79a:	0000                	unimp
     79c:	0400                	addi	x8,x2,512
     79e:	0020                	addi	x8,x2,8
     7a0:	0b00                	addi	x8,x2,400
     7a2:	0000038b          	0x38b
     7a6:	5804                	lw	x9,48(x8)
     7a8:	5a0e                	lw	x20,224(x2)
     7aa:	0000                	unimp
     7ac:	0400                	addi	x8,x2,512
     7ae:	0c14                	addi	x13,x2,528
     7b0:	0c04                	addi	x9,x2,528
     7b2:	7865                	lui	x16,0xffff9
     7b4:	0070                	addi	x12,x2,12
     7b6:	5904                	lw	x9,48(x10)
     7b8:	5a0e                	lw	x20,224(x2)
     7ba:	0000                	unimp
     7bc:	0400                	addi	x8,x2,512
     7be:	0b04010b          	0xb04010b
     7c2:	06ad                	addi	x13,x13,11
     7c4:	0000                	unimp
     7c6:	5a04                	lw	x9,48(x12)
     7c8:	5a0e                	lw	x20,224(x2)
     7ca:	0000                	unimp
     7cc:	0400                	addi	x8,x2,512
     7ce:	0001                	nop
     7d0:	0004                	0x4
     7d2:	e20d                	bnez	x12,7f4 <bsg_printf+0x2ec>
     7d4:	08000003          	lb	x0,128(x0) # 80 <bsg_group_size+0x7c>
     7d8:	4c04                	lw	x9,24(x8)
     7da:	00017f07          	0x17f07
     7de:	0e00                	addi	x8,x2,784
     7e0:	6c66                	flw	f24,88(x2)
     7e2:	0074                	addi	x13,x2,12
     7e4:	4e04                	lw	x9,24(x12)
     7e6:	030a                	slli	x6,x6,0x2
     7e8:	0001                	nop
     7ea:	0f00                	addi	x8,x2,912
     7ec:	0309                	addi	x6,x6,2
     7ee:	0000                	unimp
     7f0:	5c04                	lw	x9,56(x8)
     7f2:	0f05                	addi	x30,x30,1
     7f4:	0001                	nop
     7f6:	0000                	unimp
     7f8:	0110                	addi	x12,x2,128
     7fa:	0004                	0x4
     7fc:	0100                	addi	x8,x2,128
     7fe:	0124                	addi	x9,x2,136
     800:	0090                	addi	x12,x2,64
     802:	0000                	unimp
     804:	1ad0                	addi	x12,x2,372
     806:	0000                	unimp
     808:	02dc                	addi	x15,x2,324
     80a:	0000                	unimp
     80c:	9c01                	0x9c01
     80e:	02e4                	addi	x9,x2,332
     810:	0000                	unimp
     812:	6111                	addi	x2,x2,256
     814:	0100                	addi	x8,x2,128
     816:	1624                	addi	x9,x2,808
     818:	00000103          	lb	x2,0(x0) # 0 <_start>
     81c:	00000d4f          	fnmadd.s	f26,f0,f0,f0,rne
     820:	0312                	slli	x6,x6,0x4
     822:	0001                	nop
     824:	0100                	addi	x8,x2,128
     826:	0326                	slli	x6,x6,0x9
     828:	002c                	addi	x11,x2,8
     82a:	0000                	unimp
     82c:	00000e37          	lui	x28,0x0
     830:	00037313          	andi	x6,x6,0
     834:	0100                	addi	x8,x2,128
     836:	0326                	slli	x6,x6,0x9
     838:	002c                	addi	x11,x2,8
     83a:	0000                	unimp
     83c:	5c01                	li	x24,-32
     83e:	4114                	lw	x13,0(x10)
     840:	635f 0100 0327      	0x3270100635f
     846:	02e4                	addi	x9,x2,332
     848:	0000                	unimp
     84a:	4115                	li	x2,5
     84c:	735f 0100 0327      	0x3270100735f
     852:	02e4                	addi	x9,x2,332
     854:	0000                	unimp
     856:	00000f07          	0xf07
     85a:	4115                	li	x2,5
     85c:	655f 0100 0327      	0x3270100655f
     862:	02e4                	addi	x9,x2,332
     864:	0000                	unimp
     866:	0f25                	addi	x30,x30,9
     868:	0000                	unimp
     86a:	7c12                	flw	f24,36(x2)
     86c:	0004                	0x4
     86e:	0100                	addi	x8,x2,128
     870:	02eb0327          	0x2eb0327
     874:	0000                	unimp
     876:	0f96                	slli	x31,x31,0x5
     878:	0000                	unimp
     87a:	4d12                	lw	x26,4(x2)
     87c:	0004                	0x4
     87e:	0100                	addi	x8,x2,128
     880:	02eb0327          	0x2eb0327
     884:	0000                	unimp
     886:	1045                	c.nop	-15
     888:	0000                	unimp
     88a:	5214                	lw	x13,32(x12)
     88c:	635f 0100 0328      	0x3280100635f
     892:	02e4                	addi	x9,x2,332
     894:	0000                	unimp
     896:	5215                	li	x4,-27
     898:	735f 0100 0328      	0x3280100735f
     89e:	02e4                	addi	x9,x2,332
     8a0:	0000                	unimp
     8a2:	10d9                	addi	x1,x1,-10
     8a4:	0000                	unimp
     8a6:	5215                	li	x4,-27
     8a8:	655f 0100 0328      	0x3280100655f
     8ae:	02e4                	addi	x9,x2,332
     8b0:	0000                	unimp
     8b2:	000010f7          	0x10f7
     8b6:	5215                	li	x4,-27
     8b8:	665f 0100 0328      	0x3280100665f
     8be:	000002eb          	0x2eb
     8c2:	000011d7          	0x11d7
     8c6:	7215                	lui	x4,0xfffe5
     8c8:	0100                	addi	x8,x2,128
     8ca:	0a29                	addi	x20,x20,10
     8cc:	0090                	addi	x12,x2,64
     8ce:	0000                	unimp
     8d0:	00001273          	csrrw	x4,ustatus,x0
     8d4:	0016                	c.slli	x0,0x5
     8d6:	0001                	nop
     8d8:	7100                	flw	f8,32(x10)
     8da:	0002                	c.slli64	x0
     8dc:	1700                	addi	x8,x2,928
     8de:	00000423          	sb	x0,8(x0) # 8 <bsg_group_size+0x4>
     8e2:	2c01                	jal	af2 <bsg_printf+0x5ea>
     8e4:	00015903          	lhu	x18,0(x2)
     8e8:	0000                	unimp
     8ea:	1816                	slli	x16,x16,0x25
     8ec:	0001                	nop
     8ee:	cd00                	sw	x8,24(x10)
     8f0:	0002                	c.slli64	x0
     8f2:	1200                	addi	x8,x2,288
     8f4:	0481                	addi	x9,x9,0
     8f6:	0000                	unimp
     8f8:	3201                	jal	1f8 <bsg_set_tile_x_y+0xa8>
     8fa:	00002c03          	lw	x24,0(x0) # 0 <_start>
     8fe:	9100                	0x9100
     900:	0012                	c.slli	x0,0x4
     902:	1800                	addi	x8,x2,48
     904:	0160                	addi	x8,x2,140
     906:	0000                	unimp
     908:	00045217          	auipc	x4,0x45
     90c:	0100                	addi	x8,x2,128
     90e:	0332                	slli	x6,x6,0xc
     910:	02e4                	addi	x9,x2,332
     912:	0000                	unimp
     914:	3812                	fld	f16,288(x2)
     916:	0004                	0x4
     918:	0100                	addi	x8,x2,128
     91a:	0332                	slli	x6,x6,0xc
     91c:	02e4                	addi	x9,x2,332
     91e:	0000                	unimp
     920:	12d2                	slli	x5,x5,0x34
     922:	0000                	unimp
     924:	6712                	flw	f14,4(x2)
     926:	0004                	0x4
     928:	0100                	addi	x8,x2,128
     92a:	0332                	slli	x6,x6,0xc
     92c:	02e4                	addi	x9,x2,332
     92e:	0000                	unimp
     930:	12f0                	addi	x12,x2,364
     932:	0000                	unimp
     934:	0e12                	slli	x28,x28,0x4
     936:	0004                	0x4
     938:	0100                	addi	x8,x2,128
     93a:	0332                	slli	x6,x6,0xc
     93c:	000002eb          	0x2eb
     940:	1310                	addi	x12,x2,416
     942:	0000                	unimp
     944:	0000                	unimp
     946:	b419                	j	34c <number+0xf8>
     948:	2000001b          	0x2000001b
     94c:	0000                	unimp
     94e:	1700                	addi	x8,x2,928
     950:	00dc                	addi	x15,x2,68
     952:	0000                	unimp
     954:	3201                	jal	254 <number>
     956:	0000dd03          	lhu	x26,0(x1)
     95a:	0000                	unimp
     95c:	0200                	addi	x8,x2,256
     95e:	0504                	addi	x9,x2,640
     960:	0300                	addi	x8,x2,384
     962:	0000                	unimp
     964:	0402                	c.slli64	x8
     966:	0001ff07          	0x1ff07
     96a:	0000                	unimp
     96c:	00000bd3          	fadd.s	f23,f0,f0,rne
     970:	0004                	0x4
     972:	043c                	addi	x15,x2,520
     974:	0000                	unimp
     976:	0104                	addi	x9,x2,128
     978:	0000                	unimp
     97a:	0000                	unimp
     97c:	880c                	0x880c
     97e:	000a                	c.slli	x0,0x2
     980:	1100                	addi	x8,x2,160
     982:	0002                	c.slli64	x0
     984:	ac00                	fsd	f8,24(x8)
     986:	001d                	c.nop	7
     988:	4c00                	lw	x8,24(x8)
     98a:	0000                	unimp
     98c:	ab00                	fsd	f8,16(x14)
     98e:	0015                	c.nop	5
     990:	0200                	addi	x8,x2,256
     992:	0504                	addi	x9,x2,640
     994:	6e69                	lui	x28,0x1a
     996:	0074                	addi	x13,x2,12
     998:	04070403          	lb	x8,64(x14)
     99c:	0002                	c.slli64	x0
     99e:	0300                	addi	x8,x2,384
     9a0:	0508                	addi	x10,x2,640
     9a2:	000002fb          	0x2fb
     9a6:	7a041003          	lh	x0,1952(x8) # 174b48 <_bsg_elf_vcache_size+0x154b48>
     9aa:	0005                	c.nop	1
     9ac:	0300                	addi	x8,x2,384
     9ae:	0601                	addi	x12,x12,0
     9b0:	0141                	addi	x2,x2,16
     9b2:	0000                	unimp
     9b4:	3f080103          	lb	x2,1008(x16) # ffff93f0 <_end+0x7eff9390>
     9b8:	0001                	nop
     9ba:	0300                	addi	x8,x2,384
     9bc:	0502                	c.slli64	x10
     9be:	000004cb          	fnmsub.s	f9,f0,f0,f0,rne
     9c2:	6b070203          	lb	x4,1712(x14)
     9c6:	0001                	nop
     9c8:	0300                	addi	x8,x2,384
     9ca:	0504                	addi	x9,x2,640
     9cc:	0300                	addi	x8,x2,384
     9ce:	0000                	unimp
     9d0:	ff070403          	lb	x8,-16(x14)
     9d4:	0001                	nop
     9d6:	0300                	addi	x8,x2,384
     9d8:	0708                	addi	x10,x2,896
     9da:	01fa                	slli	x3,x3,0x1e
     9dc:	0000                	unimp
     9de:	4904                	lw	x9,16(x10)
     9e0:	0008                	0x8
     9e2:	0200                	addi	x8,x2,256
     9e4:	0d0c                	addi	x11,x2,656
     9e6:	0025                	c.nop	9
     9e8:	0000                	unimp
     9ea:	2304                	fld	f9,0(x14)
     9ec:	0008                	0x8
     9ee:	0300                	addi	x8,x2,384
     9f0:	0e2c                	addi	x11,x2,792
     9f2:	005d                	c.nop	23
     9f4:	0000                	unimp
     9f6:	5e04                	lw	x9,56(x12)
     9f8:	0009                	c.nop	2
     9fa:	0300                	addi	x8,x2,384
     9fc:	0e72                	slli	x28,x28,0x1c
     9fe:	005d                	c.nop	23
     a00:	0000                	unimp
     a02:	f804                	fsw	f9,48(x8)
     a04:	0009                	c.nop	2
     a06:	0300                	addi	x8,x2,384
     a08:	1791                	addi	x15,x15,-28
     a0a:	0025                	c.nop	9
     a0c:	0000                	unimp
     a0e:	6905                	lui	x18,0x1
     a10:	04000007          	0x4000007
     a14:	015e                	slli	x2,x2,0x17
     a16:	00002c17          	auipc	x24,0x2
     a1a:	0600                	addi	x8,x2,768
     a1c:	0304                	addi	x9,x2,384
     a1e:	03a6                	slli	x7,x7,0x9
     a20:	00d1                	addi	x1,x1,20
     a22:	0000                	unimp
     a24:	00075007          	0x75007
     a28:	0300                	addi	x8,x2,384
     a2a:	0ca8                	addi	x10,x2,600
     a2c:	00a2                	slli	x1,x1,0x8
     a2e:	0000                	unimp
     a30:	0006f707          	0x6f707
     a34:	0300                	addi	x8,x2,384
     a36:	13a9                	addi	x7,x7,-22
     a38:	00d1                	addi	x1,x1,20
     a3a:	0000                	unimp
     a3c:	0800                	addi	x8,x2,16
     a3e:	0048                	addi	x10,x2,4
     a40:	0000                	unimp
     a42:	00e1                	addi	x1,x1,24
     a44:	0000                	unimp
     a46:	2c09                	jal	c58 <bsg_printf+0x750>
     a48:	0000                	unimp
     a4a:	0300                	addi	x8,x2,384
     a4c:	0a00                	addi	x8,x2,272
     a4e:	0308                	addi	x10,x2,384
     a50:	010509a3          	sb	x16,19(x10)
     a54:	0000                	unimp
     a56:	0009480b          	0x9480b
     a5a:	0300                	addi	x8,x2,384
     a5c:	07a5                	addi	x15,x15,9
     a5e:	0025                	c.nop	9
     a60:	0000                	unimp
     a62:	0b00                	addi	x8,x2,400
     a64:	0950                	addi	x12,x2,148
     a66:	0000                	unimp
     a68:	af05aa03          	lw	x20,-1296(x11)
     a6c:	0000                	unimp
     a6e:	0400                	addi	x8,x2,512
     a70:	0400                	addi	x8,x2,512
     a72:	083e                	slli	x16,x16,0xf
     a74:	0000                	unimp
     a76:	e103ab03          	lw	x22,-496(x7)
     a7a:	0000                	unimp
     a7c:	0400                	addi	x8,x2,512
     a7e:	0898                	addi	x14,x2,80
     a80:	0000                	unimp
     a82:	721baf03          	lw	x30,1825(x23)
     a86:	0000                	unimp
     a88:	0c00                	addi	x8,x2,528
     a8a:	0404                	addi	x9,x2,512
     a8c:	09a9                	addi	x19,x19,10
     a8e:	0000                	unimp
     a90:	1605                	addi	x12,x12,-31
     a92:	6419                	lui	x8,0x6
     a94:	0000                	unimp
     a96:	0d00                	addi	x8,x2,656
     a98:	06ba                	slli	x13,x13,0xe
     a9a:	0000                	unimp
     a9c:	0518                	addi	x14,x2,640
     a9e:	0185082f          	0x185082f
     aa2:	0000                	unimp
     aa4:	0008eb0b          	0x8eb0b
     aa8:	0500                	addi	x8,x2,640
     aaa:	1331                	addi	x6,x6,-20
     aac:	0185                	addi	x3,x3,1
     aae:	0000                	unimp
     ab0:	0e00                	addi	x8,x2,784
     ab2:	6b5f 0500 0732      	0x73205006b5f
     ab8:	0025                	c.nop	9
     aba:	0000                	unimp
     abc:	0b04                	addi	x9,x2,400
     abe:	00000933          	add	x18,x0,x0
     ac2:	3205                	jal	3e2 <number+0x18e>
     ac4:	0000250b          	0x250b
     ac8:	0800                	addi	x8,x2,16
     aca:	0006ac0b          	0x6ac0b
     ace:	0500                	addi	x8,x2,640
     ad0:	1432                	slli	x8,x8,0x2c
     ad2:	0025                	c.nop	9
     ad4:	0000                	unimp
     ad6:	0b0c                	addi	x11,x2,400
     ad8:	0628                	addi	x10,x2,776
     ada:	0000                	unimp
     adc:	3205                	jal	3fc <number+0x1a8>
     ade:	0000251b          	0x251b
     ae2:	1000                	addi	x8,x2,32
     ae4:	5f0e                	lw	x30,224(x2)
     ae6:	0078                	addi	x14,x2,12
     ae8:	3305                	jal	808 <bsg_printf+0x300>
     aea:	00018b0b          	0x18b0b
     aee:	1400                	addi	x8,x2,544
     af0:	0f00                	addi	x8,x2,912
     af2:	2b04                	fld	f9,16(x14)
     af4:	0001                	nop
     af6:	0800                	addi	x8,x2,16
     af8:	011f 0000 019b      	0x19b0000011f
     afe:	0000                	unimp
     b00:	2c09                	jal	d12 <bsg_printf+0x80a>
     b02:	0000                	unimp
     b04:	0000                	unimp
     b06:	0d00                	addi	x8,x2,656
     b08:	06da                	slli	x13,x13,0x16
     b0a:	0000                	unimp
     b0c:	0524                	addi	x9,x2,648
     b0e:	021e0837          	lui	x16,0x21e0
     b12:	0000                	unimp
     b14:	0005c00b          	0x5c00b
     b18:	0500                	addi	x8,x2,640
     b1a:	0939                	addi	x18,x18,14
     b1c:	0025                	c.nop	9
     b1e:	0000                	unimp
     b20:	0b00                	addi	x8,x2,400
     b22:	0a4c                	addi	x11,x2,276
     b24:	0000                	unimp
     b26:	3a05                	jal	456 <number+0x202>
     b28:	2509                	jal	112a <_bsg_data_start_addr+0x12a>
     b2a:	0000                	unimp
     b2c:	0400                	addi	x8,x2,512
     b2e:	0005dc0b          	0x5dc0b
     b32:	0500                	addi	x8,x2,640
     b34:	0025093b          	0x25093b
     b38:	0000                	unimp
     b3a:	0b08                	addi	x10,x2,400
     b3c:	0aae                	slli	x21,x21,0xb
     b3e:	0000                	unimp
     b40:	3c05                	jal	570 <bsg_printf+0x68>
     b42:	2509                	jal	1144 <_bsg_data_start_addr+0x144>
     b44:	0000                	unimp
     b46:	0c00                	addi	x8,x2,528
     b48:	0007fd0b          	0x7fd0b
     b4c:	0500                	addi	x8,x2,640
     b4e:	093d                	addi	x18,x18,15
     b50:	0025                	c.nop	9
     b52:	0000                	unimp
     b54:	0b10                	addi	x12,x2,400
     b56:	07b1                	addi	x15,x15,12
     b58:	0000                	unimp
     b5a:	3e05                	jal	68a <bsg_printf+0x182>
     b5c:	2509                	jal	115e <_bsg_data_start_addr+0x15e>
     b5e:	0000                	unimp
     b60:	1400                	addi	x8,x2,544
     b62:	0009e10b          	0x9e10b
     b66:	0500                	addi	x8,x2,640
     b68:	0025093f 0b180000 	0xb1800000025093f
     b70:	08a1                	addi	x17,x17,8
     b72:	0000                	unimp
     b74:	4005                	c.li	x0,1
     b76:	2509                	jal	1178 <_bsg_data_start_addr+0x178>
     b78:	0000                	unimp
     b7a:	1c00                	addi	x8,x2,560
     b7c:	000a320b          	0xa320b
     b80:	0500                	addi	x8,x2,640
     b82:	0941                	addi	x18,x18,16
     b84:	0025                	c.nop	9
     b86:	0000                	unimp
     b88:	0020                	addi	x8,x2,8
     b8a:	fb10                	fsw	f12,48(x14)
     b8c:	0005                	c.nop	1
     b8e:	0800                	addi	x8,x2,16
     b90:	0501                	addi	x10,x10,0
     b92:	084a                	slli	x16,x16,0x12
     b94:	00000263          	beqz	x0,b98 <bsg_printf+0x690>
     b98:	00069f0b          	0x69f0b
     b9c:	0500                	addi	x8,x2,640
     b9e:	02630a4b          	fnmsub.d	f20,f6,f6,f0,rne
     ba2:	0000                	unimp
     ba4:	0b00                	addi	x8,x2,400
     ba6:	0874                	addi	x13,x2,28
     ba8:	0000                	unimp
     baa:	4c05                	li	x24,1
     bac:	6309                	lui	x6,0x2
     bae:	0002                	c.slli64	x0
     bb0:	8000                	0x8000
     bb2:	9b11                	andi	x14,x14,-28
     bb4:	0009                	c.nop	2
     bb6:	0500                	addi	x8,x2,640
     bb8:	0a4e                	slli	x20,x20,0x13
     bba:	011f 0000 0100      	0x1000000011f
     bc0:	2011                	jal	bc4 <bsg_printf+0x6bc>
     bc2:	0006                	c.slli	x0,0x1
     bc4:	0500                	addi	x8,x2,640
     bc6:	0a51                	addi	x20,x20,20
     bc8:	011f 0000 0104      	0x1040000011f
     bce:	0800                	addi	x8,x2,16
     bd0:	011d                	addi	x2,x2,7
     bd2:	0000                	unimp
     bd4:	00000273          	0x273
     bd8:	2c09                	jal	dea <bsg_tile_group_barrier+0x46>
     bda:	0000                	unimp
     bdc:	1f00                	addi	x8,x2,944
     bde:	1000                	addi	x8,x2,32
     be0:	0806                	slli	x16,x16,0x1
     be2:	0000                	unimp
     be4:	0190                	addi	x12,x2,192
     be6:	5d05                	li	x26,-31
     be8:	b608                	fsd	f10,40(x12)
     bea:	0002                	c.slli64	x0
     bec:	0b00                	addi	x8,x2,400
     bee:	000008eb          	0x8eb
     bf2:	5e05                	li	x28,-31
     bf4:	b612                	fsd	f4,296(x2)
     bf6:	0002                	c.slli64	x0
     bf8:	0000                	unimp
     bfa:	0009030b          	0x9030b
     bfe:	0500                	addi	x8,x2,640
     c00:	065f 0025 0000      	0x25065f
     c06:	0b04                	addi	x9,x2,400
     c08:	000006a7          	0x6a7
     c0c:	6105                	addi	x2,x2,32
     c0e:	bc09                	j	620 <bsg_printf+0x118>
     c10:	0002                	c.slli64	x0
     c12:	0800                	addi	x8,x2,16
     c14:	0005fb0b          	0x5fb0b
     c18:	0500                	addi	x8,x2,640
     c1a:	1e62                	slli	x28,x28,0x38
     c1c:	021e                	slli	x4,x4,0x7
     c1e:	0000                	unimp
     c20:	0088                	addi	x10,x2,64
     c22:	0273040f          	0x273040f
     c26:	0000                	unimp
     c28:	cc08                	sw	x10,24(x8)
     c2a:	0002                	c.slli64	x0
     c2c:	cc00                	sw	x8,24(x8)
     c2e:	0002                	c.slli64	x0
     c30:	0900                	addi	x8,x2,144
     c32:	002c                	addi	x11,x2,8
     c34:	0000                	unimp
     c36:	001f 040f 02d2      	0x2d2040f001f
     c3c:	0000                	unimp
     c3e:	0d12                	slli	x26,x26,0x4
     c40:	000008ab          	0x8ab
     c44:	0508                	addi	x10,x2,640
     c46:	0875                	addi	x16,x16,29
     c48:	000002fb          	0x2fb
     c4c:	0005d60b          	0x5d60b
     c50:	0500                	addi	x8,x2,640
     c52:	1176                	slli	x2,x2,0x3d
     c54:	000002fb          	0x2fb
     c58:	0b00                	addi	x8,x2,400
     c5a:	000004e7          	jalr	x9,x0 # 0 <_start>
     c5e:	7705                	lui	x14,0xfffe1
     c60:	2506                	fld	f10,64(x2)
     c62:	0000                	unimp
     c64:	0400                	addi	x8,x2,512
     c66:	0f00                	addi	x8,x2,912
     c68:	4804                	lw	x9,16(x8)
     c6a:	0000                	unimp
     c6c:	0d00                	addi	x8,x2,656
     c6e:	08d4                	addi	x13,x2,84
     c70:	0000                	unimp
     c72:	0568                	addi	x10,x2,652
     c74:	08b5                	addi	x17,x17,13
     c76:	0444                	addi	x9,x2,516
     c78:	0000                	unimp
     c7a:	5f0e                	lw	x30,224(x2)
     c7c:	0070                	addi	x12,x2,12
     c7e:	b605                	j	79e <bsg_printf+0x296>
     c80:	fb12                	fsw	f4,180(x2)
     c82:	0002                	c.slli64	x0
     c84:	0000                	unimp
     c86:	5f0e                	lw	x30,224(x2)
     c88:	0072                	c.slli	x0,0x1c
     c8a:	b705                	j	baa <bsg_printf+0x6a2>
     c8c:	00002507          	flw	f10,0(x0) # 0 <_start>
     c90:	0400                	addi	x8,x2,512
     c92:	5f0e                	lw	x30,224(x2)
     c94:	b8050077          	0xb8050077
     c98:	00002507          	flw	f10,0(x0) # 0 <_start>
     c9c:	0800                	addi	x8,x2,16
     c9e:	0006190b          	0x6190b
     ca2:	0500                	addi	x8,x2,640
     ca4:	09b9                	addi	x19,x19,14
     ca6:	0000004f          	fnmadd.s	f0,f0,f0,f0,rne
     caa:	0b0c                	addi	x11,x2,400
     cac:	0706                	slli	x14,x14,0x1
     cae:	0000                	unimp
     cb0:	ba05                	j	5e0 <bsg_printf+0xd8>
     cb2:	4f09                	li	x30,2
     cb4:	0000                	unimp
     cb6:	0e00                	addi	x8,x2,784
     cb8:	5f0e                	lw	x30,224(x2)
     cba:	6662                	flw	f12,24(x2)
     cbc:	0500                	addi	x8,x2,640
     cbe:	02d311bb          	0x2d311bb
     cc2:	0000                	unimp
     cc4:	0b10                	addi	x12,x2,400
     cc6:	0569                	addi	x10,x10,26
     cc8:	0000                	unimp
     cca:	bc05                	j	6fa <bsg_printf+0x1f2>
     ccc:	00002507          	flw	f10,0(x0) # 0 <_start>
     cd0:	1800                	addi	x8,x2,48
     cd2:	0006090b          	0x6090b
     cd6:	0500                	addi	x8,x2,640
     cd8:	011d0ac3          	fmadd.s	f21,f26,f17,f0,rne
     cdc:	0000                	unimp
     cde:	0b1c                	addi	x15,x2,400
     ce0:	0000085b          	0x85b
     ce4:	c505                	beqz	x10,d0c <bsg_printf+0x804>
     ce6:	c81d                	beqz	x8,d1c <bsg_printf+0x814>
     ce8:	0005                	c.nop	1
     cea:	2000                	fld	f8,0(x8)
     cec:	0007aa0b          	0x7aa0b
     cf0:	0500                	addi	x8,x2,640
     cf2:	05f71dc7          	0x5f71dc7
     cf6:	0000                	unimp
     cf8:	0b24                	addi	x9,x2,408
     cfa:	0958                	addi	x14,x2,148
     cfc:	0000                	unimp
     cfe:	ca05                	beqz	x12,d2e <bsg_printf+0x826>
     d00:	1b0d                	addi	x22,x22,-29
     d02:	0006                	c.slli	x0,0x1
     d04:	2800                	fld	f8,16(x8)
     d06:	0005c90b          	0x5c90b
     d0a:	0500                	addi	x8,x2,640
     d0c:	063509cb          	fnmsub.q	f19,f10,f3,f0,rne
     d10:	0000                	unimp
     d12:	0e2c                	addi	x11,x2,792
     d14:	755f 0062 ce05      	0xce050062755f
     d1a:	d311                	beqz	x14,c1e <bsg_printf+0x716>
     d1c:	0002                	c.slli64	x0
     d1e:	3000                	fld	f8,32(x8)
     d20:	5f0e                	lw	x30,224(x2)
     d22:	7075                	c.lui	x0,0xffffd
     d24:	0500                	addi	x8,x2,640
     d26:	02fb12cf          	fnmadd.d	f5,f22,f15,f0,rtz
     d2a:	0000                	unimp
     d2c:	0e38                	addi	x14,x2,792
     d2e:	755f 0072 d005      	0xd0050072755f
     d34:	00002507          	flw	f10,0(x0) # 0 <_start>
     d38:	3c00                	fld	f8,56(x8)
     d3a:	0005d00b          	0x5d00b
     d3e:	0500                	addi	x8,x2,640
     d40:	063b11d3          	fadd.q	f3,f22,f3,rtz
     d44:	0000                	unimp
     d46:	0b40                	addi	x8,x2,404
     d48:	0a24                	addi	x9,x2,280
     d4a:	0000                	unimp
     d4c:	d405                	beqz	x8,c74 <bsg_printf+0x76c>
     d4e:	4b11                	li	x22,4
     d50:	0006                	c.slli	x0,0x1
     d52:	4300                	lw	x8,0(x14)
     d54:	5f0e                	lw	x30,224(x2)
     d56:	626c                	flw	f11,68(x12)
     d58:	0500                	addi	x8,x2,640
     d5a:	02d311d7          	0x2d311d7
     d5e:	0000                	unimp
     d60:	0b44                	addi	x9,x2,404
     d62:	0000096f          	jal	x18,d62 <bsg_printf+0x85a>
     d66:	da05                	beqz	x12,c96 <bsg_printf+0x78e>
     d68:	00002507          	flw	f10,0(x0) # 0 <_start>
     d6c:	4c00                	lw	x8,24(x8)
     d6e:	0007d90b          	0x7d90b
     d72:	0500                	addi	x8,x2,640
     d74:	007e0adb          	0x7e0adb
     d78:	0000                	unimp
     d7a:	0b50                	addi	x12,x2,404
     d7c:	0526                	slli	x10,x10,0x9
     d7e:	0000                	unimp
     d80:	de05                	beqz	x12,cb8 <bsg_printf+0x7b0>
     d82:	6212                	flw	f4,4(x2)
     d84:	0004                	0x4
     d86:	5400                	lw	x8,40(x8)
     d88:	0007700b          	0x7700b
     d8c:	0500                	addi	x8,x2,640
     d8e:	0ce2                	slli	x25,x25,0x18
     d90:	0111                	addi	x2,x2,4
     d92:	0000                	unimp
     d94:	0b58                	addi	x14,x2,404
     d96:	06ee                	slli	x13,x13,0x1b
     d98:	0000                	unimp
     d9a:	e405                	bnez	x8,dc2 <bsg_tile_group_barrier+0x1e>
     d9c:	050e                	slli	x10,x10,0x3
     d9e:	0001                	nop
     da0:	5c00                	lw	x8,56(x8)
     da2:	0008b20b          	0x8b20b
     da6:	0500                	addi	x8,x2,640
     da8:	09e5                	addi	x19,x19,25
     daa:	0025                	c.nop	9
     dac:	0000                	unimp
     dae:	0064                	addi	x9,x2,12
     db0:	00009613          	slli	x12,x1,0x0
     db4:	6200                	flw	f8,0(x12)
     db6:	0004                	0x4
     db8:	1400                	addi	x8,x2,544
     dba:	0462                	slli	x8,x8,0x18
     dbc:	0000                	unimp
     dbe:	1d14                	addi	x13,x2,688
     dc0:	0001                	nop
     dc2:	1400                	addi	x8,x2,544
     dc4:	05b6                	slli	x11,x11,0xd
     dc6:	0000                	unimp
     dc8:	2514                	fld	f13,8(x10)
     dca:	0000                	unimp
     dcc:	0000                	unimp
     dce:	046d040f          	0x46d040f
     dd2:	0000                	unimp
     dd4:	6215                	lui	x4,0x5
     dd6:	0004                	0x4
     dd8:	1600                	addi	x8,x2,800
     dda:	0000093b          	0x93b
     dde:	0428                	addi	x10,x2,520
     de0:	6005                	c.lui	x0,0x1
     de2:	0802                	c.slli64	x16
     de4:	05b6                	slli	x11,x11,0xd
     de6:	0000                	unimp
     de8:	00089117          	auipc	x2,0x89
     dec:	0500                	addi	x8,x2,640
     dee:	0262                	slli	x4,x4,0x18
     df0:	00002507          	flw	f10,0(x0) # 0 <_start>
     df4:	0000                	unimp
     df6:	0009f117          	auipc	x2,0x9f
     dfa:	0500                	addi	x8,x2,640
     dfc:	a70b0267          	jalr	x4,-1424(x22)
     e00:	0006                	c.slli	x0,0x1
     e02:	0400                	addi	x8,x2,512
     e04:	0009d917          	auipc	x18,0x9d
     e08:	0500                	addi	x8,x2,640
     e0a:	a7140267          	jalr	x4,-1423(x8) # 5a71 <_bsg_elf_stack_ptr+0x3a75>
     e0e:	0006                	c.slli	x0,0x1
     e10:	0800                	addi	x8,x2,16
     e12:	0006b217          	auipc	x4,0x6b
     e16:	0500                	addi	x8,x2,640
     e18:	a71e0267          	jalr	x4,-1423(x28) # 19a71 <_bsg_elf_stack_ptr+0x17a75>
     e1c:	0006                	c.slli	x0,0x1
     e1e:	0c00                	addi	x8,x2,528
     e20:	0008fe17          	auipc	x28,0x8f
     e24:	0500                	addi	x8,x2,640
     e26:	0269                	addi	x4,x4,26
     e28:	2508                	fld	f10,8(x10)
     e2a:	0000                	unimp
     e2c:	1000                	addi	x8,x2,32
     e2e:	0004f517          	auipc	x10,0x4f
     e32:	0500                	addi	x8,x2,640
     e34:	026a                	slli	x4,x4,0x1a
     e36:	a708                	fsd	f10,8(x14)
     e38:	0008                	0x8
     e3a:	1400                	addi	x8,x2,544
     e3c:	00091a17          	auipc	x20,0x91
     e40:	0500                	addi	x8,x2,640
     e42:	026d                	addi	x4,x4,27
     e44:	00002507          	flw	f10,0(x0) # 0 <_start>
     e48:	3000                	fld	f8,32(x8)
     e4a:	00090817          	auipc	x16,0x90
     e4e:	0500                	addi	x8,x2,640
     e50:	026e                	slli	x4,x4,0x1b
     e52:	bc16                	fsd	f5,56(x2)
     e54:	0008                	0x8
     e56:	3400                	fld	f8,40(x8)
     e58:	00081817          	auipc	x16,0x81
     e5c:	0500                	addi	x8,x2,640
     e5e:	0270                	addi	x12,x2,268
     e60:	00002507          	flw	f10,0(x0) # 0 <_start>
     e64:	3800                	fld	f8,48(x8)
     e66:	00091017          	auipc	x0,0x91
     e6a:	0500                	addi	x8,x2,640
     e6c:	0272                	slli	x4,x4,0x1c
     e6e:	cd0a                	sw	x2,152(x2)
     e70:	0008                	0x8
     e72:	3c00                	fld	f8,56(x8)
     e74:	00074817          	auipc	x16,0x74
     e78:	0500                	addi	x8,x2,640
     e7a:	0275                	addi	x4,x4,29
     e7c:	00018513          	mv	x10,x3
     e80:	4000                	lw	x8,0(x8)
     e82:	00063417          	auipc	x8,0x63
     e86:	0500                	addi	x8,x2,640
     e88:	0276                	slli	x4,x4,0x1d
     e8a:	00002507          	flw	f10,0(x0) # 0 <_start>
     e8e:	4400                	lw	x8,8(x8)
     e90:	000a8317          	auipc	x6,0xa8
     e94:	0500                	addi	x8,x2,640
     e96:	85130277          	0x85130277
     e9a:	0001                	nop
     e9c:	4800                	lw	x8,16(x8)
     e9e:	00082a17          	auipc	x20,0x82
     ea2:	0500                	addi	x8,x2,640
     ea4:	0278                	addi	x14,x2,268
     ea6:	d314                	sw	x13,32(x14)
     ea8:	0008                	0x8
     eaa:	4c00                	lw	x8,24(x8)
     eac:	0006fe17          	auipc	x28,0x6f
     eb0:	0500                	addi	x8,x2,640
     eb2:	2507027b          	0x2507027b
     eb6:	0000                	unimp
     eb8:	5000                	lw	x8,32(x8)
     eba:	00066b17          	auipc	x22,0x66
     ebe:	0500                	addi	x8,x2,640
     ec0:	027c                	addi	x15,x2,268
     ec2:	b609                	j	9c4 <bsg_printf+0x4bc>
     ec4:	0005                	c.nop	1
     ec6:	5400                	lw	x8,40(x8)
     ec8:	00088a17          	auipc	x20,0x88
     ecc:	0500                	addi	x8,x2,640
     ece:	029f 8207 0008      	0x88207029f
     ed4:	5800                	lw	x8,48(x8)
     ed6:	0618                	addi	x14,x2,768
     ed8:	0008                	0x8
     eda:	0500                	addi	x8,x2,640
     edc:	b61302a3          	sb	x1,-1179(x6) # a89f5 <_bsg_elf_vcache_size+0x889f5>
     ee0:	0002                	c.slli64	x0
     ee2:	4800                	lw	x8,16(x8)
     ee4:	1801                	addi	x16,x16,-32
     ee6:	0726                	slli	x14,x14,0x9
     ee8:	0000                	unimp
     eea:	a405                	j	110a <_bsg_data_start_addr+0x10a>
     eec:	1202                	slli	x4,x4,0x20
     eee:	00000273          	0x273
     ef2:	014c                	addi	x11,x2,132
     ef4:	0b18                	addi	x14,x2,400
     ef6:	000a                	c.slli	x0,0x2
     ef8:	0500                	addi	x8,x2,640
     efa:	02a8                	addi	x10,x2,328
     efc:	e40c                	fsw	f11,8(x8)
     efe:	0008                	0x8
     f00:	dc00                	sw	x8,56(x8)
     f02:	1802                	slli	x16,x16,0x20
     f04:	0611                	addi	x12,x12,4
     f06:	0000                	unimp
     f08:	ad05                	j	1538 <_tls_data+0x58>
     f0a:	1002                	c.slli	x0,0x20
     f0c:	0668                	addi	x10,x2,780
     f0e:	0000                	unimp
     f10:	02e0                	addi	x8,x2,332
     f12:	f618                	fsw	f14,40(x12)
     f14:	0005                	c.nop	1
     f16:	0500                	addi	x8,x2,640
     f18:	f00a02af          	0xf00a02af
     f1c:	0008                	0x8
     f1e:	ec00                	fsw	f8,24(x8)
     f20:	0002                	c.slli64	x0
     f22:	05bc040f          	0x5bc040f
     f26:	0000                	unimp
     f28:	48080103          	lb	x2,1152(x16) # 752f4 <_bsg_elf_vcache_size+0x552f4>
     f2c:	0001                	nop
     f2e:	1500                	addi	x8,x2,672
     f30:	05bc                	addi	x15,x2,712
     f32:	0000                	unimp
     f34:	0444040f          	0x444040f
     f38:	0000                	unimp
     f3a:	00009613          	slli	x12,x1,0x0
     f3e:	ec00                	fsw	f8,24(x8)
     f40:	0005                	c.nop	1
     f42:	1400                	addi	x8,x2,544
     f44:	0462                	slli	x8,x8,0x18
     f46:	0000                	unimp
     f48:	1d14                	addi	x13,x2,688
     f4a:	0001                	nop
     f4c:	1400                	addi	x8,x2,544
     f4e:	05ec                	addi	x11,x2,716
     f50:	0000                	unimp
     f52:	2514                	fld	f13,8(x10)
     f54:	0000                	unimp
     f56:	0000                	unimp
     f58:	05c3040f          	0x5c3040f
     f5c:	0000                	unimp
     f5e:	ec15                	bnez	x8,f9a <kernel_float_vec_exp+0x62>
     f60:	0005                	c.nop	1
     f62:	0f00                	addi	x8,x2,912
     f64:	ce04                	sw	x9,24(x12)
     f66:	0005                	c.nop	1
     f68:	1300                	addi	x8,x2,416
     f6a:	008a                	slli	x1,x1,0x2
     f6c:	0000                	unimp
     f6e:	0000061b          	0x61b
     f72:	6214                	flw	f13,0(x12)
     f74:	0004                	0x4
     f76:	1400                	addi	x8,x2,544
     f78:	011d                	addi	x2,x2,7
     f7a:	0000                	unimp
     f7c:	8a14                	0x8a14
     f7e:	0000                	unimp
     f80:	1400                	addi	x8,x2,544
     f82:	0025                	c.nop	9
     f84:	0000                	unimp
     f86:	0f00                	addi	x8,x2,912
     f88:	fd04                	fsw	f9,56(x10)
     f8a:	0005                	c.nop	1
     f8c:	1300                	addi	x8,x2,416
     f8e:	0025                	c.nop	9
     f90:	0000                	unimp
     f92:	0635                	addi	x12,x12,13
     f94:	0000                	unimp
     f96:	6214                	flw	f13,0(x12)
     f98:	0004                	0x4
     f9a:	1400                	addi	x8,x2,544
     f9c:	011d                	addi	x2,x2,7
     f9e:	0000                	unimp
     fa0:	0f00                	addi	x8,x2,912
     fa2:	2104                	fld	f9,0(x10)
     fa4:	0006                	c.slli	x0,0x1
     fa6:	0800                	addi	x8,x2,16
     fa8:	0048                	addi	x10,x2,4
     faa:	0000                	unimp
     fac:	0000064b          	fnmsub.s	f12,f0,f0,f0,rne
     fb0:	2c09                	jal	11c2 <__ieee754_expf+0x3e>
     fb2:	0000                	unimp
     fb4:	0200                	addi	x8,x2,256
     fb6:	0800                	addi	x8,x2,16
     fb8:	0048                	addi	x10,x2,4
     fba:	0000                	unimp
     fbc:	0000065b          	0x65b
     fc0:	2c09                	jal	11d2 <__ieee754_expf+0x4e>
     fc2:	0000                	unimp
     fc4:	0000                	unimp
     fc6:	0500                	addi	x8,x2,640
     fc8:	062d                	addi	x12,x12,11
     fca:	0000                	unimp
     fcc:	1f05                	addi	x30,x30,-31
     fce:	1a01                	addi	x20,x20,-32
     fd0:	0301                	addi	x6,x6,0
     fd2:	0000                	unimp
     fd4:	eb19                	bnez	x14,fea <kernel_float_vec_exp+0xb2>
     fd6:	0009                	c.nop	2
     fd8:	0c00                	addi	x8,x2,528
     fda:	2305                	jal	14fa <_tls_data+0x1a>
     fdc:	0801                	addi	x16,x16,0
     fde:	06a1                	addi	x13,x13,8
     fe0:	0000                	unimp
     fe2:	0008eb17          	auipc	x22,0x8e
     fe6:	0500                	addi	x8,x2,640
     fe8:	0125                	addi	x2,x2,9
     fea:	a111                	j	13ee <__ieee754_expf+0x26a>
     fec:	0006                	c.slli	x0,0x1
     fee:	0000                	unimp
     ff0:	00071617          	auipc	x12,0x71
     ff4:	0500                	addi	x8,x2,640
     ff6:	0126                	slli	x2,x2,0x9
     ff8:	00002507          	flw	f10,0(x0) # 0 <_start>
     ffc:	0400                	addi	x8,x2,512
     ffe:	0008ba17          	auipc	x20,0x8b
    1002:	0500                	addi	x8,x2,640
    1004:	a70b0127          	0xa70b0127
    1008:	0006                	c.slli	x0,0x1
    100a:	0800                	addi	x8,x2,16
    100c:	0f00                	addi	x8,x2,912
    100e:	6804                	flw	f9,16(x8)
    1010:	0006                	c.slli	x0,0x1
    1012:	0f00                	addi	x8,x2,912
    1014:	5b04                	lw	x9,48(x14)
    1016:	0006                	c.slli	x0,0x1
    1018:	1900                	addi	x8,x2,176
    101a:	04ed                	addi	x9,x9,27
    101c:	0000                	unimp
    101e:	050e                	slli	x10,x10,0x3
    1020:	e608013f 17000006 	0x17000006e608013f
    1028:	0942                	slli	x18,x18,0x10
    102a:	0000                	unimp
    102c:	4005                	c.li	x0,1
    102e:	1201                	addi	x4,x4,-32
    1030:	06e6                	slli	x13,x13,0x19
    1032:	0000                	unimp
    1034:	1700                	addi	x8,x2,928
    1036:	078c                	addi	x11,x2,960
    1038:	0000                	unimp
    103a:	4105                	li	x2,1
    103c:	1201                	addi	x4,x4,-32
    103e:	06e6                	slli	x13,x13,0x19
    1040:	0000                	unimp
    1042:	1706                	slli	x14,x14,0x21
    1044:	09a4                	addi	x9,x2,216
    1046:	0000                	unimp
    1048:	4205                	li	x4,1
    104a:	1201                	addi	x4,x4,-32
    104c:	0056                	c.slli	x0,0x15
    104e:	0000                	unimp
    1050:	000c                	0xc
    1052:	5608                	lw	x10,40(x12)
    1054:	0000                	unimp
    1056:	f600                	fsw	f8,40(x12)
    1058:	0006                	c.slli	x0,0x1
    105a:	0900                	addi	x8,x2,144
    105c:	002c                	addi	x11,x2,8
    105e:	0000                	unimp
    1060:	0002                	c.slli64	x0
    1062:	d01a                	sw	x6,32(x2)
    1064:	8005                	srli	x8,x8,0x1
    1066:	0702                	c.slli64	x14
    1068:	0000080b          	0x80b
    106c:	0007bb17          	auipc	x22,0x7b
    1070:	0500                	addi	x8,x2,640
    1072:	0282                	c.slli64	x5
    1074:	2c18                	fld	f14,24(x8)
    1076:	0000                	unimp
    1078:	0000                	unimp
    107a:	00098717          	auipc	x14,0x98
    107e:	0500                	addi	x8,x2,640
    1080:	b6120283          	lb	x5,-1183(x4) # 6b973 <_bsg_elf_vcache_size+0x4b973>
    1084:	0005                	c.nop	1
    1086:	0400                	addi	x8,x2,512
    1088:	00073b17          	auipc	x22,0x73
    108c:	0500                	addi	x8,x2,640
    108e:	0284                	addi	x9,x2,320
    1090:	0b10                	addi	x12,x2,400
    1092:	0008                	0x8
    1094:	0800                	addi	x8,x2,16
    1096:	000a3d17          	auipc	x26,0xa3
    109a:	0500                	addi	x8,x2,640
    109c:	0285                	addi	x5,x5,1
    109e:	00019b17          	auipc	x22,0x19
    10a2:	2400                	fld	f8,8(x8)
    10a4:	0006c217          	auipc	x4,0x6c
    10a8:	0500                	addi	x8,x2,640
    10aa:	0286                	slli	x5,x5,0x1
    10ac:	0000250f          	0x250f
    10b0:	4800                	lw	x8,16(x8)
    10b2:	0008e617          	auipc	x12,0x8e
    10b6:	0500                	addi	x8,x2,640
    10b8:	6b2c0287          	0x6b2c0287
    10bc:	0000                	unimp
    10be:	5000                	lw	x8,32(x8)
    10c0:	000a5517          	auipc	x10,0xa5
    10c4:	0500                	addi	x8,x2,640
    10c6:	0288                	addi	x10,x2,320
    10c8:	ad1a                	fsd	f6,152(x2)
    10ca:	0006                	c.slli	x0,0x1
    10cc:	5800                	lw	x8,48(x8)
    10ce:	0008f117          	auipc	x2,0x8f
    10d2:	0500                	addi	x8,x2,640
    10d4:	0289                	addi	x5,x5,2
    10d6:	0516                	slli	x10,x10,0x5
    10d8:	0001                	nop
    10da:	6800                	flw	f8,16(x8)
    10dc:	000a7517          	auipc	x10,0xa7
    10e0:	0500                	addi	x8,x2,640
    10e2:	028a                	slli	x5,x5,0x2
    10e4:	0516                	slli	x10,x10,0x5
    10e6:	0001                	nop
    10e8:	7000                	flw	f8,32(x8)
    10ea:	0005b217          	auipc	x4,0x5b
    10ee:	0500                	addi	x8,x2,640
    10f0:	0516028b          	0x516028b
    10f4:	0001                	nop
    10f6:	7800                	flw	f8,48(x8)
    10f8:	000a0117          	auipc	x2,0xa0
    10fc:	0500                	addi	x8,x2,640
    10fe:	028c                	addi	x11,x2,320
    1100:	1b10                	addi	x12,x2,432
    1102:	0008                	0x8
    1104:	8000                	0x8000
    1106:	00072f17          	auipc	x30,0x72
    110a:	0500                	addi	x8,x2,640
    110c:	028d                	addi	x5,x5,3
    110e:	2b10                	fld	f12,16(x14)
    1110:	0008                	0x8
    1112:	8800                	0x8800
    1114:	00051917          	auipc	x18,0x51
    1118:	0500                	addi	x8,x2,640
    111a:	028e                	slli	x5,x5,0x3
    111c:	0000250f          	0x250f
    1120:	a000                	fsd	f8,0(x8)
    1122:	00068417          	auipc	x8,0x68
    1126:	0500                	addi	x8,x2,640
    1128:	0516028f          	0x516028f
    112c:	0001                	nop
    112e:	a400                	fsd	f8,8(x8)
    1130:	00059b17          	auipc	x22,0x59
    1134:	0500                	addi	x8,x2,640
    1136:	0290                	addi	x12,x2,320
    1138:	0516                	slli	x10,x10,0x5
    113a:	0001                	nop
    113c:	ac00                	fsd	f8,24(x8)
    113e:	00067317          	auipc	x6,0x67
    1142:	0500                	addi	x8,x2,640
    1144:	0291                	addi	x5,x5,4
    1146:	0516                	slli	x10,x10,0x5
    1148:	0001                	nop
    114a:	b400                	fsd	f8,40(x8)
    114c:	00052c17          	auipc	x24,0x52
    1150:	0500                	addi	x8,x2,640
    1152:	0292                	slli	x5,x5,0x4
    1154:	0516                	slli	x10,x10,0x5
    1156:	0001                	nop
    1158:	bc00                	fsd	f8,56(x8)
    115a:	00055817          	auipc	x16,0x55
    115e:	0500                	addi	x8,x2,640
    1160:	05160293          	addi	x5,x12,81 # 8f103 <_bsg_elf_vcache_size+0x6f103>
    1164:	0001                	nop
    1166:	c400                	sw	x8,8(x8)
    1168:	00088f17          	auipc	x30,0x88
    116c:	0500                	addi	x8,x2,640
    116e:	0294                	addi	x13,x2,320
    1170:	2508                	fld	f10,8(x10)
    1172:	0000                	unimp
    1174:	cc00                	sw	x8,24(x8)
    1176:	0800                	addi	x8,x2,16
    1178:	05bc                	addi	x15,x2,712
    117a:	0000                	unimp
    117c:	0000081b          	0x81b
    1180:	2c09                	jal	1392 <__ieee754_expf+0x20e>
    1182:	0000                	unimp
    1184:	1900                	addi	x8,x2,176
    1186:	0800                	addi	x8,x2,16
    1188:	05bc                	addi	x15,x2,712
    118a:	0000                	unimp
    118c:	0000082b          	0x82b
    1190:	2c09                	jal	13a2 <__ieee754_expf+0x21e>
    1192:	0000                	unimp
    1194:	0700                	addi	x8,x2,896
    1196:	0800                	addi	x8,x2,16
    1198:	05bc                	addi	x15,x2,712
    119a:	0000                	unimp
    119c:	0000083b          	0x83b
    11a0:	2c09                	jal	13b2 <__ieee754_expf+0x22e>
    11a2:	0000                	unimp
    11a4:	1700                	addi	x8,x2,928
    11a6:	1a00                	addi	x8,x2,304
    11a8:	05f0                	addi	x12,x2,716
    11aa:	0299                	addi	x5,x5,6
    11ac:	00086207          	0x86207
    11b0:	1700                	addi	x8,x2,928
    11b2:	07e8                	addi	x10,x2,972
    11b4:	0000                	unimp
    11b6:	9c05                	0x9c05
    11b8:	1b02                	slli	x22,x22,0x20
    11ba:	0862                	slli	x16,x16,0x18
    11bc:	0000                	unimp
    11be:	1700                	addi	x8,x2,928
    11c0:	06d1                	addi	x13,x13,20
    11c2:	0000                	unimp
    11c4:	9d05                	0x9d05
    11c6:	1802                	slli	x16,x16,0x20
    11c8:	0872                	slli	x16,x16,0x1c
    11ca:	0000                	unimp
    11cc:	0078                	addi	x14,x2,12
    11ce:	fb08                	fsw	f10,48(x14)
    11d0:	0002                	c.slli64	x0
    11d2:	7200                	flw	f8,32(x12)
    11d4:	0008                	0x8
    11d6:	0900                	addi	x8,x2,144
    11d8:	002c                	addi	x11,x2,8
    11da:	0000                	unimp
    11dc:	001d                	c.nop	7
    11de:	2c08                	fld	f10,24(x8)
    11e0:	0000                	unimp
    11e2:	8200                	0x8200
    11e4:	0008                	0x8
    11e6:	0900                	addi	x8,x2,144
    11e8:	002c                	addi	x11,x2,8
    11ea:	0000                	unimp
    11ec:	001d                	c.nop	7
    11ee:	7e05f01b          	0x7e05f01b
    11f2:	0302                	c.slli64	x6
    11f4:	000008a7          	0x8a7
    11f8:	3b1c                	fld	f15,48(x14)
    11fa:	0009                	c.nop	2
    11fc:	0500                	addi	x8,x2,640
    11fe:	0295                	addi	x5,x5,5
    1200:	0006f60b          	0x6f60b
    1204:	1c00                	addi	x8,x2,560
    1206:	0a2a                	slli	x20,x20,0xa
    1208:	0000                	unimp
    120a:	9e05                	0x9e05
    120c:	0b02                	c.slli64	x22
    120e:	0000083b          	0x83b
    1212:	0800                	addi	x8,x2,16
    1214:	05bc                	addi	x15,x2,712
    1216:	0000                	unimp
    1218:	000008b7          	lui	x17,0x0
    121c:	2c09                	jal	142e <__ieee754_expf+0x2aa>
    121e:	0000                	unimp
    1220:	1800                	addi	x8,x2,48
    1222:	1d00                	addi	x8,x2,688
    1224:	0590                	addi	x12,x2,704
    1226:	0000                	unimp
    1228:	08b7040f          	0x8b7040f
    122c:	0000                	unimp
    122e:	cd1e                	sw	x7,152(x2)
    1230:	0008                	0x8
    1232:	1400                	addi	x8,x2,544
    1234:	0462                	slli	x8,x8,0x18
    1236:	0000                	unimp
    1238:	0f00                	addi	x8,x2,912
    123a:	c204                	sw	x9,0(x12)
    123c:	0008                	0x8
    123e:	0f00                	addi	x8,x2,912
    1240:	8504                	0x8504
    1242:	0001                	nop
    1244:	1e00                	addi	x8,x2,816
    1246:	08e4                	addi	x9,x2,92
    1248:	0000                	unimp
    124a:	2514                	fld	f13,8(x10)
    124c:	0000                	unimp
    124e:	0000                	unimp
    1250:	08ea040f          	0x8ea040f
    1254:	0000                	unimp
    1256:	08d9040f          	0x8d9040f
    125a:	0000                	unimp
    125c:	5b08                	lw	x10,48(x14)
    125e:	0006                	c.slli	x0,0x1
    1260:	0000                	unimp
    1262:	0009                	c.nop	2
    1264:	0900                	addi	x8,x2,144
    1266:	002c                	addi	x11,x2,8
    1268:	0000                	unimp
    126a:	0002                	c.slli64	x0
    126c:	cd1f 0009 0500      	0x5000009cd1f
    1272:	032e                	slli	x6,x6,0xb
    1274:	00046217          	auipc	x4,0x46
    1278:	1f00                	addi	x8,x2,944
    127a:	09c6                	slli	x19,x19,0x11
    127c:	0000                	unimp
    127e:	2f05                	jal	19ae <_bsg_data_end_addr+0x18e>
    1280:	04681d03          	lh	x26,70(x16) # 561a0 <_bsg_elf_vcache_size+0x361a0>
    1284:	0000                	unimp
    1286:	f208                	fsw	f10,32(x12)
    1288:	0005                	c.nop	1
    128a:	2500                	fld	f8,8(x10)
    128c:	0009                	c.nop	2
    128e:	2000                	fld	f8,0(x8)
    1290:	1500                	addi	x8,x2,672
    1292:	091a                	slli	x18,x18,0x6
    1294:	0000                	unimp
    1296:	5e21                	li	x28,-24
    1298:	0006                	c.slli	x0,0x1
    129a:	0600                	addi	x8,x2,768
    129c:	2414                	fld	f13,8(x8)
    129e:	0925                	addi	x18,x18,9
    12a0:	0000                	unimp
    12a2:	dc21                	beqz	x8,11fa <__ieee754_expf+0x76>
    12a4:	0008                	0x8
    12a6:	0600                	addi	x8,x2,768
    12a8:	1515                	addi	x10,x10,-27
    12aa:	0025                	c.nop	9
    12ac:	0000                	unimp
    12ae:	0948040f          	0x948040f
    12b2:	0000                	unimp
    12b4:	00002513          	slti	x10,x0,0
    12b8:	5c00                	lw	x8,56(x8)
    12ba:	0009                	c.nop	2
    12bc:	1400                	addi	x8,x2,544
    12be:	095c                	addi	x15,x2,148
    12c0:	0000                	unimp
    12c2:	5c14                	lw	x13,56(x8)
    12c4:	0009                	c.nop	2
    12c6:	0000                	unimp
    12c8:	0962040f          	0x962040f
    12cc:	0000                	unimp
    12ce:	2122                	fld	f2,8(x2)
    12d0:	080e                	slli	x16,x16,0x3
    12d2:	0000                	unimp
    12d4:	b60e6407          	0xb60e6407
    12d8:	0005                	c.nop	1
    12da:	2100                	fld	f8,0(x10)
    12dc:	0761                	addi	x14,x14,24
    12de:	0000                	unimp
    12e0:	1008                	addi	x10,x2,32
    12e2:	00097b0f          	0x97b0f
    12e6:	0f00                	addi	x8,x2,912
    12e8:	b604                	fsd	f9,40(x12)
    12ea:	0005                	c.nop	1
    12ec:	2100                	fld	f8,0(x10)
    12ee:	0811                	addi	x16,x16,4
    12f0:	0000                	unimp
    12f2:	fc08                	fsw	f10,56(x8)
    12f4:	b60e                	fsd	f3,296(x2)
    12f6:	0005                	c.nop	1
    12f8:	2100                	fld	f8,0(x10)
    12fa:	07e1                	addi	x15,x15,24
    12fc:	0000                	unimp
    12fe:	fd08                	fsw	f10,56(x10)
    1300:	250c                	fld	f11,8(x10)
    1302:	0000                	unimp
    1304:	2100                	fld	f8,0(x10)
    1306:	0980                	addi	x8,x2,208
    1308:	0000                	unimp
    130a:	fd08                	fsw	f10,56(x10)
    130c:	2514                	fld	f13,8(x10)
    130e:	0000                	unimp
    1310:	2100                	fld	f8,0(x10)
    1312:	0a64                	addi	x9,x2,284
    1314:	0000                	unimp
    1316:	fd08                	fsw	f10,56(x10)
    1318:	251c                	fld	f15,8(x10)
    131a:	0000                	unimp
    131c:	2100                	fld	f8,0(x10)
    131e:	07a1                	addi	x15,x15,8
    1320:	0000                	unimp
    1322:	ff08                	fsw	f10,56(x14)
    1324:	250c                	fld	f11,8(x10)
    1326:	0000                	unimp
    1328:	2100                	fld	f8,0(x10)
    132a:	0834                	addi	x13,x2,24
    132c:	0000                	unimp
    132e:	9a09                	andi	x12,x12,-30
    1330:	5d16                	lw	x26,100(x2)
    1332:	0000                	unimp
    1334:	2100                	fld	f8,0(x10)
    1336:	0500                	addi	x8,x2,640
    1338:	0000                	unimp
    133a:	9b09                	andi	x14,x14,-30
    133c:	2515                	jal	1960 <_bsg_data_end_addr+0x140>
    133e:	0000                	unimp
    1340:	0800                	addi	x8,x2,16
    1342:	05b6                	slli	x11,x11,0xd
    1344:	0000                	unimp
    1346:	09e5                	addi	x19,x19,25
    1348:	0000                	unimp
    134a:	2c09                	jal	155c <_tls_data+0x7c>
    134c:	0000                	unimp
    134e:	0100                	addi	x8,x2,128
    1350:	2100                	fld	f8,0(x10)
    1352:	05aa                	slli	x11,x11,0xa
    1354:	0000                	unimp
    1356:	9e09                	0x9e09
    1358:	0009d517          	auipc	x10,0x9d
    135c:	0400                	addi	x8,x2,512
    135e:	070c                	addi	x11,x2,896
    1360:	0000                	unimp
    1362:	2a0a                	fld	f20,128(x2)
    1364:	2c16                	fld	f24,320(x2)
    1366:	0000                	unimp
    1368:	0400                	addi	x8,x2,512
    136a:	08ca                	slli	x17,x17,0x12
    136c:	0000                	unimp
    136e:	2f0a                	fld	f30,128(x2)
    1370:	0915                	addi	x18,x18,5
    1372:	000a                	c.slli	x0,0x2
    1374:	0f00                	addi	x8,x2,912
    1376:	0f04                	addi	x9,x2,912
    1378:	000a                	c.slli	x0,0x2
    137a:	1300                	addi	x8,x2,416
    137c:	09f1                	addi	x19,x19,28
    137e:	0000                	unimp
    1380:	0a1e                	slli	x20,x20,0x7
    1382:	0000                	unimp
    1384:	5c14                	lw	x13,56(x8)
    1386:	0009                	c.nop	2
    1388:	0000                	unimp
    138a:	b804                	fsd	f9,48(x8)
    138c:	000a                	c.slli	x0,0x2
    138e:	0a00                	addi	x8,x2,272
    1390:	0f36                	slli	x30,x30,0xd
    1392:	0942                	slli	x18,x18,0x10
    1394:	0000                	unimp
    1396:	d521                	beqz	x10,12de <__ieee754_expf+0x15a>
    1398:	0004                	0x4
    139a:	0a00                	addi	x8,x2,272
    139c:	09fd12bb          	0x9fd12bb
    13a0:	0000                	unimp
    13a2:	b121                	j	faa <kernel_float_vec_exp+0x72>
    13a4:	0009                	c.nop	2
    13a6:	0a00                	addi	x8,x2,272
    13a8:	10be                	slli	x1,x1,0x2f
    13aa:	0a1e                	slli	x20,x20,0x7
    13ac:	0000                	unimp
    13ae:	0006df23          	0x6df23
    13b2:	0700                	addi	x8,x2,896
    13b4:	2c04                	fld	f9,24(x8)
    13b6:	0000                	unimp
    13b8:	0b00                	addi	x8,x2,400
    13ba:	0618                	addi	x14,x2,768
    13bc:	0a7f                	0xa7f
    13be:	0000                	unimp
    13c0:	6a24                	flw	f9,80(x12)
    13c2:	0008                	0x8
    13c4:	0000                	unimp
    13c6:	8124                	0x8124
    13c8:	01000007          	0x1000007
    13cc:	5624                	lw	x9,104(x12)
    13ce:	02000007          	0x2000007
    13d2:	7624                	flw	f9,104(x12)
    13d4:	03000007          	0x3000007
    13d8:	6124                	flw	f9,64(x10)
    13da:	0008                	0x8
    13dc:	0400                	addi	x8,x2,512
    13de:	6b24                	flw	f9,80(x14)
    13e0:	000a                	c.slli	x0,0x2
    13e2:	0500                	addi	x8,x2,640
    13e4:	5a24                	lw	x9,112(x12)
    13e6:	000a                	c.slli	x0,0x2
    13e8:	0600                	addi	x8,x2,768
    13ea:	2100                	fld	f8,0(x10)
    13ec:	0586                	slli	x11,x11,0x1
    13ee:	0000                	unimp
    13f0:	421c210b          	0x421c210b
    13f4:	000a                	c.slli	x0,0x2
    13f6:	2300                	fld	f8,0(x14)
    13f8:	07c8                	addi	x10,x2,964
    13fa:	0000                	unimp
    13fc:	002c0407          	0x2c0407
    1400:	0000                	unimp
    1402:	b006230b          	0xb006230b
    1406:	000a                	c.slli	x0,0x2
    1408:	2400                	fld	f8,8(x8)
    140a:	08c0                	addi	x8,x2,84
    140c:	0000                	unimp
    140e:	2400                	fld	f8,8(x8)
    1410:	0880                	addi	x8,x2,80
    1412:	0000                	unimp
    1414:	2401                	jal	1614 <_tls_data+0x134>
    1416:	0994                	addi	x13,x2,208
    1418:	0000                	unimp
    141a:	0002                	c.slli64	x0
    141c:	9221                	srli	x12,x12,0x28
    141e:	0006                	c.slli	x0,0x1
    1420:	0b00                	addi	x8,x2,400
    1422:	1e28                	addi	x10,x2,824
    1424:	00000a8b          	0xa8b
    1428:	00053b23          	0x53b23
    142c:	0700                	addi	x8,x2,896
    142e:	2c04                	fld	f9,24(x8)
    1430:	0000                	unimp
    1432:	0b00                	addi	x8,x2,400
    1434:	0adb062b          	0xadb062b
    1438:	0000                	unimp
    143a:	7824                	flw	f9,112(x8)
    143c:	0009                	c.nop	2
    143e:	0000                	unimp
    1440:	6624                	flw	f9,72(x12)
    1442:	0009                	c.nop	2
    1444:	0100                	addi	x8,x2,128
    1446:	2100                	fld	f8,0(x10)
    1448:	0646                	slli	x12,x12,0x11
    144a:	0000                	unimp
    144c:	bc2a2f0b          	0xbc2a2f0b
    1450:	000a                	c.slli	x0,0x2
    1452:	2100                	fld	f8,0(x10)
    1454:	0792                	slli	x15,x15,0x4
    1456:	0000                	unimp
    1458:	290c                	fld	f11,16(x10)
    145a:	251a                	fld	f10,384(x2)
    145c:	0009                	c.nop	2
    145e:	2100                	fld	f8,0(x10)
    1460:	05e6                	slli	x11,x11,0x19
    1462:	0000                	unimp
    1464:	380c                	fld	f11,48(x8)
    1466:	251a                	fld	f10,384(x2)
    1468:	0009                	c.nop	2
    146a:	0400                	addi	x8,x2,512
    146c:	000001e3          	beqz	x0,1c6e <_gp+0x46>
    1470:	7b0d                	lui	x22,0xfffe3
    1472:	4816                	lw	x16,68(x2)
    1474:	0000                	unimp
    1476:	1500                	addi	x8,x2,672
    1478:	0aff                	0xaff
    147a:	0000                	unimp
    147c:	3f04                	fld	f9,56(x14)
    147e:	0006                	c.slli	x0,0x1
    1480:	0d00                	addi	x8,x2,656
    1482:	0f80                	addi	x8,x2,976
    1484:	0025                	c.nop	9
    1486:	0000                	unimp
    1488:	3e04                	fld	f9,56(x12)
    148a:	0006                	c.slli	x0,0x1
    148c:	0d00                	addi	x8,x2,656
    148e:	1681                	addi	x13,x13,-32
    1490:	002c                	addi	x11,x2,8
    1492:	0000                	unimp
    1494:	f7040403          	lb	x8,-144(x8) # 69092 <_bsg_elf_vcache_size+0x49092>
    1498:	03000007          	0x3000007
    149c:	0308                	addi	x10,x2,384
    149e:	000007ef          	jal	x15,149e <__bsg_grp_org_y+0x2>
    14a2:	7f040803          	lb	x16,2032(x8)
    14a6:	0005                	c.nop	1
    14a8:	0300                	addi	x8,x2,384
    14aa:	0310                	addi	x12,x2,384
    14ac:	050a                	slli	x10,x10,0x2
    14ae:	0000                	unimp
    14b0:	72032003          	lw	x0,1824(x6) # 6885e <_bsg_elf_vcache_size+0x4885e>
    14b4:	0005                	c.nop	1
    14b6:	0800                	addi	x8,x2,16
    14b8:	00000b0b          	0xb0b
    14bc:	00000b5b          	0xb5b
{
    14c0:	2c09                	jal	16d2 <_tls_data+0x1f2>
    14c2:	0000                	unimp
    14c4:	ff00                	fsw	f8,56(x14)
    14c6:	1500                	addi	x8,x2,672
    14c8:	00000b4b          	fnmsub.s	f22,f0,f0,f0,rne
    14cc:	151f 000a 0d00      	0xd00000a151f
    14d2:	01fc                	addi	x15,x2,204
    14d4:	5b16                	lw	x22,100(x2)
    14d6:	1f00000b          	0x1f00000b
    14da:	000001eb          	0x1eb
    14de:	020d                	addi	x4,x4,3
    14e0:	1602                	slli	x12,x12,0x20
    14e2:	00000b5b          	0xb5b
    14e6:	1d25                	addi	x26,x26,-23
    14e8:	01000007          	0x1000007
  FP_INIT_ROUNDMODE;
    14ec:	02c2                	slli	x5,x5,0x10
    14ee:	2501                	jal	1aee <__truncdfsf2+0x1e>
  FP_UNPACK_S (A, a);
    14f0:	0000                	unimp
    14f2:	ac00                	fsd	f8,24(x8)
    14f4:	001d                	c.nop	7
    14f6:	4c00                	lw	x8,24(x8)
    14f8:	0000                	unimp
    14fa:	0100                	addi	x8,x2,128
    14fc:	269c                	fld	f15,8(x13)
    14fe:	0078                	addi	x14,x2,12
    1500:	c201                	beqz	x12,1500 <_tls_data+0x20>
    1502:	1202                	slli	x4,x4,0x20
    1504:	0b1c                	addi	x15,x2,400
    1506:	0000                	unimp
    1508:	1339                	addi	x6,x6,-18
    150a:	0000                	unimp
    150c:	74657227          	0x74657227
    1510:	0100                	addi	x8,x2,128
    1512:	02c4                	addi	x9,x2,324
    1514:	1009                	c.nop	-30
    1516:	2800000b          	0x2800000b
    151a:	0178                	addi	x14,x2,140
    151c:	0000                	unimp
    151e:	c129                	beqz	x10,1560 <_tls_data+0x80>
    1520:	0009                	c.nop	2
    1522:	0100                	addi	x8,x2,128
  FP_DECL_EX;
    1524:	02c6                	slli	x5,x5,0x11
    1526:	000b1c03          	lh	x24,0(x22) # fffe3000 <_end+0x7efe2fa0>
    152a:	6500                	flw	f8,8(x10)
  FP_UNPACK_S (A, a);
    152c:	2a000013          	li	x0,672
    1530:	5f5f 0061 c601      	0xc60100615f5f
    1536:	0302                	c.slli64	x6
    1538:	0b1c                	addi	x15,x2,400
    153a:	0000                	unimp
    153c:	1391                	addi	x7,x7,-28
    153e:	0000                	unimp
    1540:	0000                	unimp
    1542:	6600                	flw	f8,8(x12)
    1544:	0400000b          	0x400000b
    1548:	7e00                	flw	f8,56(x12)
    154a:	0006                	c.slli	x0,0x1
    154c:	0400                	addi	x8,x2,512
    154e:	0001                	nop
    1550:	0000                	unimp
    1552:	0c00                	addi	x8,x2,528
    1554:	0a88                	addi	x10,x2,336
    1556:	0000                	unimp
    1558:	0211                	addi	x4,x4,4
    155a:	0000                	unimp
    155c:	18c5                	addi	x17,x17,-15
    155e:	0000                	unimp
    1560:	0402                	c.slli64	x8
    1562:	6905                	lui	x18,0x1
  FP_UNPACK_S (B, b);
    1564:	746e                	flw	f8,248(x2)
    1566:	0300                	addi	x8,x2,384
    1568:	0704                	addi	x9,x2,896
    156a:	0204                	addi	x9,x2,256
    156c:	0000                	unimp
    156e:	fb050803          	lb	x16,-80(x10) # 9e308 <_bsg_elf_vcache_size+0x7e308>
    1572:	0002                	c.slli64	x0
    1574:	0300                	addi	x8,x2,384
    1576:	0410                	addi	x12,x2,512
    1578:	057a                	slli	x10,x10,0x1e
    157a:	0000                	unimp
    157c:	41060103          	lb	x2,1040(x12)
    1580:	0001                	nop
    1582:	0300                	addi	x8,x2,384
    1584:	0801                	addi	x16,x16,0
    1586:	0000013f cb050203 	0xcb0502030000013f
    158e:	0004                	0x4
    1590:	0300                	addi	x8,x2,384
    1592:	0702                	c.slli64	x14
    1594:	0000016b          	0x16b
  FP_DIV_S (R, A, B);
    1598:	00050403          	lb	x8,0(x10)
    159c:	03000003          	lb	x0,48(x0) # 30 <bsg_group_size+0x2c>
    15a0:	0704                	addi	x9,x2,896
    15a2:	01ff                	0x1ff
    15a4:	0000                	unimp
    15a6:	fa070803          	lb	x16,-96(x14) # 9901a <_bsg_elf_vcache_size+0x7901a>
    15aa:	0001                	nop
    15ac:	0400                	addi	x8,x2,512
    15ae:	0849                	addi	x16,x16,18
    15b0:	0000                	unimp
    15b2:	0c01                	addi	x24,x24,0
    15b4:	1d0d                	addi	x26,x26,-29
    15b6:	0000                	unimp
    15b8:	0400                	addi	x8,x2,512
    15ba:	00000823          	sb	x0,16(x0) # 10 <bsg_group_size+0xc>
    15be:	2c02                	fld	f24,0(x2)
    15c0:	550e                	lw	x10,224(x2)
    15c2:	0000                	unimp
    15c4:	0400                	addi	x8,x2,512
    15c6:	095e                	slli	x18,x18,0x17
    15c8:	0000                	unimp
    15ca:	7202                	flw	f4,32(x2)
    15cc:	550e                	lw	x10,224(x2)
    15ce:	0000                	unimp
  FP_UNPACK_S (A, a);
    15d0:	0400                	addi	x8,x2,512
    15d2:	09f8                	addi	x14,x2,220
    15d4:	0000                	unimp
    15d6:	9102                	jalr	x2
    15d8:	00001d17          	auipc	x26,0x1
    15dc:	0500                	addi	x8,x2,640
    15de:	0769                	addi	x14,x14,26
    15e0:	0000                	unimp
    15e2:	17015e03          	lhu	x28,368(x2) # a1268 <_bsg_elf_vcache_size+0x81268>
  FP_UNPACK_S (B, b);
    15e6:	0024                	addi	x9,x2,8
    15e8:	0000                	unimp
    15ea:	0406                	slli	x8,x8,0x1
    15ec:	a602                	fsd	f0,264(x2)
    15ee:	0000c903          	lbu	x18,0(x1)
    15f2:	0700                	addi	x8,x2,896
    15f4:	0750                	addi	x12,x2,900
    15f6:	0000                	unimp
    15f8:	a802                	fsd	f0,16(x2)
    15fa:	9a0c                	0x9a0c
    15fc:	0000                	unimp
    15fe:	0700                	addi	x8,x2,896
    1600:	000006f7          	0x6f7
    1604:	a902                	fsd	f0,144(x2)
    1606:	0000c913          	xori	x18,x1,0
    160a:	0000                	unimp
    160c:	4008                	lw	x10,0(x8)
    160e:	0000                	unimp
    1610:	d900                	sw	x8,48(x10)
    1612:	0000                	unimp
    1614:	0900                	addi	x8,x2,144
    1616:	0024                	addi	x9,x2,8
    1618:	0000                	unimp
    161a:	080a0003          	lb	x0,128(x20) # 8c07e <_bsg_elf_vcache_size+0x6c07e>
    161e:	a302                	fsd	f0,384(x2)
    1620:	fd09                	bnez	x10,153a <_tls_data+0x5a>
    1622:	0000                	unimp
    1624:	0b00                	addi	x8,x2,400
    1626:	0948                	addi	x10,x2,148
    1628:	0000                	unimp
    162a:	a502                	fsd	f0,136(x2)
    162c:	00001d07          	0x1d07
    1630:	0000                	unimp
    1632:	0009500b          	0x9500b
    1636:	0200                	addi	x8,x2,256
    1638:	05aa                	slli	x11,x11,0xa
    163a:	000000a7          	0xa7
    163e:	0004                	0x4
    1640:	3e04                	fld	f9,56(x12)
    1642:	0008                	0x8
  FP_DIV_S (R, A, B);
    1644:	0200                	addi	x8,x2,256
    1646:	00d903ab          	0xd903ab
    164a:	0000                	unimp
    164c:	9804                	0x9804
    164e:	0008                	0x8
    1650:	0200                	addi	x8,x2,256
    1652:	006a1baf          	0x6a1baf
    1656:	0000                	unimp
    1658:	040c                	addi	x11,x2,512
    165a:	a904                	fsd	f9,16(x10)
    165c:	0009                	c.nop	2
    165e:	0400                	addi	x8,x2,512
    1660:	1916                	slli	x18,x18,0x25
    1662:	005c                	addi	x15,x2,4
    1664:	0000                	unimp
    1666:	ba0d                	j	f98 <kernel_float_vec_exp+0x60>
    1668:	0006                	c.slli	x0,0x1
    166a:	1800                	addi	x8,x2,48
    166c:	2f04                	fld	f9,24(x14)
    166e:	7d08                	flw	f10,56(x10)
    1670:	0001                	nop
    1672:	0b00                	addi	x8,x2,400
    1674:	000008eb          	0x8eb
    1678:	3104                	fld	f9,32(x10)
    167a:	00017d13          	andi	x26,x2,0
    167e:	0000                	unimp
    1680:	5f0e                	lw	x30,224(x2)
    1682:	3204006b          	0x3204006b
    1686:	00001d07          	0x1d07
    168a:	0400                	addi	x8,x2,512
    168c:	0009330b          	0x9330b
    1690:	0400                	addi	x8,x2,512
    1692:	0b32                	slli	x22,x22,0xc
    1694:	001d                	c.nop	7
    1696:	0000                	unimp
    1698:	0b08                	addi	x10,x2,400
    169a:	06ac                	addi	x11,x2,840
    169c:	0000                	unimp
    169e:	3204                	fld	f9,32(x12)
    16a0:	1d14                	addi	x13,x2,688
    16a2:	0000                	unimp
    16a4:	0c00                	addi	x8,x2,528
    16a6:	0006280b          	0x6280b
    16aa:	0400                	addi	x8,x2,512
    16ac:	1b32                	slli	x22,x22,0x2c
    16ae:	001d                	c.nop	7
    16b0:	0000                	unimp
    16b2:	0e10                	addi	x12,x2,784
    16b4:	785f 0400 0b33      	0xb330400785f
    16ba:	00000183          	lb	x3,0(x0) # 0 <_start>
    16be:	0014                	0x14
    16c0:	0123040f          	0x123040f
    16c4:	0000                	unimp
    16c6:	1708                	addi	x10,x2,928
    16c8:	0001                	nop
    16ca:	9300                	0x9300
    16cc:	0001                	nop
    16ce:	0900                	addi	x8,x2,144
    16d0:	0024                	addi	x9,x2,8
    16d2:	0000                	unimp
    16d4:	0000                	unimp
    16d6:	da0d                	beqz	x12,1608 <_tls_data+0x128>
    16d8:	0006                	c.slli	x0,0x1
    16da:	2400                	fld	f8,8(x8)
    16dc:	3704                	fld	f9,40(x14)
    16de:	1608                	addi	x10,x2,800
    16e0:	0002                	c.slli64	x0
    16e2:	0b00                	addi	x8,x2,400
  FP_PACK_S (r, R);
    16e4:	05c0                	addi	x8,x2,708
    16e6:	0000                	unimp
    16e8:	3904                	fld	f9,48(x10)
    16ea:	1d09                	addi	x26,x26,-30
    16ec:	0000                	unimp
    16ee:	0000                	unimp
    16f0:	000a4c0b          	0xa4c0b
    16f4:	0400                	addi	x8,x2,512
    16f6:	093a                	slli	x18,x18,0xe
    16f8:	001d                	c.nop	7
    16fa:	0000                	unimp
    16fc:	0b04                	addi	x9,x2,400
    16fe:	05dc                	addi	x15,x2,708
    1700:	0000                	unimp
    1702:	3b04                	fld	f9,48(x14)
    1704:	1d09                	addi	x26,x26,-30
    1706:	0000                	unimp
    1708:	0800                	addi	x8,x2,16
    170a:	000aae0b          	0xaae0b
    170e:	0400                	addi	x8,x2,512
    1710:	093c                	addi	x15,x2,152
    1712:	001d                	c.nop	7
    1714:	0000                	unimp
    1716:	0b0c                	addi	x11,x2,400
    1718:	07fd                	addi	x15,x15,31
    171a:	0000                	unimp
    171c:	3d04                	fld	f9,56(x10)
    171e:	1d09                	addi	x26,x26,-30
    1720:	0000                	unimp
    1722:	1000                	addi	x8,x2,32
    1724:	0007b10b          	0x7b10b
    1728:	0400                	addi	x8,x2,512
    172a:	093e                	slli	x18,x18,0xf
    172c:	001d                	c.nop	7
    172e:	0000                	unimp
    1730:	0b14                	addi	x13,x2,400
    1732:	09e1                	addi	x19,x19,24
    1734:	0000                	unimp
    1736:	3f04                	fld	f9,56(x14)
    1738:	1d09                	addi	x26,x26,-30
    173a:	0000                	unimp
    173c:	1800                	addi	x8,x2,48
    173e:	0008a10b          	0x8a10b
    1742:	0400                	addi	x8,x2,512
    1744:	0940                	addi	x8,x2,148
    1746:	001d                	c.nop	7
    1748:	0000                	unimp
    174a:	0b1c                	addi	x15,x2,400
    174c:	0a32                	slli	x20,x20,0xc
    174e:	0000                	unimp
    1750:	4104                	lw	x9,0(x10)
    1752:	1d09                	addi	x26,x26,-30
    1754:	0000                	unimp
    1756:	2000                	fld	f8,0(x8)
    1758:	1000                	addi	x8,x2,32
    175a:	000005fb          	0x5fb
    175e:	0108                	addi	x10,x2,128
    1760:	4a04                	lw	x9,16(x12)
    1762:	5b08                	lw	x10,48(x14)
  FP_HANDLE_EXCEPTIONS;
    1764:	0002                	c.slli64	x0
    1766:	0b00                	addi	x8,x2,400
    1768:	069f 0000 4b04      	0x4b040000069f
}
    176e:	5b0a                	lw	x22,160(x2)
    1770:	0002                	c.slli64	x0
    1772:	0000                	unimp
    1774:	0008740b          	0x8740b
    1778:	0400                	addi	x8,x2,512
    177a:	094c                	addi	x11,x2,148
    177c:	0000025b          	0x25b
    1780:	1180                	addi	x8,x2,224
    1782:	0000099b          	0x99b
    1786:	4e04                	lw	x9,24(x12)
    1788:	170a                	slli	x14,x14,0x22
    178a:	0001                	nop
    178c:	0000                	unimp
    178e:	1101                	addi	x2,x2,-32
    1790:	0620                	addi	x8,x2,776
    1792:	0000                	unimp
    1794:	5104                	lw	x9,32(x10)
    1796:	170a                	slli	x14,x14,0x22
  FP_DIV_S (R, A, B);
    1798:	0001                	nop
    179a:	0400                	addi	x8,x2,512
    179c:	0001                	nop
    179e:	1508                	addi	x10,x2,672
    17a0:	0001                	nop
    17a2:	6b00                	flw	f8,16(x14)
  FP_UNPACK_S (A, a);
    17a4:	0002                	c.slli64	x0
    17a6:	0900                	addi	x8,x2,144
  FP_DIV_S (R, A, B);
    17a8:	0024                	addi	x9,x2,8
    17aa:	0000                	unimp
    17ac:	001f 0610 0008      	0x80610001f
  FP_PACK_S (r, R);
    17b2:	9000                	0x9000
    17b4:	0401                	addi	x8,x8,0
    17b6:	085d                	addi	x16,x16,23
    17b8:	02ae                	slli	x5,x5,0xb
    17ba:	0000                	unimp
    17bc:	0008eb0b          	0x8eb0b
    17c0:	0400                	addi	x8,x2,512
    17c2:	125e                	slli	x4,x4,0x37
    17c4:	02ae                	slli	x5,x5,0xb
    17c6:	0000                	unimp
    17c8:	0b00                	addi	x8,x2,400
    17ca:	00000903          	lb	x18,0(x0) # 0 <_start>
  FP_UNPACK_S (B, b);
    17ce:	5f04                	lw	x9,56(x14)
  FP_DIV_S (R, A, B);
    17d0:	1d06                	slli	x26,x26,0x21
    17d2:	0000                	unimp
    17d4:	0400                	addi	x8,x2,512
    17d6:	0006a70b          	0x6a70b
  FP_PACK_S (r, R);
    17da:	0400                	addi	x8,x2,512
    17dc:	0961                	addi	x18,x18,24
    17de:	02b4                	addi	x13,x2,328
    17e0:	0000                	unimp
    17e2:	0b08                	addi	x10,x2,400
  FP_DIV_S (R, A, B);
    17e4:	000005fb          	0x5fb
    17e8:	6204                	flw	f9,0(x12)
    17ea:	161e                	slli	x12,x12,0x27
    17ec:	0002                	c.slli64	x0
    17ee:	8800                	0x8800
    17f0:	0f00                	addi	x8,x2,912
    17f2:	6b04                	flw	f9,16(x14)
  FP_PACK_S (r, R);
    17f4:	0002                	c.slli64	x0
    17f6:	0800                	addi	x8,x2,16
    17f8:	02c4                	addi	x9,x2,324
    17fa:	0000                	unimp
    17fc:	02c4                	addi	x9,x2,324
    17fe:	0000                	unimp
    1800:	2409                	jal	1a02 <__extendsfdf2+0x3a>
    1802:	0000                	unimp
    1804:	1f00                	addi	x8,x2,944
    1806:	0f00                	addi	x8,x2,912
    1808:	ca04                	sw	x9,16(x12)
    180a:	0002                	c.slli64	x0
    180c:	1200                	addi	x8,x2,288
    180e:	ab0d                	j	1d40 <_gp+0x118>
    1810:	0008                	0x8
    1812:	0800                	addi	x8,x2,16
    1814:	7504                	flw	f9,40(x10)
    1816:	f308                	fsw	f10,32(x14)
    1818:	0002                	c.slli64	x0
    181a:	0b00                	addi	x8,x2,400
    181c:	05d6                	slli	x11,x11,0x15
    181e:	0000                	unimp
    1820:	7604                	flw	f9,40(x12)
    1822:	f311                	bnez	x14,1726 <__clz_tab+0x6>
    1824:	0002                	c.slli64	x0
    1826:	0000                	unimp
    1828:	0004e70b          	0x4e70b
    182c:	0400                	addi	x8,x2,512
    182e:	001d0677          	0x1d0677
    1832:	0000                	unimp
    1834:	0004                	0x4
    1836:	0040040f          	0x40040f
    183a:	0000                	unimp
    183c:	d40d                	beqz	x8,1766 <__clz_tab+0x46>
    183e:	0008                	0x8
    1840:	6800                	flw	f8,16(x8)
    1842:	b504                	fsd	f9,40(x10)
    1844:	3c08                	fld	f10,56(x8)
    1846:	0004                	0x4
    1848:	0e00                	addi	x8,x2,784
    184a:	705f 0400 12b6      	0x12b60400705f
    1850:	000002f3          	0x2f3
    1854:	0e00                	addi	x8,x2,784
    1856:	725f 0400 07b7      	0x7b70400725f
    185c:	001d                	c.nop	7
    185e:	0000                	unimp
    1860:	0e04                	addi	x9,x2,784
    1862:	775f 0400 07b8      	0x7b80400775f
    1868:	001d                	c.nop	7
    186a:	0000                	unimp
    186c:	0b08                	addi	x10,x2,400
    186e:	0619                	addi	x12,x12,6
    1870:	0000                	unimp
    1872:	b904                	fsd	f9,48(x10)
    1874:	4709                	li	x14,2
    1876:	0000                	unimp
    1878:	0c00                	addi	x8,x2,528
    187a:	0007060b          	0x7060b
    187e:	0400                	addi	x8,x2,512
    1880:	09ba                	slli	x19,x19,0xe
    1882:	00000047          	fmsub.s	f0,f0,f0,f0,rne
    1886:	0e0e                	slli	x28,x28,0x3
    1888:	625f 0066 bb04      	0xbb040066625f
    188e:	cb11                	beqz	x14,18a2 <_bsg_data_end_addr+0x82>
    1890:	0002                	c.slli64	x0
    1892:	1000                	addi	x8,x2,32
    1894:	0005690b          	0x5690b
    1898:	0400                	addi	x8,x2,512
    189a:	07bc                	addi	x15,x2,968
    189c:	001d                	c.nop	7
    189e:	0000                	unimp
    18a0:	0b18                	addi	x14,x2,400
    18a2:	0609                	addi	x12,x12,2
    18a4:	0000                	unimp
    18a6:	c304                	sw	x9,0(x14)
    18a8:	150a                	slli	x10,x10,0x22
    18aa:	0001                	nop
    18ac:	1c00                	addi	x8,x2,560
    18ae:	00085b0b          	0x85b0b
    18b2:	0400                	addi	x8,x2,512
    18b4:	1dc5                	addi	x27,x27,-15
    18b6:	05c0                	addi	x8,x2,708
    18b8:	0000                	unimp
    18ba:	0b20                	addi	x8,x2,408
    18bc:	07aa                	slli	x15,x15,0xa
    18be:	0000                	unimp
    18c0:	c704                	sw	x9,8(x14)
    18c2:	ef1d                	bnez	x14,1900 <_bsg_data_end_addr+0xe0>
    18c4:	0005                	c.nop	1
    18c6:	2400                	fld	f8,8(x8)
    18c8:	0009580b          	0x9580b
    18cc:	0400                	addi	x8,x2,512
    18ce:	0dca                	slli	x27,x27,0x12
    18d0:	00000613          	li	x12,0
    18d4:	0b28                	addi	x10,x2,408
    18d6:	05c9                	addi	x11,x11,18
    18d8:	0000                	unimp
    18da:	cb04                	sw	x9,16(x14)
    18dc:	2d09                	jal	1eee <__kernel_return+0x26>
    18de:	0006                	c.slli	x0,0x1
    18e0:	2c00                	fld	f8,24(x8)
    18e2:	5f0e                	lw	x30,224(x2)
    18e4:	6275                	lui	x4,0x1d
    18e6:	0400                	addi	x8,x2,512
    18e8:	11ce                	slli	x3,x3,0x33
    18ea:	000002cb          	fnmsub.s	f5,f0,f0,f0,rne
    18ee:	0e30                	addi	x12,x2,792
    18f0:	755f 0070 cf04      	0xcf040070755f
    18f6:	f312                	fsw	f4,164(x2)
    18f8:	0002                	c.slli64	x0
    18fa:	3800                	fld	f8,48(x8)
    18fc:	5f0e                	lw	x30,224(x2)
    18fe:	7275                	lui	x4,0xffffd
    1900:	0400                	addi	x8,x2,512
    1902:	07d0                	addi	x12,x2,964
    1904:	001d                	c.nop	7
    1906:	0000                	unimp
    1908:	0b3c                	addi	x15,x2,408
    190a:	05d0                	addi	x12,x2,708
    190c:	0000                	unimp
    190e:	d304                	sw	x9,32(x14)
    1910:	3311                	jal	1614 <_tls_data+0x134>
    1912:	0006                	c.slli	x0,0x1
    1914:	4000                	lw	x8,0(x8)
    1916:	000a240b          	0xa240b
    191a:	0400                	addi	x8,x2,512
    191c:	11d4                	addi	x13,x2,228
    191e:	00000643          	fmadd.s	f12,f0,f0,f0,rne
    1922:	6c5f0e43          	0x6c5f0e43
    1926:	0062                	c.slli	x0,0x18
    1928:	d704                	sw	x9,40(x14)
    192a:	cb11                	beqz	x14,193e <_bsg_data_end_addr+0x11e>
    192c:	0002                	c.slli64	x0
    192e:	4400                	lw	x8,8(x8)
    1930:	00096f0b          	0x96f0b
    1934:	0400                	addi	x8,x2,512
    1936:	07da                	slli	x15,x15,0x16
    1938:	001d                	c.nop	7
    193a:	0000                	unimp
    193c:	0b4c                	addi	x11,x2,404
    193e:	07d9                	addi	x15,x15,22
    1940:	0000                	unimp
    1942:	db04                	sw	x9,48(x14)
    1944:	760a                	flw	f12,160(x2)
    1946:	0000                	unimp
    1948:	5000                	lw	x8,32(x8)
    194a:	0005260b          	0x5260b
    194e:	0400                	addi	x8,x2,512
    1950:	12de                	slli	x5,x5,0x37
    1952:	045a                	slli	x8,x8,0x16
    1954:	0000                	unimp
    1956:	0b54                	addi	x13,x2,404
    1958:	0770                	addi	x12,x2,908
    195a:	0000                	unimp
    195c:	e204                	fsw	f9,0(x12)
    195e:	090c                	addi	x11,x2,144
    1960:	0001                	nop
    1962:	5800                	lw	x8,48(x8)
    1964:	0006ee0b          	0x6ee0b
    1968:	0400                	addi	x8,x2,512
    196a:	0ee4                	addi	x9,x2,860
    196c:	00fd                	addi	x1,x1,31
    196e:	0000                	unimp
    1970:	0b5c                	addi	x15,x2,404
    1972:	08b2                	slli	x17,x17,0xc
    1974:	0000                	unimp
    1976:	e504                	fsw	f9,8(x10)
    1978:	1d09                	addi	x26,x26,-30
    197a:	0000                	unimp
    197c:	6400                	flw	f8,8(x8)
    197e:	1300                	addi	x8,x2,416
    1980:	008e                	slli	x1,x1,0x3
    1982:	0000                	unimp
    1984:	045a                	slli	x8,x8,0x16
    1986:	0000                	unimp
    1988:	5a14                	lw	x13,48(x12)
    198a:	0004                	0x4
    198c:	1400                	addi	x8,x2,544
    198e:	0115                	addi	x2,x2,5
    1990:	0000                	unimp
    1992:	ae14                	fsd	f13,24(x12)
    1994:	0005                	c.nop	1
    1996:	1400                	addi	x8,x2,544
    1998:	001d                	c.nop	7
    199a:	0000                	unimp
    199c:	0f00                	addi	x8,x2,912
    199e:	6504                	flw	f9,8(x10)
    19a0:	0004                	0x4
    19a2:	1500                	addi	x8,x2,672
    19a4:	045a                	slli	x8,x8,0x16
    19a6:	0000                	unimp
  FP_DIV_S (R, A, B);
    19a8:	3b16                	fld	f22,352(x2)
    19aa:	0009                	c.nop	2
    19ac:	2800                	fld	f8,16(x8)
    19ae:	0404                	addi	x9,x2,512
  FP_PACK_S (r, R);
    19b0:	0260                	addi	x8,x2,268
    19b2:	ae08                	fsd	f10,24(x12)
    19b4:	0005                	c.nop	1
    19b6:	1700                	addi	x8,x2,928
    19b8:	0891                	addi	x17,x17,4
    19ba:	0000                	unimp
    19bc:	6204                	flw	f9,0(x12)
    19be:	0702                	c.slli64	x14
    19c0:	001d                	c.nop	7
    19c2:	0000                	unimp
    19c4:	1700                	addi	x8,x2,928
    19c6:	09f1                	addi	x19,x19,28
{
    19c8:	0000                	unimp
    19ca:	6704                	flw	f9,8(x14)
    19cc:	0b02                	c.slli64	x22
    19ce:	069f 0000 1704      	0x17040000069f
    19d4:	09d9                	addi	x19,x19,22
    19d6:	0000                	unimp
    19d8:	6704                	flw	f9,8(x14)
    19da:	1402                	slli	x8,x8,0x20
  FP_INIT_EXCEPTIONS;
    19dc:	069f 0000 1708      	0x17080000069f
  FP_UNPACK_RAW_S (A, a);
    19e2:	06b2                	slli	x13,x13,0xc
    19e4:	0000                	unimp
    19e6:	6704                	flw	f9,8(x14)
  FP_EXTEND (D, S, 2, 1, R, A);
    19e8:	1e02                	slli	x28,x28,0x20
    19ea:	069f 0000 170c      	0x170c0000069f
    19f0:	08fe                	slli	x17,x17,0x1f
    19f2:	0000                	unimp
  FP_UNPACK_RAW_S (A, a);
    19f4:	6904                	flw	f9,16(x10)
    19f6:	0802                	c.slli64	x16
    19f8:	001d                	c.nop	7
    19fa:	0000                	unimp
  FP_EXTEND (D, S, 2, 1, R, A);
    19fc:	1710                	addi	x12,x2,928
    19fe:	04f5                	addi	x9,x9,29
    1a00:	0000                	unimp
    1a02:	6a04                	flw	f9,16(x12)
  FP_DECL_EX;
    1a04:	0802                	c.slli64	x16
    1a06:	089f 0000 1714      	0x17140000089f
  FP_EXTEND (D, S, 2, 1, R, A);
    1a0c:	091a                	slli	x18,x18,0x6
    1a0e:	0000                	unimp
  FP_PACK_RAW_D (r, R);
    1a10:	6d04                	flw	f9,24(x10)
    1a12:	0702                	c.slli64	x14
    1a14:	001d                	c.nop	7
    1a16:	0000                	unimp
    1a18:	1730                	addi	x12,x2,936
    1a1a:	0908                	addi	x10,x2,144
    1a1c:	0000                	unimp
    1a1e:	6e04                	flw	f9,24(x12)
    1a20:	1602                	slli	x12,x12,0x20
    1a22:	08b4                	addi	x13,x2,88
    1a24:	0000                	unimp
    1a26:	1734                	addi	x13,x2,936
    1a28:	0818                	addi	x14,x2,16
    1a2a:	0000                	unimp
    1a2c:	7004                	flw	f9,32(x8)
    1a2e:	0702                	c.slli64	x14
  FP_HANDLE_EXCEPTIONS;
    1a30:	001d                	c.nop	7
    1a32:	0000                	unimp
    1a34:	1738                	addi	x14,x2,936
    1a36:	0910                	addi	x12,x2,144
}
    1a38:	0000                	unimp
    1a3a:	7204                	flw	f9,32(x12)
    1a3c:	0a02                	c.slli64	x20
    1a3e:	08c5                	addi	x17,x17,17
    1a40:	0000                	unimp
    1a42:	173c                	addi	x15,x2,936
    1a44:	0748                	addi	x10,x2,900
    1a46:	0000                	unimp
    1a48:	7504                	flw	f9,40(x10)
    1a4a:	1302                	slli	x6,x6,0x20
    1a4c:	017d                	addi	x2,x2,31
    1a4e:	0000                	unimp
  FP_EXTEND (D, S, 2, 1, R, A);
    1a50:	1740                	addi	x8,x2,932
    1a52:	0634                	addi	x13,x2,776
    1a54:	0000                	unimp
    1a56:	7604                	flw	f9,40(x12)
    1a58:	0702                	c.slli64	x14
    1a5a:	001d                	c.nop	7
    1a5c:	0000                	unimp
    1a5e:	1744                	addi	x9,x2,932
    1a60:	00000a83          	lb	x21,0(x0) # 0 <_start>
    1a64:	7704                	flw	f9,40(x14)
    1a66:	1302                	slli	x6,x6,0x20
    1a68:	017d                	addi	x2,x2,31
    1a6a:	0000                	unimp
    1a6c:	1748                	addi	x10,x2,932
    1a6e:	082a                	slli	x16,x16,0xa
    1a70:	0000                	unimp
    1a72:	7804                	flw	f9,48(x8)
    1a74:	1402                	slli	x8,x8,0x20
    1a76:	000008cb          	fnmsub.s	f17,f0,f0,f0,rne
    1a7a:	174c                	addi	x11,x2,932
    1a7c:	06fe                	slli	x13,x13,0x1f
    1a7e:	0000                	unimp
    1a80:	7b04                	flw	f9,48(x14)
    1a82:	0702                	c.slli64	x14
    1a84:	001d                	c.nop	7
    1a86:	0000                	unimp
    1a88:	1750                	addi	x12,x2,932
    1a8a:	0000066b          	0x66b
    1a8e:	7c04                	flw	f9,56(x8)
    1a90:	0902                	c.slli64	x18
    1a92:	05ae                	slli	x11,x11,0xb
    1a94:	0000                	unimp
    1a96:	1754                	addi	x13,x2,932
    1a98:	088a                	slli	x17,x17,0x2
    1a9a:	0000                	unimp
    1a9c:	9f04                	0x9f04
    1a9e:	0702                	c.slli64	x14
    1aa0:	087a                	slli	x16,x16,0x1e
    1aa2:	0000                	unimp
    1aa4:	1858                	addi	x14,x2,52
    1aa6:	0806                	slli	x16,x16,0x1
    1aa8:	0000                	unimp
    1aaa:	a304                	fsd	f9,0(x14)
    1aac:	1302                	slli	x6,x6,0x20
    1aae:	02ae                	slli	x5,x5,0xb
    1ab0:	0000                	unimp
    1ab2:	0148                	addi	x10,x2,132
    1ab4:	2618                	fld	f14,8(x12)
    1ab6:	04000007          	0x4000007
    1aba:	02a4                	addi	x9,x2,328
    1abc:	6b12                	flw	f22,4(x2)
    1abe:	0002                	c.slli64	x0
    1ac0:	4c00                	lw	x8,24(x8)
    1ac2:	1801                	addi	x16,x16,-32
    1ac4:	00000a0b          	0xa0b
    1ac8:	a804                	fsd	f9,16(x8)
    1aca:	0c02                	c.slli64	x24
    1acc:	08dc                	addi	x15,x2,84
    1ace:	0000                	unimp
  FP_INIT_ROUNDMODE;
    1ad0:	02dc                	addi	x15,x2,324
    1ad2:	1118                	addi	x14,x2,160
  FP_UNPACK_SEMIRAW_D (A, a);
    1ad4:	0006                	c.slli	x0,0x1
    1ad6:	0400                	addi	x8,x2,512
    1ad8:	02ad                	addi	x5,x5,11
    1ada:	6010                	flw	f12,0(x8)
    1adc:	0006                	c.slli	x0,0x1
    1ade:	e000                	fsw	f8,0(x8)
    1ae0:	1802                	slli	x16,x16,0x20
    1ae2:	05f6                	slli	x11,x11,0x1d
    1ae4:	0000                	unimp
    1ae6:	af04                	fsd	f9,24(x14)
  FP_TRUNC (S, D, 1, 2, R, A);
    1ae8:	0a02                	c.slli64	x20
    1aea:	08e8                	addi	x10,x2,92
  FP_UNPACK_SEMIRAW_D (A, a);
    1aec:	0000                	unimp
    1aee:	02ec                	addi	x11,x2,332
  FP_TRUNC (S, D, 1, 2, R, A);
    1af0:	0f00                	addi	x8,x2,912
    1af2:	b404                	fsd	f9,40(x8)
  FP_UNPACK_SEMIRAW_D (A, a);
    1af4:	0005                	c.nop	1
    1af6:	0300                	addi	x8,x2,384
    1af8:	0801                	addi	x16,x16,0
    1afa:	0148                	addi	x10,x2,132
    1afc:	0000                	unimp
    1afe:	b415                	j	1522 <_tls_data+0x42>
  FP_TRUNC (S, D, 1, 2, R, A);
    1b00:	0005                	c.nop	1
    1b02:	0f00                	addi	x8,x2,912
    1b04:	3c04                	fld	f9,56(x8)
    1b06:	0004                	0x4
    1b08:	1300                	addi	x8,x2,416
    1b0a:	008e                	slli	x1,x1,0x3
    1b0c:	0000                	unimp
    1b0e:	05e4                	addi	x9,x2,716
    1b10:	0000                	unimp
    1b12:	5a14                	lw	x13,48(x12)
    1b14:	0004                	0x4
    1b16:	1400                	addi	x8,x2,544
    1b18:	0115                	addi	x2,x2,5
    1b1a:	0000                	unimp
    1b1c:	e414                	fsw	f13,8(x8)
    1b1e:	0005                	c.nop	1
    1b20:	1400                	addi	x8,x2,544
    1b22:	001d                	c.nop	7
    1b24:	0000                	unimp
    1b26:	0f00                	addi	x8,x2,912
  FP_PACK_SEMIRAW_S (r, R);
    1b28:	bb04                	fsd	f9,48(x14)
    1b2a:	0005                	c.nop	1
  FP_TRUNC (S, D, 1, 2, R, A);
    1b2c:	1500                	addi	x8,x2,672
    1b2e:	05e4                	addi	x9,x2,716
  FP_PACK_SEMIRAW_S (r, R);
    1b30:	0000                	unimp
    1b32:	05c6040f          	0x5c6040f
    1b36:	0000                	unimp
    1b38:	00008213          	mv	x4,x1
    1b3c:	1300                	addi	x8,x2,416
    1b3e:	0006                	c.slli	x0,0x1
    1b40:	1400                	addi	x8,x2,544
    1b42:	045a                	slli	x8,x8,0x16
    1b44:	0000                	unimp
    1b46:	1514                	addi	x13,x2,672
    1b48:	0001                	nop
    1b4a:	1400                	addi	x8,x2,544
    1b4c:	0082                	c.slli64	x1
    1b4e:	0000                	unimp
    1b50:	1d14                	addi	x13,x2,688
    1b52:	0000                	unimp
    1b54:	0000                	unimp
    1b56:	05f5040f          	0x5f5040f
    1b5a:	0000                	unimp
    1b5c:	00001d13          	slli	x26,x0,0x0
    1b60:	2d00                	fld	f8,24(x10)
    1b62:	0006                	c.slli	x0,0x1
  FP_TRUNC (S, D, 1, 2, R, A);
    1b64:	1400                	addi	x8,x2,544
    1b66:	045a                	slli	x8,x8,0x16
    1b68:	0000                	unimp
    1b6a:	1514                	addi	x13,x2,672
    1b6c:	0001                	nop
    1b6e:	0000                	unimp
    1b70:	0619040f          	0x619040f
    1b74:	0000                	unimp
    1b76:	4008                	lw	x10,0(x8)
    1b78:	0000                	unimp
    1b7a:	4300                	lw	x8,0(x14)
  FP_PACK_SEMIRAW_S (r, R);
    1b7c:	0006                	c.slli	x0,0x1
    1b7e:	0900                	addi	x8,x2,144
    1b80:	0024                	addi	x9,x2,8
    1b82:	0000                	unimp
    1b84:	0002                	c.slli64	x0
    1b86:	4008                	lw	x10,0(x8)
    1b88:	0000                	unimp
    1b8a:	5300                	lw	x8,32(x14)
    1b8c:	0006                	c.slli	x0,0x1
    1b8e:	0900                	addi	x8,x2,144
    1b90:	0024                	addi	x9,x2,8
    1b92:	0000                	unimp
    1b94:	0000                	unimp
    1b96:	2d05                	jal	21c6 <_bsg_elf_stack_ptr+0x1ca>
    1b98:	0006                	c.slli	x0,0x1
    1b9a:	0400                	addi	x8,x2,512
    1b9c:	011f f91a 0002      	0x2f91a011f
    1ba2:	1900                	addi	x8,x2,176
    1ba4:	000009eb          	0x9eb
    1ba8:	040c                	addi	x11,x2,512
    1baa:	99080123          	sb	x16,-1662(x16)
    1bae:	0006                	c.slli	x0,0x1
    1bb0:	1700                	addi	x8,x2,928
    1bb2:	000008eb          	0x8eb
    1bb6:	2504                	fld	f9,8(x10)
    1bb8:	1101                	addi	x2,x2,-32
    1bba:	0699                	addi	x13,x13,6
    1bbc:	0000                	unimp
    1bbe:	1700                	addi	x8,x2,928
    1bc0:	0716                	slli	x14,x14,0x5
    1bc2:	0000                	unimp
    1bc4:	2604                	fld	f9,8(x12)
    1bc6:	0701                	addi	x14,x14,0
    1bc8:	001d                	c.nop	7
    1bca:	0000                	unimp
    1bcc:	1704                	addi	x9,x2,928
    1bce:	08ba                	slli	x17,x17,0xe
    1bd0:	0000                	unimp
    1bd2:	2704                	fld	f9,8(x14)
  FP_HANDLE_EXCEPTIONS;
    1bd4:	0b01                	addi	x22,x22,0
    1bd6:	069f 0000 0008      	0x80000069f
  return r;
    1bdc:	0660040f          	0x660040f
  FP_TRUNC (S, D, 1, 2, R, A);
    1be0:	0000                	unimp
    1be2:	0653040f          	0x653040f
    1be6:	0000                	unimp
    1be8:	ed19                	bnez	x10,1c06 <__truncdfsf2+0x136>
    1bea:	0004                	0x4
    1bec:	0e00                	addi	x8,x2,784
    1bee:	3f04                	fld	f9,56(x14)
    1bf0:	0801                	addi	x16,x16,0
    1bf2:	06de                	slli	x13,x13,0x17
    1bf4:	0000                	unimp
    1bf6:	00094217          	auipc	x4,0x94
    1bfa:	0400                	addi	x8,x2,512
    1bfc:	0140                	addi	x8,x2,132
    1bfe:	de12                	sw	x4,60(x2)
    1c00:	0006                	c.slli	x0,0x1
    1c02:	0000                	unimp
    1c04:	00078c17          	auipc	x24,0x78
    1c08:	0400                	addi	x8,x2,512
    1c0a:	0141                	addi	x2,x2,16
    1c0c:	de12                	sw	x4,60(x2)
    1c0e:	0006                	c.slli	x0,0x1
    1c10:	0600                	addi	x8,x2,768
    1c12:	0009a417          	auipc	x8,0x9a
    1c16:	0400                	addi	x8,x2,512
    1c18:	0142                	slli	x2,x2,0x10
    1c1a:	4e12                	lw	x28,4(x2)
    1c1c:	0000                	unimp
    1c1e:	0c00                	addi	x8,x2,528
  FP_PACK_SEMIRAW_S (r, R);
    1c20:	0800                	addi	x8,x2,16
    1c22:	004e                	c.slli	x0,0x13
    1c24:	0000                	unimp
    1c26:	06ee                	slli	x13,x13,0x1b
    1c28:	0000                	unimp
    1c2a:	2409                	jal	1e2c <__init_param+0xc>
    1c2c:	0000                	unimp
    1c2e:	0200                	addi	x8,x2,256
    1c30:	1a00                	addi	x8,x2,304
    1c32:	04d0                	addi	x12,x2,580
    1c34:	0280                	addi	x8,x2,320
    1c36:	00080307          	0x80307
    1c3a:	1700                	addi	x8,x2,928
    1c3c:	000007bb          	0x7bb
    1c40:	8204                	0x8204
    1c42:	1802                	slli	x16,x16,0x20
    1c44:	0024                	addi	x9,x2,8
    1c46:	0000                	unimp
    1c48:	1700                	addi	x8,x2,928
    1c4a:	00000987          	0x987
    1c4e:	8304                	0x8304
    1c50:	1202                	slli	x4,x4,0x20
    1c52:	05ae                	slli	x11,x11,0xb
    1c54:	0000                	unimp
    1c56:	1704                	addi	x9,x2,928
    1c58:	0000073b          	0x73b
    1c5c:	8404                	0x8404
    1c5e:	1002                	c.slli	x0,0x20
    1c60:	00000803          	lb	x16,0(x0) # 0 <_start>
    1c64:	1708                	addi	x10,x2,928
    1c66:	0a3d                	addi	x20,x20,15
    1c68:	0000                	unimp
    1c6a:	8504                	0x8504
    1c6c:	1702                	slli	x14,x14,0x20
    1c6e:	00000193          	li	x3,0
  FP_TRUNC (S, D, 1, 2, R, A);
    1c72:	1724                	addi	x9,x2,936
    1c74:	06c2                	slli	x13,x13,0x10
    1c76:	0000                	unimp
    1c78:	8604                	0x8604
    1c7a:	0f02                	c.slli64	x30
    1c7c:	001d                	c.nop	7
    1c7e:	0000                	unimp
    1c80:	1748                	addi	x10,x2,932
    1c82:	08e6                	slli	x17,x17,0x19
    1c84:	0000                	unimp
    1c86:	8704                	0x8704
    1c88:	2c02                	fld	f24,0(x2)
    1c8a:	00000063          	beqz	x0,1c8a <_gp+0x62>
    1c8e:	1750                	addi	x12,x2,932
    1c90:	0a55                	addi	x20,x20,21
    1c92:	0000                	unimp
    1c94:	8804                	0x8804
    1c96:	1a02                	slli	x20,x20,0x20
    1c98:	06a5                	addi	x13,x13,9
    1c9a:	0000                	unimp
    1c9c:	1758                	addi	x14,x2,932
    1c9e:	08f1                	addi	x17,x17,28
    1ca0:	0000                	unimp
    1ca2:	8904                	0x8904
    1ca4:	1602                	slli	x12,x12,0x20
    1ca6:	00fd                	addi	x1,x1,31
    1ca8:	0000                	unimp
    1caa:	1768                	addi	x10,x2,940
    1cac:	0a75                	addi	x20,x20,29
    1cae:	0000                	unimp
    1cb0:	8a04                	0x8a04
    1cb2:	1602                	slli	x12,x12,0x20
    1cb4:	00fd                	addi	x1,x1,31
    1cb6:	0000                	unimp
  FP_PACK_SEMIRAW_S (r, R);
    1cb8:	1770                	addi	x12,x2,940
    1cba:	05b2                	slli	x11,x11,0xc
  FP_DECL_EX;
    1cbc:	0000                	unimp
    1cbe:	8b04                	0x8b04
  FP_PACK_SEMIRAW_S (r, R);
    1cc0:	1602                	slli	x12,x12,0x20
    1cc2:	00fd                	addi	x1,x1,31
    1cc4:	0000                	unimp
    1cc6:	1778                	addi	x14,x2,940
    1cc8:	0a01                	addi	x20,x20,0
    1cca:	0000                	unimp
    1ccc:	8c04                	0x8c04
    1cce:	1002                	c.slli	x0,0x20
    1cd0:	00000813          	li	x16,0
  FP_TRUNC (S, D, 1, 2, R, A);
    1cd4:	1780                	addi	x8,x2,992
    1cd6:	0000072f          	0x72f
    1cda:	8d04                	0x8d04
    1cdc:	1002                	c.slli	x0,0x20
    1cde:	00000823          	sb	x0,16(x0) # 10 <bsg_group_size+0xc>
    1ce2:	1788                	addi	x10,x2,992
    1ce4:	0519                	addi	x10,x10,6
    1ce6:	0000                	unimp
    1ce8:	8e04                	0x8e04
    1cea:	0f02                	c.slli64	x30
  FP_DECL_EX;
    1cec:	001d                	c.nop	7
    1cee:	0000                	unimp
  FP_TRUNC (S, D, 1, 2, R, A);
    1cf0:	17a0                	addi	x8,x2,1000
    1cf2:	0684                	addi	x9,x2,832
    1cf4:	0000                	unimp
    1cf6:	8f04                	0x8f04
    1cf8:	1602                	slli	x12,x12,0x20
    1cfa:	00fd                	addi	x1,x1,31
  FP_DECL_EX;
    1cfc:	0000                	unimp
    1cfe:	17a4                	addi	x9,x2,1000
    1d00:	0000059b          	0x59b
  FP_TRUNC (S, D, 1, 2, R, A);
    1d04:	9004                	0x9004
    1d06:	1602                	slli	x12,x12,0x20
    1d08:	00fd                	addi	x1,x1,31
    1d0a:	0000                	unimp
    1d0c:	17ac                	addi	x11,x2,1000
    1d0e:	00000673          	0x673
    1d12:	9104                	0x9104
    1d14:	1602                	slli	x12,x12,0x20
    1d16:	00fd                	addi	x1,x1,31
    1d18:	0000                	unimp
    1d1a:	17b4                	addi	x13,x2,1000
    1d1c:	052c                	addi	x11,x2,648
    1d1e:	0000                	unimp
  FP_PACK_SEMIRAW_S (r, R);
    1d20:	9204                	0x9204
    1d22:	1602                	slli	x12,x12,0x20
    1d24:	00fd                	addi	x1,x1,31
    1d26:	0000                	unimp
    1d28:	17bc                	addi	x15,x2,1000
    1d2a:	0558                	addi	x14,x2,644
    1d2c:	0000                	unimp
    1d2e:	9304                	0x9304
    1d30:	1602                	slli	x12,x12,0x20
    1d32:	00fd                	addi	x1,x1,31
    1d34:	0000                	unimp
    1d36:	17c4                	addi	x9,x2,996
    1d38:	0000088f          	0x88f
    1d3c:	9404                	0x9404
    1d3e:	0802                	c.slli64	x16
    1d40:	001d                	c.nop	7
    1d42:	0000                	unimp
    1d44:	00cc                	addi	x11,x2,68
    1d46:	b408                	fsd	f10,40(x8)
  FP_DECL_EX;
    1d48:	0005                	c.nop	1
    1d4a:	1300                	addi	x8,x2,416
  FP_TRUNC (S, D, 1, 2, R, A);
    1d4c:	0008                	0x8
    1d4e:	0900                	addi	x8,x2,144
    1d50:	0024                	addi	x9,x2,8
    1d52:	0000                	unimp
    1d54:	0019                	c.nop	6
    1d56:	b408                	fsd	f10,40(x8)
    1d58:	0005                	c.nop	1
    1d5a:	2300                	fld	f8,0(x14)
    1d5c:	0008                	0x8
    1d5e:	0900                	addi	x8,x2,144
  FP_PACK_SEMIRAW_S (r, R);
    1d60:	0024                	addi	x9,x2,8
    1d62:	0000                	unimp
    1d64:	b4080007          	0xb4080007
    1d68:	0005                	c.nop	1
    1d6a:	3300                	fld	f8,32(x14)
    1d6c:	0008                	0x8
    1d6e:	0900                	addi	x8,x2,144
    1d70:	0024                	addi	x9,x2,8
    1d72:	0000                	unimp
    1d74:	f01a0017          	auipc	x0,0xf01a0
    1d78:	9904                	0x9904
    1d7a:	0702                	c.slli64	x14
    1d7c:	085a                	slli	x16,x16,0x16
    1d7e:	0000                	unimp
    1d80:	0007e817          	auipc	x16,0x7e
    1d84:	0400                	addi	x8,x2,512
    1d86:	029c                	addi	x15,x2,320
    1d88:	00085a1b          	0x85a1b
    1d8c:	0000                	unimp
    1d8e:	0006d117          	auipc	x2,0x6d
    1d92:	0400                	addi	x8,x2,512
    1d94:	029d                	addi	x5,x5,7
    1d96:	6a18                	flw	f14,16(x12)
    1d98:	0008                	0x8
    1d9a:	7800                	flw	f8,48(x8)
    1d9c:	0800                	addi	x8,x2,16
    1d9e:	000002f3          	0x2f3
    1da2:	086a                	slli	x16,x16,0x1a
    1da4:	0000                	unimp
    1da6:	2409                	jal	1fa8 <__kernel_return+0xe0>
}
    1da8:	0000                	unimp
    1daa:	1d00                	addi	x8,x2,688
    1dac:	0800                	addi	x8,x2,16
    1dae:	0024                	addi	x9,x2,8
    1db0:	0000                	unimp
    1db2:	087a                	slli	x16,x16,0x1e
    1db4:	0000                	unimp
    1db6:	2409                	jal	1fb8 <__kernel_return+0xf0>
    1db8:	0000                	unimp
    1dba:	1d00                	addi	x8,x2,688
    1dbc:	1b00                	addi	x8,x2,432
    1dbe:	04f0                	addi	x12,x2,588
    1dc0:	027e                	slli	x4,x4,0x1f
    1dc2:	00089f03          	lh	x30,0(x17) # 0 <_start>
    1dc6:	1c00                	addi	x8,x2,560
    1dc8:	0000093b          	0x93b
    1dcc:	9504                	0x9504
    1dce:	0b02                	c.slli64	x22
    1dd0:	06ee                	slli	x13,x13,0x1b
    1dd2:	0000                	unimp
    1dd4:	2a1c                	fld	f15,16(x12)
    1dd6:	000a                	c.slli	x0,0x2
    1dd8:	0400                	addi	x8,x2,512
    1dda:	029e                	slli	x5,x5,0x7
}
    1ddc:	0008330b          	0x8330b
    1de0:	0000                	unimp
    1de2:	b408                	fsd	f10,40(x8)
  count_leading_zeros (ret, x);
    1de4:	0005                	c.nop	1
    1de6:	af00                	fsd	f8,24(x14)
    1de8:	0008                	0x8
    1dea:	0900                	addi	x8,x2,144
    1dec:	0024                	addi	x9,x2,8
    1dee:	0000                	unimp
    1df0:	0018                	0x18
    1df2:	901d                	srli	x8,x8,0x27
    1df4:	0005                	c.nop	1
    1df6:	0f00                	addi	x8,x2,912
    1df8:	af04                	fsd	f9,24(x14)
    1dfa:	0008                	0x8
    1dfc:	1e00                	addi	x8,x2,816
    1dfe:	08c5                	addi	x17,x17,17
    1e00:	0000                	unimp
    1e02:	5a14                	lw	x13,48(x12)
    1e04:	0004                	0x4
    1e06:	0000                	unimp
    1e08:	08ba040f          	0x8ba040f
    1e0c:	0000                	unimp
    1e0e:	017d040f          	0x17d040f
    1e12:	0000                	unimp
    1e14:	dc1e                	sw	x7,56(x2)
    1e16:	0008                	0x8
    1e18:	1400                	addi	x8,x2,544
    1e1a:	001d                	c.nop	7
    1e1c:	0000                	unimp
    1e1e:	0f00                	addi	x8,x2,912
    1e20:	e204                	fsw	f9,0(x12)
    1e22:	0008                	0x8
    1e24:	0f00                	addi	x8,x2,912
    1e26:	d104                	sw	x9,32(x10)
    1e28:	0008                	0x8
    1e2a:	0800                	addi	x8,x2,16
    1e2c:	00000653          	fadd.s	f12,f0,f0,rne
    1e30:	08f8                	addi	x14,x2,92
    1e32:	0000                	unimp
    1e34:	2409                	jal	2036 <_bsg_elf_stack_ptr+0x3a>
    1e36:	0000                	unimp
    1e38:	0200                	addi	x8,x2,256
    1e3a:	1f00                	addi	x8,x2,944
    1e3c:	09cd                	addi	x19,x19,19
    1e3e:	0000                	unimp
    1e40:	2e04                	fld	f9,24(x12)
    1e42:	045a1703          	lh	x14,69(x20)
    1e46:	0000                	unimp
    1e48:	c61f 0009 0400      	0x4000009c61f
    1e4e:	601d032f          	0x601d032f
    1e52:	0004                	0x4
    1e54:	0800                	addi	x8,x2,16
    1e56:	05ea                	slli	x11,x11,0x1a
    1e58:	0000                	unimp
    1e5a:	091d                	addi	x18,x18,7
    1e5c:	0000                	unimp
    1e5e:	0020                	addi	x8,x2,8
    1e60:	1215                	addi	x4,x4,-27
    1e62:	0009                	c.nop	2
    1e64:	2100                	fld	f8,0(x10)
    1e66:	065e                	slli	x12,x12,0x17
    1e68:	0000                	unimp
    1e6a:	1405                	addi	x8,x8,-31
    1e6c:	1d24                	addi	x9,x2,696
    1e6e:	0009                	c.nop	2
    1e70:	2100                	fld	f8,0(x10)
    1e72:	08dc                	addi	x15,x2,84
    1e74:	0000                	unimp
    1e76:	1505                	addi	x10,x10,-31
    1e78:	1d15                	addi	x26,x26,-27
    1e7a:	0000                	unimp
    1e7c:	0f00                	addi	x8,x2,912
    1e7e:	4004                	lw	x9,0(x8)
    1e80:	0009                	c.nop	2
    1e82:	1300                	addi	x8,x2,416
    1e84:	001d                	c.nop	7
    1e86:	0000                	unimp
    1e88:	0954                	addi	x13,x2,148
    1e8a:	0000                	unimp
    1e8c:	5414                	lw	x13,40(x8)
    1e8e:	0009                	c.nop	2
    1e90:	1400                	addi	x8,x2,544
    1e92:	0954                	addi	x13,x2,148
    1e94:	0000                	unimp
    1e96:	0f00                	addi	x8,x2,912
    1e98:	5a04                	lw	x9,48(x12)
    1e9a:	0009                	c.nop	2
    1e9c:	2200                	fld	f8,0(x12)
    1e9e:	0e21                	addi	x28,x28,8
    1ea0:	0008                	0x8
    1ea2:	0600                	addi	x8,x2,768
    1ea4:	0e64                	addi	x9,x2,796
    1ea6:	05ae                	slli	x11,x11,0xb
    1ea8:	0000                	unimp
    1eaa:	6121                	addi	x2,x2,64
    1eac:	07000007          	0x7000007
    1eb0:	0f10                	addi	x12,x2,912
    1eb2:	00000973          	0x973
    1eb6:	05ae040f          	0x5ae040f
    1eba:	0000                	unimp
    1ebc:	1121                	addi	x2,x2,-24
    1ebe:	0008                	0x8
    1ec0:	0700                	addi	x8,x2,896
    1ec2:	0efc                	addi	x15,x2,860
    1ec4:	05ae                	slli	x11,x11,0xb
    1ec6:	0000                	unimp
    1ec8:	e121                	bnez	x10,1f08 <__kernel_return+0x40>
    1eca:	07000007          	0x7000007
    1ece:	0cfd                	addi	x25,x25,31
    1ed0:	001d                	c.nop	7
    1ed2:	0000                	unimp
    1ed4:	8021                	srli	x8,x8,0x8
    1ed6:	0009                	c.nop	2
    1ed8:	0700                	addi	x8,x2,896
    1eda:	14fd                	addi	x9,x9,-1
    1edc:	001d                	c.nop	7
    1ede:	0000                	unimp
    1ee0:	6421                	lui	x8,0x8
    1ee2:	000a                	c.slli	x0,0x2
    1ee4:	0700                	addi	x8,x2,896
    1ee6:	1cfd                	addi	x25,x25,-1
    1ee8:	001d                	c.nop	7
    1eea:	0000                	unimp
    1eec:	a121                	j	22f4 <_bsg_elf_stack_ptr+0x2f8>
    1eee:	07000007          	0x7000007
    1ef2:	0cff                	0xcff
    1ef4:	001d                	c.nop	7
    1ef6:	0000                	unimp
    1ef8:	3421                	jal	1900 <_bsg_data_end_addr+0xe0>
    1efa:	0008                	0x8
    1efc:	0800                	addi	x8,x2,16
    1efe:	169a                	slli	x13,x13,0x26
    1f00:	0055                	c.nop	21
    1f02:	0000                	unimp
    1f04:	0021                	c.nop	8
    1f06:	0005                	c.nop	1
    1f08:	0800                	addi	x8,x2,16
    1f0a:	001d159b          	0x1d159b
    1f0e:	0000                	unimp
    1f10:	ae08                	fsd	f10,24(x12)
    1f12:	0005                	c.nop	1
    1f14:	dd00                	sw	x8,56(x10)
    1f16:	0009                	c.nop	2
    1f18:	0900                	addi	x8,x2,144
    1f1a:	0024                	addi	x9,x2,8
    1f1c:	0000                	unimp
    1f1e:	0001                	nop
    1f20:	aa21                	j	2038 <_bsg_elf_stack_ptr+0x3c>
    1f22:	0005                	c.nop	1
    1f24:	0800                	addi	x8,x2,16
    1f26:	179e                	slli	x15,x15,0x27
    1f28:	09cd                	addi	x19,x19,19
    1f2a:	0000                	unimp
    1f2c:	0c04                	addi	x9,x2,528
    1f2e:	09000007          	0x9000007
    1f32:	162a                	slli	x12,x12,0x2a
    1f34:	0024                	addi	x9,x2,8
    1f36:	0000                	unimp
    1f38:	ca04                	sw	x9,16(x12)
    1f3a:	0008                	0x8
    1f3c:	0900                	addi	x8,x2,144
    1f3e:	0a01152f          	0xa01152f
    1f42:	0000                	unimp
    1f44:	0a07040f          	0xa07040f
    1f48:	0000                	unimp
    1f4a:	0009e913          	ori	x18,x19,0
    1f4e:	1600                	addi	x8,x2,800
    1f50:	000a                	c.slli	x0,0x2
    1f52:	1400                	addi	x8,x2,544
    1f54:	0954                	addi	x13,x2,148
    1f56:	0000                	unimp
    1f58:	0400                	addi	x8,x2,512
    1f5a:	0ab8                	addi	x14,x2,344
    1f5c:	0000                	unimp
    1f5e:	3609                	jal	1a60 <__extendsfdf2+0x98>
    1f60:	00093a0f          	0x93a0f
    1f64:	2100                	fld	f8,0(x10)
    1f66:	04d5                	addi	x9,x9,21
    1f68:	0000                	unimp
    1f6a:	bb09                	j	1c7c <_gp+0x54>
    1f6c:	f512                	fsw	f4,168(x2)
    1f6e:	0009                	c.nop	2
    1f70:	2100                	fld	f8,0(x10)
    1f72:	09b1                	addi	x19,x19,12
    1f74:	0000                	unimp
    1f76:	be09                	j	1a88 <__extendsfdf2+0xc0>
    1f78:	1610                	addi	x12,x2,800
    1f7a:	000a                	c.slli	x0,0x2
    1f7c:	2300                	fld	f8,0(x14)
    1f7e:	06df 0000 0407      	0x407000006df
    1f84:	0024                	addi	x9,x2,8
    1f86:	0000                	unimp
    1f88:	180a                	slli	x16,x16,0x22
    1f8a:	7706                	flw	f14,96(x2)
    1f8c:	000a                	c.slli	x0,0x2
    1f8e:	2400                	fld	f8,8(x8)
    1f90:	086a                	slli	x16,x16,0x1a
    1f92:	0000                	unimp
    1f94:	2400                	fld	f8,8(x8)
    1f96:	0781                	addi	x15,x15,0
    1f98:	0000                	unimp
    1f9a:	2401                	jal	219a <_bsg_elf_stack_ptr+0x19e>
    1f9c:	0756                	slli	x14,x14,0x15
    1f9e:	0000                	unimp
    1fa0:	2402                	fld	f8,0(x2)
    1fa2:	0776                	slli	x14,x14,0x1d
    1fa4:	0000                	unimp
    1fa6:	08612403          	lw	x8,134(x2) # 6ee14 <_bsg_elf_vcache_size+0x4ee14>
    1faa:	0000                	unimp
    1fac:	2404                	fld	f9,8(x8)
    1fae:	00000a6b          	0xa6b
    1fb2:	2405                	jal	21d2 <_bsg_elf_stack_ptr+0x1d6>
    1fb4:	0a5a                	slli	x20,x20,0x16
    1fb6:	0000                	unimp
    1fb8:	0006                	c.slli	x0,0x1
    1fba:	8621                	srai	x12,x12,0x8
    1fbc:	0005                	c.nop	1
    1fbe:	0a00                	addi	x8,x2,272
    1fc0:	1c21                	addi	x24,x24,-24
    1fc2:	0a3a                	slli	x20,x20,0xe
    1fc4:	0000                	unimp
    1fc6:	0007c823          	0x7c823
    1fca:	0700                	addi	x8,x2,896
    1fcc:	2404                	fld	f9,8(x8)
    1fce:	0000                	unimp
    1fd0:	0a00                	addi	x8,x2,272
    1fd2:	0aa80623          	sb	x10,172(x16) # 7fe2c <_bsg_elf_vcache_size+0x5fe2c>
    1fd6:	0000                	unimp
    1fd8:	c024                	sw	x9,64(x8)
    1fda:	0008                	0x8
    1fdc:	0000                	unimp
    1fde:	8024                	0x8024
    1fe0:	0008                	0x8
    1fe2:	0100                	addi	x8,x2,128
    1fe4:	9424                	0x9424
    1fe6:	0009                	c.nop	2
    1fe8:	0200                	addi	x8,x2,256
    1fea:	2100                	fld	f8,0(x10)
    1fec:	0692                	slli	x13,x13,0x4
    1fee:	0000                	unimp
    1ff0:	280a                	fld	f16,128(x2)
    1ff2:	831e                	mv	x6,x7
    1ff4:	000a                	c.slli	x0,0x2
    1ff6:	2300                	fld	f8,0(x14)
    1ff8:	0000053b          	0x53b
    1ffc:	00240407          	0x240407
    2000:	0000                	unimp
    2002:	2b0a                	fld	f22,128(x2)
    2004:	d306                	sw	x1,164(x2)
    2006:	000a                	c.slli	x0,0x2
    2008:	2400                	fld	f8,8(x8)
    200a:	0978                	addi	x14,x2,156
    200c:	0000                	unimp
    200e:	2400                	fld	f8,8(x8)
    2010:	0966                	slli	x18,x18,0x19
    2012:	0000                	unimp
    2014:	0001                	nop
    2016:	4621                	li	x12,8
    2018:	0006                	c.slli	x0,0x1
    201a:	0a00                	addi	x8,x2,272
    201c:	0ab42a2f          	amoswap.w.rl	x20,x11,(x8)
    2020:	0000                	unimp
    2022:	9221                	srli	x12,x12,0x28
    2024:	0b000007          	0xb000007
    2028:	1a29                	addi	x20,x20,-22
    202a:	091d                	addi	x18,x18,7
    202c:	0000                	unimp
    202e:	e621                	bnez	x12,2076 <_bsg_elf_stack_ptr+0x7a>
    2030:	0005                	c.nop	1
    2032:	0b00                	addi	x8,x2,400
    2034:	1a38                	addi	x14,x2,312
    2036:	091d                	addi	x18,x18,7
    2038:	0000                	unimp
    203a:	e304                	fsw	f9,0(x14)
    203c:	0001                	nop
    203e:	0c00                	addi	x8,x2,528
    2040:	0040167b          	0x40167b
    2044:	0000                	unimp
    2046:	f715                	bnez	x14,1f72 <__kernel_return+0xaa>
    2048:	000a                	c.slli	x0,0x2
    204a:	0300                	addi	x8,x2,384
    204c:	0404                	addi	x9,x2,512
    204e:	000007f7          	0x7f7
    2052:	ef030803          	lb	x16,-272(x6)
    2056:	03000007          	0x3000007
    205a:	0408                	addi	x10,x2,512
    205c:	057f                	0x57f
    205e:	0000                	unimp
    2060:	0a031003          	lh	x0,160(x6)
    2064:	0005                	c.nop	1
    2066:	0300                	addi	x8,x2,384
    2068:	0320                	addi	x8,x2,392
    206a:	0572                	slli	x10,x10,0x1c
    206c:	0000                	unimp
    206e:	0308                	addi	x10,x2,384
    2070:	3b00000b          	0x3b00000b
    2074:	0900000b          	0x900000b
    2078:	0024                	addi	x9,x2,8
    207a:	0000                	unimp
    207c:	00ff                	0xff
    207e:	2b15                	jal	25b2 <_bsg_elf_stack_ptr+0x5b6>
    2080:	1f00000b          	0x1f00000b
    2084:	0a15                	addi	x20,x20,5
    2086:	0000                	unimp
    2088:	fc0c                	fsw	f11,56(x8)
    208a:	1601                	addi	x12,x12,-32
    208c:	00000b3b          	0xb3b
    2090:	eb1f 0001 0c00      	0xc000001eb1f
    2096:	0202                	c.slli64	x4
    2098:	3b16                	fld	f22,352(x2)
    209a:	2500000b          	0x2500000b
    209e:	0b4d                	addi	x22,x22,19
    20a0:	0000                	unimp
    20a2:	b20d                	j	19c4 <_bsg_data_end_addr+0x1a4>
    20a4:	0f02                	c.slli64	x30
    20a6:	0305                	addi	x6,x6,1
    20a8:	1720                	addi	x8,x2,936
    20aa:	0000                	unimp
	...

Disassembly of section .debug_abbrev:

00000000 <.debug_abbrev>:
   0:	1101                	addi	x2,x2,-32
   2:	2501                	jal	602 <bsg_printf+0xfa>
   4:	130e                	slli	x6,x6,0x23
   6:	1b0e030b          	0x1b0e030b
   a:	110e                	slli	x2,x2,0x23
   c:	1201                	addi	x4,x4,-32
   e:	1006                	c.slli	x0,0x21
  10:	02000017          	auipc	x0,0x2000
  14:	0024                	addi	x9,x2,8
  16:	0b3e0b0b          	0xb3e0b0b
  1a:	00000e03          	lb	x28,0(x0) # 0 <_start>
  1e:	0b002403          	lw	x8,176(x0) # b0 <bsg_group_size+0xac>
  22:	030b3e0b          	0x30b3e0b
  26:	0008                	0x8
  28:	0400                	addi	x8,x2,512
  2a:	0016                	c.slli	x0,0x5
  2c:	0b3a0e03          	lb	x28,179(x20)
  30:	0b39053b          	0xb39053b
  34:	1349                	addi	x6,x6,-14
  36:	0000                	unimp
  38:	2605                	jal	358 <number+0x104>
  3a:	4900                	lw	x8,16(x10)
  3c:	06000013          	li	x0,96
  40:	0101                	addi	x2,x2,0
  42:	1349                	addi	x6,x6,-14
  44:	1301                	addi	x6,x6,-32
  46:	0000                	unimp
  48:	49002107          	flw	f2,1168(x0) # 490 <number+0x23c>
  4c:	000b2f13          	slti	x30,x22,0
  50:	0800                	addi	x8,x2,16
  52:	0034                	addi	x13,x2,8
  54:	0b3a0e03          	lb	x28,179(x20)
  58:	0b390b3b          	0xb390b3b
  5c:	1349                	addi	x6,x6,-14
  5e:	193c193f 16090000 	0x16090000193c193f
  66:	0300                	addi	x8,x2,384
  68:	3a0e                	fld	f20,224(x2)
  6a:	390b3b0b          	0x390b3b0b
  6e:	0013490b          	0x13490b
  72:	0a00                	addi	x8,x2,272
  74:	0b0b0113          	addi	x2,x22,176
  78:	0b3a                	slli	x22,x22,0xe
  7a:	0b390b3b          	0xb390b3b
  7e:	1301                	addi	x6,x6,-32
  80:	0000                	unimp
  82:	03000d0b          	0x3000d0b
  86:	3a0e                	fld	f20,224(x2)
  88:	390b3b0b          	0x390b3b0b
  8c:	0b13490b          	0xb13490b
  90:	0c0b0d0b          	0xc0b0d0b
  94:	000b380b          	0xb380b
  98:	0c00                	addi	x8,x2,528
  9a:	000d                	c.nop	3
  9c:	0b3a0803          	lb	x16,179(x20)
  a0:	0b390b3b          	0xb390b3b
  a4:	1349                	addi	x6,x6,-14
  a6:	0b0d0b0b          	0xb0d0b0b
  aa:	0b0c                	addi	x11,x2,400
  ac:	0b38                	addi	x14,x2,408
  ae:	0000                	unimp
  b0:	170d                	addi	x14,x14,-29
  b2:	0301                	addi	x6,x6,0
  b4:	0b0e                	slli	x22,x22,0x3
  b6:	3b0b3a0b          	0x3b0b3a0b
  ba:	010b390b          	0x10b390b
  be:	0e000013          	li	x0,224
  c2:	000d                	c.nop	3
  c4:	0b3a0803          	lb	x16,179(x20)
  c8:	0b390b3b          	0xb390b3b
  cc:	1349                	addi	x6,x6,-14
  ce:	0000                	unimp
  d0:	03000d0f          	0x3000d0f
  d4:	3a0e                	fld	f20,224(x2)
  d6:	390b3b0b          	0x390b3b0b
  da:	0013490b          	0x13490b
  de:	1000                	addi	x8,x2,32
  e0:	012e                	slli	x2,x2,0xb
  e2:	0e03193f 0b3b0b3a 	0xb3b0b3a0e03193f
  ea:	0b39                	addi	x22,x22,14
  ec:	13491927          	0x13491927
  f0:	0111                	addi	x2,x2,4
  f2:	0612                	slli	x12,x12,0x4
  f4:	1840                	addi	x8,x2,52
  f6:	4296                	lw	x5,68(x2)
  f8:	0119                	addi	x2,x2,6
  fa:	11000013          	li	x0,272
  fe:	0005                	c.nop	1
 100:	0b3a0803          	lb	x16,179(x20)
 104:	0b390b3b          	0xb390b3b
 108:	1349                	addi	x6,x6,-14
 10a:	1702                	slli	x14,x14,0x20
 10c:	0000                	unimp
 10e:	3412                	fld	f8,288(x2)
 110:	0300                	addi	x8,x2,384
 112:	3a0e                	fld	f20,224(x2)
 114:	390b3b0b          	0x390b3b0b
 118:	0213490b          	0x213490b
 11c:	13000017          	auipc	x0,0x13000
 120:	0034                	addi	x13,x2,8
 122:	0b3a0803          	lb	x16,179(x20)
 126:	0b390b3b          	0xb390b3b
 12a:	1349                	addi	x6,x6,-14
 12c:	1702                	slli	x14,x14,0x20
 12e:	0000                	unimp
 130:	0b14                	addi	x13,x2,400
 132:	5501                	li	x10,-32
 134:	00130117          	auipc	x2,0x130
 138:	1500                	addi	x8,x2,672
 13a:	0034                	addi	x13,x2,8
 13c:	0b3a0e03          	lb	x28,179(x20)
 140:	0b390b3b          	0xb390b3b
 144:	1349                	addi	x6,x6,-14
 146:	0000                	unimp
 148:	0b16                	slli	x22,x22,0x5
 14a:	5501                	li	x10,-32
 14c:	17000017          	auipc	x0,0x17000
 150:	0111010b          	0x111010b
 154:	0612                	slli	x12,x12,0x4
 156:	0000                	unimp
 158:	0100                	addi	x8,x2,128
 15a:	0111                	addi	x2,x2,4
 15c:	0e25                	addi	x28,x28,9
 15e:	0e030b13          	addi	x22,x6,224
 162:	01110e1b          	0x1110e1b
 166:	0612                	slli	x12,x12,0x4
 168:	1710                	addi	x12,x2,928
 16a:	0000                	unimp
 16c:	2402                	fld	f8,0(x2)
 16e:	0b00                	addi	x8,x2,400
 170:	030b3e0b          	0x30b3e0b
 174:	000e                	c.slli	x0,0x3
 176:	0300                	addi	x8,x2,384
 178:	0024                	addi	x9,x2,8
 17a:	0b3e0b0b          	0xb3e0b0b
 17e:	00000803          	lb	x16,0(x0) # 0 <_start>
 182:	1604                	addi	x9,x2,800
 184:	0300                	addi	x8,x2,384
 186:	3a0e                	fld	f20,224(x2)
 188:	39053b0b          	0x39053b0b
 18c:	0013490b          	0x13490b
 190:	0500                	addi	x8,x2,640
 192:	0026                	c.slli	x0,0x9
 194:	1349                	addi	x6,x6,-14
 196:	0000                	unimp
 198:	0106                	slli	x2,x2,0x1
 19a:	4901                	li	x18,0
 19c:	00130113          	addi	x2,x6,1
 1a0:	0700                	addi	x8,x2,896
 1a2:	0021                	c.nop	8
 1a4:	1349                	addi	x6,x6,-14
 1a6:	00000b2f          	0xb2f
 1aa:	3408                	fld	f10,40(x8)
 1ac:	0300                	addi	x8,x2,384
 1ae:	3a0e                	fld	f20,224(x2)
 1b0:	390b3b0b          	0x390b3b0b
 1b4:	3f13490b          	0x3f13490b
 1b8:	3c19                	jal	fffffbce <_end+0x7efffb6e>
 1ba:	0019                	c.nop	6
 1bc:	0900                	addi	x8,x2,144
 1be:	0016                	c.slli	x0,0x5
 1c0:	0b3a0e03          	lb	x28,179(x20)
 1c4:	0b390b3b          	0xb390b3b
 1c8:	1349                	addi	x6,x6,-14
 1ca:	0000                	unimp
 1cc:	130a                	slli	x6,x6,0x22
 1ce:	0b01                	addi	x22,x22,0
 1d0:	3b0b3a0b          	0x3b0b3a0b
 1d4:	010b390b          	0x10b390b
 1d8:	0b000013          	li	x0,176
 1dc:	000d                	c.nop	3
 1de:	0b3a0e03          	lb	x28,179(x20)
 1e2:	0b390b3b          	0xb390b3b
 1e6:	1349                	addi	x6,x6,-14
 1e8:	0b0d0b0b          	0xb0d0b0b
 1ec:	0b0c                	addi	x11,x2,400
 1ee:	0b38                	addi	x14,x2,408
 1f0:	0000                	unimp
 1f2:	0d0c                	addi	x11,x2,656
 1f4:	0300                	addi	x8,x2,384
 1f6:	3a08                	fld	f10,48(x12)
 1f8:	390b3b0b          	0x390b3b0b
 1fc:	0b13490b          	0xb13490b
 200:	0c0b0d0b          	0xc0b0d0b
 204:	000b380b          	0xb380b
 208:	0d00                	addi	x8,x2,656
 20a:	0e030117          	auipc	x2,0xe030
 20e:	0b3a0b0b          	0xb3a0b0b
 212:	0b390b3b          	0xb390b3b
 216:	1301                	addi	x6,x6,-32
 218:	0000                	unimp
 21a:	0d0e                	slli	x26,x26,0x3
 21c:	0300                	addi	x8,x2,384
 21e:	3a08                	fld	f10,48(x12)
 220:	390b3b0b          	0x390b3b0b
 224:	0013490b          	0x13490b
 228:	0f00                	addi	x8,x2,912
 22a:	000d                	c.nop	3
 22c:	0b3a0e03          	lb	x28,179(x20)
 230:	0b390b3b          	0xb390b3b
 234:	1349                	addi	x6,x6,-14
 236:	0000                	unimp
 238:	2e10                	fld	f12,24(x12)
 23a:	3f01                	jal	14a <write_finish_signal+0x1e>
 23c:	0319                	addi	x6,x6,6
 23e:	3a0e                	fld	f20,224(x2)
 240:	390b3b0b          	0x390b3b0b
 244:	4919270b          	0x4919270b
 248:	12011113          	0x12011113
 24c:	4006                	0x4006
 24e:	9618                	0x9618
 250:	1942                	slli	x18,x18,0x30
 252:	1301                	addi	x6,x6,-32
 254:	0000                	unimp
 256:	0511                	addi	x10,x10,4
 258:	0300                	addi	x8,x2,384
 25a:	3a08                	fld	f10,48(x12)
 25c:	390b3b0b          	0x390b3b0b
 260:	0213490b          	0x213490b
 264:	12000017          	auipc	x0,0x12000
 268:	0034                	addi	x13,x2,8
 26a:	0b3a0e03          	lb	x28,179(x20)
 26e:	0b390b3b          	0xb390b3b
 272:	1349                	addi	x6,x6,-14
 274:	1702                	slli	x14,x14,0x20
 276:	0000                	unimp
 278:	03003413          	sltiu	x8,x0,48
 27c:	3a0e                	fld	f20,224(x2)
 27e:	390b3b0b          	0x390b3b0b
 282:	0013490b          	0x13490b
 286:	1400                	addi	x8,x2,544
 288:	0034                	addi	x13,x2,8
 28a:	0b3a0803          	lb	x16,179(x20)
 28e:	0b390b3b          	0xb390b3b
 292:	1349                	addi	x6,x6,-14
 294:	0000                	unimp
 296:	3415                	jal	fffffcba <_end+0x7efffc5a>
 298:	0300                	addi	x8,x2,384
 29a:	3a08                	fld	f10,48(x12)
 29c:	390b3b0b          	0x390b3b0b
 2a0:	0213490b          	0x213490b
 2a4:	16000017          	auipc	x0,0x16000
 2a8:	1755010b          	0x1755010b
 2ac:	1301                	addi	x6,x6,-32
 2ae:	0000                	unimp
 2b0:	11010b17          	auipc	x22,0x11010
 2b4:	1201                	addi	x4,x4,-32
 2b6:	0106                	slli	x2,x2,0x1
 2b8:	18000013          	li	x0,384
 2bc:	1755010b          	0x1755010b
 2c0:	0000                	unimp
 2c2:	0100                	addi	x8,x2,128
 2c4:	0111                	addi	x2,x2,4
 2c6:	0e25                	addi	x28,x28,9
 2c8:	0e030b13          	addi	x22,x6,224
 2cc:	01110e1b          	0x1110e1b
 2d0:	0612                	slli	x12,x12,0x4
 2d2:	1710                	addi	x12,x2,928
 2d4:	0000                	unimp
 2d6:	2402                	fld	f8,0(x2)
 2d8:	0b00                	addi	x8,x2,400
 2da:	030b3e0b          	0x30b3e0b
 2de:	000e                	c.slli	x0,0x3
 2e0:	0300                	addi	x8,x2,384
 2e2:	0024                	addi	x9,x2,8
 2e4:	0b3e0b0b          	0xb3e0b0b
 2e8:	00000803          	lb	x16,0(x0) # 0 <_start>
 2ec:	1604                	addi	x9,x2,800
 2ee:	0300                	addi	x8,x2,384
 2f0:	3a0e                	fld	f20,224(x2)
 2f2:	39053b0b          	0x39053b0b
 2f6:	0013490b          	0x13490b
 2fa:	0500                	addi	x8,x2,640
 2fc:	0026                	c.slli	x0,0x9
 2fe:	1349                	addi	x6,x6,-14
 300:	0000                	unimp
 302:	0106                	slli	x2,x2,0x1
 304:	4901                	li	x18,0
 306:	00130113          	addi	x2,x6,1
 30a:	0700                	addi	x8,x2,896
 30c:	0021                	c.nop	8
 30e:	1349                	addi	x6,x6,-14
 310:	00000b2f          	0xb2f
 314:	3408                	fld	f10,40(x8)
 316:	0300                	addi	x8,x2,384
 318:	3a0e                	fld	f20,224(x2)
 31a:	390b3b0b          	0x390b3b0b
 31e:	3f13490b          	0x3f13490b
 322:	3c19                	jal	fffffd38 <_end+0x7efffcd8>
 324:	0019                	c.nop	6
 326:	0900                	addi	x8,x2,144
 328:	0016                	c.slli	x0,0x5
 32a:	0b3a0e03          	lb	x28,179(x20)
 32e:	0b390b3b          	0xb390b3b
 332:	1349                	addi	x6,x6,-14
 334:	0000                	unimp
 336:	130a                	slli	x6,x6,0x22
 338:	0b01                	addi	x22,x22,0
 33a:	3b0b3a0b          	0x3b0b3a0b
 33e:	010b390b          	0x10b390b
 342:	0b000013          	li	x0,176
 346:	000d                	c.nop	3
 348:	0b3a0e03          	lb	x28,179(x20)
 34c:	0b390b3b          	0xb390b3b
 350:	1349                	addi	x6,x6,-14
 352:	0b0d0b0b          	0xb0d0b0b
 356:	0b0c                	addi	x11,x2,400
 358:	0b38                	addi	x14,x2,408
 35a:	0000                	unimp
 35c:	0d0c                	addi	x11,x2,656
 35e:	0300                	addi	x8,x2,384
 360:	3a08                	fld	f10,48(x12)
 362:	390b3b0b          	0x390b3b0b
 366:	0b13490b          	0xb13490b
 36a:	0c0b0d0b          	0xc0b0d0b
 36e:	000b380b          	0xb380b
 372:	0d00                	addi	x8,x2,656
 374:	0e030117          	auipc	x2,0xe030
 378:	0b3a0b0b          	0xb3a0b0b
 37c:	0b390b3b          	0xb390b3b
 380:	1301                	addi	x6,x6,-32
 382:	0000                	unimp
 384:	0d0e                	slli	x26,x26,0x3
 386:	0300                	addi	x8,x2,384
 388:	3a08                	fld	f10,48(x12)
 38a:	390b3b0b          	0x390b3b0b
 38e:	0013490b          	0x13490b
 392:	0f00                	addi	x8,x2,912
 394:	000d                	c.nop	3
 396:	0b3a0e03          	lb	x28,179(x20)
 39a:	0b390b3b          	0xb390b3b
 39e:	1349                	addi	x6,x6,-14
 3a0:	0000                	unimp
 3a2:	2e10                	fld	f12,24(x12)
 3a4:	3f01                	jal	2b4 <number+0x60>
 3a6:	0319                	addi	x6,x6,6
 3a8:	3a0e                	fld	f20,224(x2)
 3aa:	390b3b0b          	0x390b3b0b
 3ae:	4919270b          	0x4919270b
 3b2:	12011113          	0x12011113
 3b6:	4006                	0x4006
 3b8:	9718                	0x9718
 3ba:	1942                	slli	x18,x18,0x30
 3bc:	1301                	addi	x6,x6,-32
 3be:	0000                	unimp
 3c0:	0511                	addi	x10,x10,4
 3c2:	0300                	addi	x8,x2,384
 3c4:	3a08                	fld	f10,48(x12)
 3c6:	390b3b0b          	0x390b3b0b
 3ca:	0213490b          	0x213490b
 3ce:	12000017          	auipc	x0,0x12000
 3d2:	0034                	addi	x13,x2,8
 3d4:	0b3a0e03          	lb	x28,179(x20)
 3d8:	0b390b3b          	0xb390b3b
 3dc:	1349                	addi	x6,x6,-14
 3de:	1702                	slli	x14,x14,0x20
 3e0:	0000                	unimp
 3e2:	03003413          	sltiu	x8,x0,48
 3e6:	3a0e                	fld	f20,224(x2)
 3e8:	390b3b0b          	0x390b3b0b
 3ec:	0213490b          	0x213490b
 3f0:	0018                	0x18
 3f2:	1400                	addi	x8,x2,544
 3f4:	0034                	addi	x13,x2,8
 3f6:	0b3a0803          	lb	x16,179(x20)
 3fa:	0b390b3b          	0xb390b3b
 3fe:	1349                	addi	x6,x6,-14
 400:	0000                	unimp
 402:	3415                	jal	fffffe26 <_end+0x7efffdc6>
 404:	0300                	addi	x8,x2,384
 406:	3a08                	fld	f10,48(x12)
 408:	390b3b0b          	0x390b3b0b
 40c:	0213490b          	0x213490b
 410:	16000017          	auipc	x0,0x16000
 414:	1755010b          	0x1755010b
 418:	1301                	addi	x6,x6,-32
 41a:	0000                	unimp
 41c:	03003417          	auipc	x8,0x3003
 420:	3a0e                	fld	f20,224(x2)
 422:	390b3b0b          	0x390b3b0b
 426:	0013490b          	0x13490b
 42a:	1800                	addi	x8,x2,48
 42c:	1755010b          	0x1755010b
 430:	0000                	unimp
 432:	0b19                	addi	x22,x22,6
 434:	1101                	addi	x2,x2,-32
 436:	1201                	addi	x4,x4,-32
 438:	0006                	c.slli	x0,0x1
 43a:	0000                	unimp
 43c:	1101                	addi	x2,x2,-32
 43e:	2501                	jal	a3e <bsg_printf+0x536>
 440:	130e                	slli	x6,x6,0x23
 442:	1b0e030b          	0x1b0e030b
 446:	110e                	slli	x2,x2,0x23
 448:	1201                	addi	x4,x4,-32
 44a:	1006                	c.slli	x0,0x21
 44c:	02000017          	auipc	x0,0x2000
 450:	0024                	addi	x9,x2,8
 452:	0b3e0b0b          	0xb3e0b0b
 456:	00000803          	lb	x16,0(x0) # 0 <_start>
 45a:	0b002403          	lw	x8,176(x0) # b0 <bsg_group_size+0xac>
 45e:	030b3e0b          	0x30b3e0b
 462:	000e                	c.slli	x0,0x3
 464:	0400                	addi	x8,x2,512
 466:	0016                	c.slli	x0,0x5
 468:	0b3a0e03          	lb	x28,179(x20)
 46c:	0b390b3b          	0xb390b3b
 470:	1349                	addi	x6,x6,-14
 472:	0000                	unimp
 474:	1605                	addi	x12,x12,-31
 476:	0300                	addi	x8,x2,384
 478:	3a0e                	fld	f20,224(x2)
 47a:	39053b0b          	0x39053b0b
 47e:	0013490b          	0x13490b
 482:	0600                	addi	x8,x2,768
 484:	0b0b0117          	auipc	x2,0xb0b0
 488:	0b3a                	slli	x22,x22,0xe
 48a:	0b390b3b          	0xb390b3b
 48e:	1301                	addi	x6,x6,-32
 490:	0000                	unimp
 492:	03000d07          	0x3000d07
 496:	3a0e                	fld	f20,224(x2)
 498:	390b3b0b          	0x390b3b0b
 49c:	0013490b          	0x13490b
 4a0:	0800                	addi	x8,x2,16
 4a2:	0101                	addi	x2,x2,0
 4a4:	1349                	addi	x6,x6,-14
 4a6:	1301                	addi	x6,x6,-32
 4a8:	0000                	unimp
 4aa:	2109                	jal	8ac <bsg_printf+0x3a4>
 4ac:	4900                	lw	x8,16(x10)
 4ae:	000b2f13          	slti	x30,x22,0
 4b2:	0a00                	addi	x8,x2,272
 4b4:	0b0b0113          	addi	x2,x22,176 # 11010360 <_bsg_elf_vcache_size+0x10ff0360>
 4b8:	0b3a                	slli	x22,x22,0xe
 4ba:	0b390b3b          	0xb390b3b
 4be:	1301                	addi	x6,x6,-32
 4c0:	0000                	unimp
 4c2:	03000d0b          	0x3000d0b
 4c6:	3a0e                	fld	f20,224(x2)
 4c8:	390b3b0b          	0x390b3b0b
 4cc:	3813490b          	0x3813490b
 4d0:	0c00000b          	0xc00000b
 4d4:	0b0b000f          	0xb0b000f
 4d8:	0000                	unimp
 4da:	130d                	addi	x6,x6,-29
 4dc:	0301                	addi	x6,x6,0
 4de:	0b0e                	slli	x22,x22,0x3
 4e0:	3b0b3a0b          	0x3b0b3a0b
 4e4:	010b390b          	0x10b390b
 4e8:	0e000013          	li	x0,224
 4ec:	000d                	c.nop	3
 4ee:	0b3a0803          	lb	x16,179(x20)
 4f2:	0b390b3b          	0xb390b3b
 4f6:	1349                	addi	x6,x6,-14
 4f8:	0b38                	addi	x14,x2,408
 4fa:	0000                	unimp
 4fc:	0b000f0f          	0xb000f0f
 500:	0013490b          	0x13490b
 504:	1000                	addi	x8,x2,32
 506:	0e030113          	addi	x2,x6,224
 50a:	0b3a050b          	0xb3a050b
 50e:	0b390b3b          	0xb390b3b
 512:	1301                	addi	x6,x6,-32
 514:	0000                	unimp
 516:	0d11                	addi	x26,x26,4
 518:	0300                	addi	x8,x2,384
 51a:	3a0e                	fld	f20,224(x2)
 51c:	390b3b0b          	0x390b3b0b
 520:	3813490b          	0x3813490b
 524:	0005                	c.nop	1
 526:	1200                	addi	x8,x2,288
 528:	0015                	c.nop	5
 52a:	00001927          	0x1927
 52e:	27011513          	0x27011513
 532:	4919                	li	x18,6
 534:	00130113          	addi	x2,x6,1
 538:	1400                	addi	x8,x2,544
 53a:	0005                	c.nop	1
 53c:	1349                	addi	x6,x6,-14
 53e:	0000                	unimp
 540:	2615                	jal	864 <bsg_printf+0x35c>
 542:	4900                	lw	x8,16(x10)
 544:	16000013          	li	x0,352
 548:	0e030113          	addi	x2,x6,224
 54c:	0b3a050b          	0xb3a050b
 550:	0b39053b          	0xb39053b
 554:	1301                	addi	x6,x6,-32
 556:	0000                	unimp
 558:	03000d17          	auipc	x26,0x3000
 55c:	3a0e                	fld	f20,224(x2)
 55e:	39053b0b          	0x39053b0b
 562:	3813490b          	0x3813490b
 566:	1800000b          	0x1800000b
 56a:	000d                	c.nop	3
 56c:	0b3a0e03          	lb	x28,179(x20)
 570:	0b39053b          	0xb39053b
 574:	1349                	addi	x6,x6,-14
 576:	0538                	addi	x14,x2,648
 578:	0000                	unimp
 57a:	1319                	addi	x6,x6,-26
 57c:	0301                	addi	x6,x6,0
 57e:	0b0e                	slli	x22,x22,0x3
 580:	3b0b3a0b          	0x3b0b3a0b
 584:	3905                	jal	1b4 <bsg_set_tile_x_y+0x64>
 586:	0013010b          	0x13010b
 58a:	1a00                	addi	x8,x2,304
 58c:	0b0b0113          	addi	x2,x22,176
 590:	0b3a                	slli	x22,x22,0xe
 592:	0b39053b          	0xb39053b
 596:	1301                	addi	x6,x6,-32
 598:	0000                	unimp
 59a:	0b01171b          	0xb01171b
 59e:	3b0b3a0b          	0x3b0b3a0b
 5a2:	3905                	jal	1d2 <bsg_set_tile_x_y+0x82>
 5a4:	0013010b          	0x13010b
 5a8:	1c00                	addi	x8,x2,560
 5aa:	000d                	c.nop	3
 5ac:	0b3a0e03          	lb	x28,179(x20)
 5b0:	0b39053b          	0xb39053b
 5b4:	1349                	addi	x6,x6,-14
 5b6:	0000                	unimp
 5b8:	131d                	addi	x6,x6,-25
 5ba:	0300                	addi	x8,x2,384
 5bc:	3c0e                	fld	f24,224(x2)
 5be:	0019                	c.nop	6
 5c0:	1e00                	addi	x8,x2,816
 5c2:	0115                	addi	x2,x2,5
 5c4:	13011927          	0x13011927
 5c8:	0000                	unimp
 5ca:	341f 0300 3a0e      	0x3a0e0300341f
 5d0:	39053b0b          	0x39053b0b
 5d4:	3f13490b          	0x3f13490b
 5d8:	3c19                	jal	ffffffee <_end+0x7effff8e>
 5da:	0019                	c.nop	6
 5dc:	2000                	fld	f8,0(x8)
 5de:	0021                	c.nop	8
 5e0:	0000                	unimp
 5e2:	3421                	jal	ffffffea <_end+0x7effff8a>
 5e4:	0300                	addi	x8,x2,384
 5e6:	3a0e                	fld	f20,224(x2)
 5e8:	390b3b0b          	0x390b3b0b
 5ec:	3f13490b          	0x3f13490b
 5f0:	3c19                	jal	6 <bsg_group_size+0x2>
 5f2:	0019                	c.nop	6
 5f4:	2200                	fld	f8,0(x12)
 5f6:	0026                	c.slli	x0,0x9
 5f8:	0000                	unimp
 5fa:	03010423          	sb	x16,40(x2) # b0b04ac <_bsg_elf_vcache_size+0xb0904ac>
 5fe:	3e0e                	fld	f28,224(x2)
 600:	490b0b0b          	0x490b0b0b
 604:	3b0b3a13          	sltiu	x20,x22,944
 608:	010b390b          	0x10b390b
 60c:	24000013          	li	x0,576
 610:	0028                	addi	x10,x2,8
 612:	0b1c0e03          	lb	x28,177(x24) # 79cb5 <_bsg_elf_vcache_size+0x59cb5>
 616:	0000                	unimp
 618:	2e25                	jal	950 <bsg_printf+0x448>
 61a:	3f01                	jal	52a <bsg_printf+0x22>
 61c:	0319                	addi	x6,x6,6
 61e:	3a0e                	fld	f20,224(x2)
 620:	39053b0b          	0x39053b0b
 624:	4919270b          	0x4919270b
 628:	12011113          	0x12011113
 62c:	4006                	0x4006
 62e:	9718                	0x9718
 630:	1942                	slli	x18,x18,0x30
 632:	0000                	unimp
 634:	0526                	slli	x10,x10,0x9
 636:	0300                	addi	x8,x2,384
 638:	3a08                	fld	f10,48(x12)
 63a:	39053b0b          	0x39053b0b
 63e:	0213490b          	0x213490b
 642:	27000017          	auipc	x0,0x27000
 646:	0034                	addi	x13,x2,8
 648:	0b3a0803          	lb	x16,179(x20)
 64c:	0b39053b          	0xb39053b
 650:	1349                	addi	x6,x6,-14
 652:	0000                	unimp
 654:	0b28                	addi	x10,x2,408
 656:	5501                	li	x10,-32
 658:	29000017          	auipc	x0,0x29000
 65c:	0034                	addi	x13,x2,8
 65e:	0b3a0e03          	lb	x28,179(x20)
 662:	0b39053b          	0xb39053b
 666:	1349                	addi	x6,x6,-14
 668:	1702                	slli	x14,x14,0x20
 66a:	0000                	unimp
 66c:	342a                	fld	f8,168(x2)
 66e:	0300                	addi	x8,x2,384
 670:	3a08                	fld	f10,48(x12)
 672:	39053b0b          	0x39053b0b
 676:	0213490b          	0x213490b
 67a:	00000017          	auipc	x0,0x0
 67e:	1101                	addi	x2,x2,-32
 680:	2501                	jal	c80 <bsg_printf+0x778>
 682:	130e                	slli	x6,x6,0x23
 684:	1b0e030b          	0x1b0e030b
 688:	100e                	c.slli	x0,0x23
 68a:	02000017          	auipc	x0,0x2000
 68e:	0024                	addi	x9,x2,8
 690:	0b3e0b0b          	0xb3e0b0b
 694:	00000803          	lb	x16,0(x0) # 0 <_start>
 698:	0b002403          	lw	x8,176(x0) # b0 <bsg_group_size+0xac>
 69c:	030b3e0b          	0x30b3e0b
 6a0:	000e                	c.slli	x0,0x3
 6a2:	0400                	addi	x8,x2,512
 6a4:	0016                	c.slli	x0,0x5
 6a6:	0b3a0e03          	lb	x28,179(x20)
 6aa:	0b390b3b          	0xb390b3b
 6ae:	1349                	addi	x6,x6,-14
 6b0:	0000                	unimp
 6b2:	1605                	addi	x12,x12,-31
 6b4:	0300                	addi	x8,x2,384
 6b6:	3a0e                	fld	f20,224(x2)
 6b8:	39053b0b          	0x39053b0b
 6bc:	0013490b          	0x13490b
 6c0:	0600                	addi	x8,x2,768
 6c2:	0b0b0117          	auipc	x2,0xb0b0
 6c6:	0b3a                	slli	x22,x22,0xe
 6c8:	0b390b3b          	0xb390b3b
 6cc:	1301                	addi	x6,x6,-32
 6ce:	0000                	unimp
 6d0:	03000d07          	0x3000d07
 6d4:	3a0e                	fld	f20,224(x2)
 6d6:	390b3b0b          	0x390b3b0b
 6da:	0013490b          	0x13490b
 6de:	0800                	addi	x8,x2,16
 6e0:	0101                	addi	x2,x2,0
 6e2:	1349                	addi	x6,x6,-14
 6e4:	1301                	addi	x6,x6,-32
 6e6:	0000                	unimp
 6e8:	2109                	jal	aea <bsg_printf+0x5e2>
 6ea:	4900                	lw	x8,16(x10)
 6ec:	000b2f13          	slti	x30,x22,0
 6f0:	0a00                	addi	x8,x2,272
 6f2:	0b0b0113          	addi	x2,x22,176
 6f6:	0b3a                	slli	x22,x22,0xe
 6f8:	0b390b3b          	0xb390b3b
 6fc:	1301                	addi	x6,x6,-32
 6fe:	0000                	unimp
 700:	03000d0b          	0x3000d0b
 704:	3a0e                	fld	f20,224(x2)
 706:	390b3b0b          	0x390b3b0b
 70a:	3813490b          	0x3813490b
 70e:	0c00000b          	0xc00000b
 712:	0b0b000f          	0xb0b000f
 716:	0000                	unimp
 718:	130d                	addi	x6,x6,-29
 71a:	0301                	addi	x6,x6,0
 71c:	0b0e                	slli	x22,x22,0x3
 71e:	3b0b3a0b          	0x3b0b3a0b
 722:	010b390b          	0x10b390b
 726:	0e000013          	li	x0,224
 72a:	000d                	c.nop	3
 72c:	0b3a0803          	lb	x16,179(x20)
 730:	0b390b3b          	0xb390b3b
 734:	1349                	addi	x6,x6,-14
 736:	0b38                	addi	x14,x2,408
 738:	0000                	unimp
 73a:	0b000f0f          	0xb000f0f
 73e:	0013490b          	0x13490b
 742:	1000                	addi	x8,x2,32
 744:	0e030113          	addi	x2,x6,224
 748:	0b3a050b          	0xb3a050b
 74c:	0b390b3b          	0xb390b3b
 750:	1301                	addi	x6,x6,-32
 752:	0000                	unimp
 754:	0d11                	addi	x26,x26,4
 756:	0300                	addi	x8,x2,384
 758:	3a0e                	fld	f20,224(x2)
 75a:	390b3b0b          	0x390b3b0b
 75e:	3813490b          	0x3813490b
 762:	0005                	c.nop	1
 764:	1200                	addi	x8,x2,288
 766:	0015                	c.nop	5
 768:	00001927          	0x1927
 76c:	27011513          	0x27011513
 770:	4919                	li	x18,6
 772:	00130113          	addi	x2,x6,1
 776:	1400                	addi	x8,x2,544
 778:	0005                	c.nop	1
 77a:	1349                	addi	x6,x6,-14
 77c:	0000                	unimp
 77e:	2615                	jal	aa2 <bsg_printf+0x59a>
 780:	4900                	lw	x8,16(x10)
 782:	16000013          	li	x0,352
 786:	0e030113          	addi	x2,x6,224
 78a:	0b3a050b          	0xb3a050b
 78e:	0b39053b          	0xb39053b
 792:	1301                	addi	x6,x6,-32
 794:	0000                	unimp
 796:	03000d17          	auipc	x26,0x3000
 79a:	3a0e                	fld	f20,224(x2)
 79c:	39053b0b          	0x39053b0b
 7a0:	3813490b          	0x3813490b
 7a4:	1800000b          	0x1800000b
 7a8:	000d                	c.nop	3
 7aa:	0b3a0e03          	lb	x28,179(x20)
 7ae:	0b39053b          	0xb39053b
 7b2:	1349                	addi	x6,x6,-14
 7b4:	0538                	addi	x14,x2,648
 7b6:	0000                	unimp
 7b8:	1319                	addi	x6,x6,-26
 7ba:	0301                	addi	x6,x6,0
 7bc:	0b0e                	slli	x22,x22,0x3
 7be:	3b0b3a0b          	0x3b0b3a0b
 7c2:	3905                	jal	3f2 <number+0x19e>
 7c4:	0013010b          	0x13010b
 7c8:	1a00                	addi	x8,x2,304
 7ca:	0b0b0113          	addi	x2,x22,176
 7ce:	0b3a                	slli	x22,x22,0xe
 7d0:	0b39053b          	0xb39053b
 7d4:	1301                	addi	x6,x6,-32
 7d6:	0000                	unimp
 7d8:	0b01171b          	0xb01171b
 7dc:	3b0b3a0b          	0x3b0b3a0b
 7e0:	3905                	jal	410 <number+0x1bc>
 7e2:	0013010b          	0x13010b
 7e6:	1c00                	addi	x8,x2,560
 7e8:	000d                	c.nop	3
 7ea:	0b3a0e03          	lb	x28,179(x20)
 7ee:	0b39053b          	0xb39053b
 7f2:	1349                	addi	x6,x6,-14
 7f4:	0000                	unimp
 7f6:	131d                	addi	x6,x6,-25
 7f8:	0300                	addi	x8,x2,384
 7fa:	3c0e                	fld	f24,224(x2)
 7fc:	0019                	c.nop	6
 7fe:	1e00                	addi	x8,x2,816
 800:	0115                	addi	x2,x2,5
 802:	13011927          	0x13011927
 806:	0000                	unimp
 808:	341f 0300 3a0e      	0x3a0e0300341f
 80e:	39053b0b          	0x39053b0b
 812:	3f13490b          	0x3f13490b
 816:	3c19                	jal	22c <bsg_set_tile_x_y+0xdc>
 818:	0019                	c.nop	6
 81a:	2000                	fld	f8,0(x8)
 81c:	0021                	c.nop	8
 81e:	0000                	unimp
 820:	3421                	jal	228 <bsg_set_tile_x_y+0xd8>
 822:	0300                	addi	x8,x2,384
 824:	3a0e                	fld	f20,224(x2)
 826:	390b3b0b          	0x390b3b0b
 82a:	3f13490b          	0x3f13490b
 82e:	3c19                	jal	244 <bsg_set_tile_x_y+0xf4>
 830:	0019                	c.nop	6
 832:	2200                	fld	f8,0(x12)
 834:	0026                	c.slli	x0,0x9
 836:	0000                	unimp
 838:	03010423          	sb	x16,40(x2) # b0b06ea <_bsg_elf_vcache_size+0xb0906ea>
 83c:	3e0e                	fld	f28,224(x2)
 83e:	490b0b0b          	0x490b0b0b
 842:	3b0b3a13          	sltiu	x20,x22,944
 846:	010b390b          	0x10b390b
 84a:	24000013          	li	x0,576
 84e:	0028                	addi	x10,x2,8
 850:	0b1c0e03          	lb	x28,177(x24)
 854:	0000                	unimp
 856:	3425                	jal	27e <number+0x2a>
 858:	4700                	lw	x8,8(x14)
 85a:	3b0b3a13          	sltiu	x20,x22,944
 85e:	3905                	jal	48e <number+0x23a>
 860:	0018020b          	0x18020b
	...

Disassembly of section .debug_loc:

00000000 <.debug_loc>:
       0:	0000                	unimp
       2:	0000                	unimp
       4:	0060                	addi	x8,x2,12
       6:	0000                	unimp
       8:	0001                	nop
       a:	605a                	flw	f0,148(x2)
       c:	0000                	unimp
       e:	6c00                	flw	f8,24(x8)
      10:	0000                	unimp
      12:	0600                	addi	x8,x2,768
      14:	f300                	fsw	f8,32(x14)
      16:	250af503          	0x250af503
      1a:	6c9f 0000 7400      	0x740000006c9f
      20:	0000                	unimp
      22:	0100                	addi	x8,x2,128
      24:	5a00                	lw	x8,48(x12)
      26:	0074                	addi	x13,x2,12
      28:	0000                	unimp
      2a:	008c                	addi	x11,x2,64
      2c:	0000                	unimp
      2e:	0006                	c.slli	x0,0x1
      30:	0af503f3          	0xaf503f3
      34:	9f25                	0x9f25
      36:	008c                	addi	x11,x2,64
      38:	0000                	unimp
      3a:	00a4                	addi	x9,x2,72
      3c:	0000                	unimp
      3e:	0001                	nop
      40:	a45a                	fsd	f22,8(x2)
      42:	0000                	unimp
      44:	0c00                	addi	x8,x2,528
      46:	0001                	nop
      48:	0600                	addi	x8,x2,768
      4a:	f300                	fsw	f8,32(x14)
      4c:	250af503          	0x250af503
      50:	0c9f 0001 2400      	0x240000010c9f
      56:	0001                	nop
      58:	0100                	addi	x8,x2,128
      5a:	5a00                	lw	x8,48(x12)
      5c:	0124                	addi	x9,x2,136
      5e:	0000                	unimp
      60:	0508                	addi	x10,x2,640
      62:	0000                	unimp
      64:	0006                	c.slli	x0,0x1
      66:	0af503f3          	0xaf503f3
      6a:	9f25                	0x9f25
	...
      78:	0060                	addi	x8,x2,12
      7a:	0000                	unimp
      7c:	0001                	nop
      7e:	0000605b          	0x605b
      82:	6c00                	flw	f8,24(x8)
      84:	0000                	unimp
      86:	0100                	addi	x8,x2,128
      88:	6600                	flw	f8,8(x12)
      8a:	006c                	addi	x11,x2,12
      8c:	0000                	unimp
      8e:	00000077          	0x77
      92:	0001                	nop
      94:	0000775b          	0x775b
      98:	8c00                	0x8c00
      9a:	0000                	unimp
      9c:	0100                	addi	x8,x2,128
      9e:	6600                	flw	f8,8(x12)
      a0:	008c                	addi	x11,x2,64
      a2:	0000                	unimp
      a4:	00a4                	addi	x9,x2,72
      a6:	0000                	unimp
      a8:	0001                	nop
      aa:	0000a45b          	0xa45b
      ae:	b800                	fsd	f8,48(x8)
      b0:	0000                	unimp
      b2:	0100                	addi	x8,x2,128
      b4:	6600                	flw	f8,8(x12)
      b6:	00b8                	addi	x14,x2,72
      b8:	0000                	unimp
      ba:	010c                	addi	x11,x2,128
      bc:	0000                	unimp
      be:	0006                	c.slli	x0,0x1
      c0:	0bf503f3          	0xbf503f3
      c4:	9f25                	0x9f25
      c6:	010c                	addi	x11,x2,128
      c8:	0000                	unimp
      ca:	0124                	addi	x9,x2,136
      cc:	0000                	unimp
      ce:	0001                	nop
      d0:	0001245b          	0x1245b
      d4:	0800                	addi	x8,x2,16
      d6:	0005                	c.nop	1
      d8:	0600                	addi	x8,x2,768
      da:	f300                	fsw	f8,32(x14)
      dc:	250bf503          	0x250bf503
      e0:	009f 0000 0000      	0x9f
      e6:	0000                	unimp
      e8:	0000                	unimp
      ea:	0000                	unimp
      ec:	a400                	fsd	f8,8(x8)
      ee:	0000                	unimp
      f0:	0200                	addi	x8,x2,256
      f2:	3000                	fld	f8,32(x8)
      f4:	a49f 0000 0c00      	0xc000000a49f
      fa:	0001                	nop
      fc:	0100                	addi	x8,x2,128
      fe:	5900                	lw	x8,48(x10)
     100:	010c                	addi	x11,x2,128
     102:	0000                	unimp
     104:	0124                	addi	x9,x2,136
     106:	0000                	unimp
     108:	0002                	c.slli64	x0
     10a:	9f30                	0x9f30
     10c:	0124                	addi	x9,x2,136
     10e:	0000                	unimp
     110:	015c                	addi	x15,x2,132
     112:	0000                	unimp
     114:	0001                	nop
     116:	6059                	c.lui	x0,0x16
     118:	0001                	nop
     11a:	b800                	fsd	f8,48(x8)
     11c:	0002                	c.slli64	x0
     11e:	0100                	addi	x8,x2,128
     120:	5900                	lw	x8,48(x10)
     122:	02d8                	addi	x14,x2,324
     124:	0000                	unimp
     126:	0374                	addi	x13,x2,396
     128:	0000                	unimp
     12a:	0001                	nop
     12c:	7459                	lui	x8,0xffff6
     12e:	78000003          	lb	x0,1920(x0) # 780 <bsg_printf+0x278>
     132:	05000003          	lb	x0,80(x0) # 50 <bsg_group_size+0x4c>
     136:	7900                	flw	f8,48(x10)
     138:	3400                	fld	f8,40(x8)
     13a:	9f21                	0x9f21
     13c:	0378                	addi	x14,x2,396
     13e:	0000                	unimp
     140:	04ec                	addi	x11,x2,588
     142:	0000                	unimp
     144:	0001                	nop
     146:	f059                	bnez	x8,cc <bsg_group_size+0xc8>
     148:	0004                	0x4
     14a:	0800                	addi	x8,x2,16
     14c:	0005                	c.nop	1
     14e:	0100                	addi	x8,x2,128
     150:	5900                	lw	x8,48(x10)
	...
     15a:	0030                	addi	x12,x2,8
     15c:	0000                	unimp
     15e:	02c4                	addi	x9,x2,324
     160:	0000                	unimp
     162:	0001                	nop
     164:	d864                	sw	x9,116(x8)
     166:	0002                	c.slli64	x0
     168:	0800                	addi	x8,x2,16
     16a:	0005                	c.nop	1
     16c:	0100                	addi	x8,x2,128
     16e:	6400                	flw	f8,8(x8)
	...
     178:	0060                	addi	x8,x2,12
     17a:	0000                	unimp
     17c:	0064                	addi	x9,x2,12
     17e:	0000                	unimp
     180:	0002                	c.slli64	x0
     182:	9f30                	0x9f30
     184:	0090                	addi	x12,x2,64
     186:	0000                	unimp
     188:	00a4                	addi	x9,x2,72
     18a:	0000                	unimp
     18c:	0002                	c.slli64	x0
     18e:	00a49f33          	sll	x30,x9,x10
     192:	0000                	unimp
     194:	010c                	addi	x11,x2,128
     196:	0000                	unimp
     198:	0001                	nop
     19a:	00012467          	0x12467
     19e:	d000                	sw	x8,32(x8)
     1a0:	0002                	c.slli64	x0
     1a2:	0100                	addi	x8,x2,128
     1a4:	6700                	flw	f8,8(x14)
     1a6:	02d8                	addi	x14,x2,324
     1a8:	0000                	unimp
     1aa:	0508                	addi	x10,x2,640
     1ac:	0000                	unimp
     1ae:	0001                	nop
     1b0:	00000067          	jr	x0 # 0 <_start>
     1b4:	0000                	unimp
     1b6:	0000                	unimp
     1b8:	4400                	lw	x8,8(x8)
     1ba:	0000                	unimp
     1bc:	c800                	sw	x8,16(x8)
     1be:	0002                	c.slli64	x0
     1c0:	0600                	addi	x8,x2,768
     1c2:	8500                	0x8500
     1c4:	0800                	addi	x8,x2,16
     1c6:	1aff                	0x1aff
     1c8:	d89f 0002 0800      	0x8000002d89f
     1ce:	0005                	c.nop	1
     1d0:	0600                	addi	x8,x2,768
     1d2:	8500                	0x8500
     1d4:	0800                	addi	x8,x2,16
     1d6:	1aff                	0x1aff
     1d8:	009f 0000 0000      	0x9f
     1de:	0000                	unimp
     1e0:	4000                	lw	x8,0(x8)
     1e2:	0000                	unimp
     1e4:	6000                	flw	f8,0(x8)
     1e6:	0000                	unimp
     1e8:	0600                	addi	x8,x2,768
     1ea:	8300                	0x8300
     1ec:	0800                	addi	x8,x2,16
     1ee:	1aff                	0x1aff
     1f0:	609f 0000 6400      	0x64000000609f
     1f6:	0000                	unimp
     1f8:	0100                	addi	x8,x2,128
     1fa:	6300                	flw	f8,0(x14)
     1fc:	006c                	addi	x11,x2,12
     1fe:	0000                	unimp
     200:	0080                	addi	x8,x2,64
     202:	0000                	unimp
     204:	0006                	c.slli	x0,0x1
     206:	ff080083          	lb	x1,-16(x16)
     20a:	9f1a                	add	x30,x30,x6
     20c:	008c                	addi	x11,x2,64
     20e:	0000                	unimp
     210:	0098                	addi	x14,x2,64
     212:	0000                	unimp
     214:	0006                	c.slli	x0,0x1
     216:	ff080083          	lb	x1,-16(x16)
     21a:	9f1a                	add	x30,x30,x6
     21c:	0098                	addi	x14,x2,64
     21e:	0000                	unimp
     220:	00a4                	addi	x9,x2,72
     222:	0000                	unimp
     224:	0008                	0x8
     226:	007a                	c.slli	x0,0x1e
     228:	ff082547          	fmsub.q	f10,f16,f16,f31,rdn
     22c:	9f1a                	add	x30,x30,x6
     22e:	00a4                	addi	x9,x2,72
     230:	0000                	unimp
     232:	00dc                	addi	x15,x2,68
     234:	0000                	unimp
     236:	0001                	nop
     238:	00010c63          	beqz	x2,250 <bsg_set_tile_x_y+0x100>
     23c:	1000                	addi	x8,x2,32
     23e:	0001                	nop
     240:	0600                	addi	x8,x2,768
     242:	8300                	0x8300
     244:	0800                	addi	x8,x2,16
     246:	1aff                	0x1aff
     248:	109f 0001 1800      	0x18000001109f
     24e:	0001                	nop
     250:	0800                	addi	x8,x2,16
     252:	7a00                	flw	f8,48(x12)
     254:	4700                	lw	x8,8(x14)
     256:	0825                	addi	x16,x16,9
     258:	1aff                	0x1aff
     25a:	189f 0001 1c00      	0x1c000001189f
     260:	0001                	nop
     262:	0600                	addi	x8,x2,768
     264:	8300                	0x8300
     266:	0800                	addi	x8,x2,16
     268:	1aff                	0x1aff
     26a:	1c9f 0001 2400      	0x240000011c9f
     270:	0001                	nop
     272:	0800                	addi	x8,x2,16
     274:	7a00                	flw	f8,48(x12)
     276:	4700                	lw	x8,8(x14)
     278:	0825                	addi	x16,x16,9
     27a:	1aff                	0x1aff
     27c:	249f 0001 8400      	0x84000001249f
     282:	0001                	nop
     284:	0100                	addi	x8,x2,128
     286:	6300                	flw	f8,0(x14)
	...
     290:	0040                	addi	x8,x2,4
     292:	0000                	unimp
     294:	0050                	addi	x12,x2,4
     296:	0000                	unimp
     298:	0001                	nop
     29a:	5062                	0x5062
     29c:	0000                	unimp
     29e:	5400                	lw	x8,40(x8)
     2a0:	0000                	unimp
     2a2:	0700                	addi	x8,x2,896
     2a4:	8200                	0x8200
     2a6:	4000                	lw	x8,0(x8)
     2a8:	9f212443          	fmadd.q	f8,f2,f18,f19,rdn
     2ac:	0054                	addi	x13,x2,4
     2ae:	0000                	unimp
     2b0:	005c                	addi	x15,x2,4
     2b2:	0000                	unimp
     2b4:	007a000b          	0x7a000b
     2b8:	2439                	jal	4c6 <number+0x272>
     2ba:	2539                	jal	8c8 <bsg_printf+0x3c0>
     2bc:	4340                	lw	x8,4(x14)
     2be:	2124                	fld	f9,64(x10)
     2c0:	5c9f 0000 9400      	0x940000005c9f
     2c6:	0001                	nop
     2c8:	0100                	addi	x8,x2,128
     2ca:	6200                	flw	f8,0(x12)
     2cc:	02d8                	addi	x14,x2,324
     2ce:	0000                	unimp
     2d0:	02e0                	addi	x8,x2,332
     2d2:	0000                	unimp
     2d4:	0001                	nop
     2d6:	e462                	fsw	f24,8(x2)
     2d8:	0002                	c.slli64	x0
     2da:	3400                	fld	f8,40(x8)
     2dc:	01000003          	lb	x0,16(x0) # 10 <bsg_group_size+0xc>
     2e0:	6200                	flw	f8,0(x12)
     2e2:	04dc                	addi	x15,x2,580
     2e4:	0000                	unimp
     2e6:	0508                	addi	x10,x2,640
     2e8:	0000                	unimp
     2ea:	0001                	nop
     2ec:	0062                	c.slli	x0,0x18
     2ee:	0000                	unimp
     2f0:	0000                	unimp
     2f2:	0000                	unimp
     2f4:	d400                	sw	x8,40(x8)
     2f6:	0000                	unimp
     2f8:	d800                	sw	x8,48(x8)
     2fa:	0000                	unimp
     2fc:	0200                	addi	x8,x2,256
     2fe:	3000                	fld	f8,32(x8)
     300:	d89f 0000 0c00      	0xc000000d89f
     306:	0001                	nop
     308:	0100                	addi	x8,x2,128
     30a:	5e00                	lw	x8,56(x12)
     30c:	0148                	addi	x10,x2,132
     30e:	0000                	unimp
     310:	0160                	addi	x8,x2,140
     312:	0000                	unimp
     314:	0002                	c.slli64	x0
     316:	01789f33          	sll	x30,x17,x23
     31a:	0000                	unimp
     31c:	0184                	addi	x9,x2,192
     31e:	0000                	unimp
     320:	0002                	c.slli64	x0
     322:	01849f33          	sll	x30,x9,x24
     326:	0000                	unimp
     328:	01b0                	addi	x12,x2,200
     32a:	0000                	unimp
     32c:	0001                	nop
     32e:	d85e                	sw	x23,48(x2)
     330:	0002                	c.slli64	x0
     332:	f000                	fsw	f8,32(x8)
     334:	0002                	c.slli64	x0
     336:	0100                	addi	x8,x2,128
     338:	5e00                	lw	x8,56(x12)
     33a:	030c                	addi	x11,x2,384
     33c:	0000                	unimp
     33e:	0318                	addi	x14,x2,384
     340:	0000                	unimp
     342:	0001                	nop
     344:	245e                	fld	f8,464(x2)
     346:	30000003          	lb	x0,768(x0) # 300 <number+0xac>
     34a:	01000003          	lb	x0,16(x0) # 10 <bsg_group_size+0xc>
     34e:	5e00                	lw	x8,56(x12)
     350:	04dc                	addi	x15,x2,580
     352:	0000                	unimp
     354:	04f0                	addi	x12,x2,588
     356:	0000                	unimp
     358:	0001                	nop
     35a:	005e                	c.slli	x0,0x17
     35c:	0000                	unimp
     35e:	0000                	unimp
     360:	0000                	unimp
     362:	b800                	fsd	f8,48(x8)
     364:	0000                	unimp
     366:	0c00                	addi	x8,x2,528
     368:	0001                	nop
     36a:	0600                	addi	x8,x2,768
     36c:	8600                	0x8600
     36e:	0800                	addi	x8,x2,16
     370:	1aff                	0x1aff
     372:	249f 0001 cc00      	0xcc000001249f
     378:	0002                	c.slli64	x0
     37a:	0600                	addi	x8,x2,768
     37c:	8600                	0x8600
     37e:	0800                	addi	x8,x2,16
     380:	1aff                	0x1aff
     382:	d89f 0002 0800      	0x8000002d89f
     388:	0005                	c.nop	1
     38a:	0600                	addi	x8,x2,768
     38c:	8600                	0x8600
     38e:	0800                	addi	x8,x2,16
     390:	1aff                	0x1aff
     392:	009f 0000 0000      	0x9f
     398:	0000                	unimp
     39a:	b400                	fsd	f8,40(x8)
     39c:	0000                	unimp
     39e:	d400                	sw	x8,40(x8)
     3a0:	0000                	unimp
     3a2:	0600                	addi	x8,x2,768
     3a4:	7f00                	flw	f8,56(x14)
     3a6:	0800                	addi	x8,x2,16
     3a8:	1aff                	0x1aff
     3aa:	d49f 0000 e000      	0xe0000000d49f
     3b0:	0000                	unimp
     3b2:	0100                	addi	x8,x2,128
     3b4:	5f00                	lw	x8,56(x14)
     3b6:	0124                	addi	x9,x2,136
     3b8:	0000                	unimp
     3ba:	0000012f          	0x12f
     3be:	0006                	c.slli	x0,0x1
     3c0:	007f                	0x7f
     3c2:	ff08                	fsw	f10,56(x14)
     3c4:	9f1a                	add	x30,x30,x6
     3c6:	0144                	addi	x9,x2,132
     3c8:	0000                	unimp
     3ca:	014c                	addi	x11,x2,132
     3cc:	0000                	unimp
     3ce:	0006                	c.slli	x0,0x1
     3d0:	007f                	0x7f
     3d2:	ff08                	fsw	f10,56(x14)
     3d4:	9f1a                	add	x30,x30,x6
     3d6:	0160                	addi	x8,x2,140
     3d8:	0000                	unimp
     3da:	0164                	addi	x9,x2,140
     3dc:	0000                	unimp
     3de:	0006                	c.slli	x0,0x1
     3e0:	007f                	0x7f
     3e2:	ff08                	fsw	f10,56(x14)
     3e4:	9f1a                	add	x30,x30,x6
     3e6:	016c                	addi	x11,x2,140
     3e8:	0000                	unimp
     3ea:	0170                	addi	x12,x2,140
     3ec:	0000                	unimp
     3ee:	0006                	c.slli	x0,0x1
     3f0:	007f                	0x7f
     3f2:	ff08                	fsw	f10,56(x14)
     3f4:	9f1a                	add	x30,x30,x6
	...
     3fe:	00cc                	addi	x11,x2,68
     400:	0000                	unimp
     402:	00d0                	addi	x12,x2,68
     404:	0000                	unimp
     406:	00780007          	0x780007
     40a:	4642                	lw	x12,16(x2)
     40c:	2124                	fld	f9,64(x10)
     40e:	d09f 0000 d800      	0xd8000000d09f
     414:	0000                	unimp
     416:	0100                	addi	x8,x2,128
     418:	5800                	lw	x8,48(x8)
     41a:	0134                	addi	x13,x2,136
     41c:	0000                	unimp
     41e:	0138                	addi	x14,x2,136
     420:	0000                	unimp
     422:	0009                	c.nop	2
     424:	0078                	addi	x14,x2,12
     426:	007f                	0x7f
     428:	ff08                	fsw	f10,56(x14)
     42a:	241a                	fld	f8,384(x2)
     42c:	389f 0001 4400      	0x44000001389f
     432:	0001                	nop
     434:	0100                	addi	x8,x2,128
     436:	5800                	lw	x8,48(x8)
     438:	0220                	addi	x8,x2,264
     43a:	0000                	unimp
     43c:	0224                	addi	x9,x2,264
     43e:	0000                	unimp
     440:	0006                	c.slli	x0,0x1
     442:	0078                	addi	x14,x2,12
     444:	007f                	0x7f
     446:	9f21                	0x9f21
     448:	0258                	addi	x14,x2,260
     44a:	0000                	unimp
     44c:	025c                	addi	x15,x2,260
     44e:	0000                	unimp
     450:	04780003          	lb	x0,71(x16)
     454:	6c9f 0002 7000      	0x700000026c9f
     45a:	0002                	c.slli64	x0
     45c:	0600                	addi	x8,x2,768
     45e:	7800                	flw	f8,48(x8)
     460:	7f00                	flw	f8,56(x14)
     462:	1a00                	addi	x8,x2,304
     464:	709f 0002 7400      	0x74000002709f
     46a:	0002                	c.slli64	x0
     46c:	0100                	addi	x8,x2,128
     46e:	5800                	lw	x8,48(x8)
     470:	027c                	addi	x15,x2,268
     472:	0000                	unimp
     474:	0280                	addi	x8,x2,320
     476:	0000                	unimp
     478:	0005                	c.nop	1
     47a:	0078                	addi	x14,x2,12
     47c:	809f2533          	0x809f2533
     480:	0002                	c.slli64	x0
     482:	8400                	0x8400
     484:	0002                	c.slli64	x0
     486:	0100                	addi	x8,x2,128
     488:	5800                	lw	x8,48(x8)
     48a:	02e8                	addi	x10,x2,332
     48c:	0000                	unimp
     48e:	02f0                	addi	x12,x2,332
     490:	0000                	unimp
     492:	0001                	nop
     494:	1862                	slli	x16,x16,0x38
     496:	24000003          	lb	x0,576(x0) # 240 <bsg_set_tile_x_y+0xf0>
     49a:	02000003          	lb	x0,32(x0) # 20 <bsg_group_size+0x1c>
     49e:	3000                	fld	f8,32(x8)
     4a0:	249f 0003 3400      	0x34000003249f
     4a6:	04000003          	lb	x0,64(x0) # 40 <bsg_group_size+0x3c>
     4aa:	4000                	lw	x8,0(x8)
     4ac:	2442                	fld	f8,16(x2)
     4ae:	389f 0003 3c00      	0x3c000003389f
     4b4:	03000003          	lb	x0,48(x0) # 30 <bsg_group_size+0x2c>
     4b8:	7800                	flw	f8,48(x8)
     4ba:	9f08                	0x9f08
     4bc:	033c                	addi	x15,x2,392
     4be:	0000                	unimp
     4c0:	0340                	addi	x8,x2,388
     4c2:	0000                	unimp
     4c4:	0001                	nop
     4c6:	5c58                	lw	x14,60(x8)
     4c8:	68000003          	lb	x0,1664(x0) # 680 <bsg_printf+0x178>
     4cc:	02000003          	lb	x0,32(x0) # 20 <bsg_group_size+0x1c>
     4d0:	3000                	fld	f8,32(x8)
     4d2:	6c9f 0003 7400      	0x740000036c9f
     4d8:	03000003          	lb	x0,48(x0) # 30 <bsg_group_size+0x2c>
     4dc:	0900                	addi	x8,x2,144
     4de:	9fff                	0x9fff
     4e0:	0438                	addi	x14,x2,520
     4e2:	0000                	unimp
     4e4:	0440                	addi	x8,x2,516
     4e6:	0000                	unimp
     4e8:	0002                	c.slli64	x0
     4ea:	9f30                	0x9f30
     4ec:	0470                	addi	x12,x2,524
     4ee:	0000                	unimp
     4f0:	0474                	addi	x13,x2,524
     4f2:	0000                	unimp
     4f4:	0005                	c.nop	1
     4f6:	0078                	addi	x14,x2,12
     4f8:	749f2533          	0x749f2533
     4fc:	0004                	0x4
     4fe:	8400                	0x8400
     500:	0004                	0x4
     502:	0100                	addi	x8,x2,128
     504:	5800                	lw	x8,48(x8)
     506:	04b0                	addi	x12,x2,584
     508:	0000                	unimp
     50a:	04b4                	addi	x13,x2,584
     50c:	0000                	unimp
     50e:	0005                	c.nop	1
     510:	0078                	addi	x14,x2,12
     512:	dc9f2533          	0xdc9f2533
     516:	0004                	0x4
     518:	f000                	fsw	f8,32(x8)
     51a:	0004                	0x4
     51c:	0400                	addi	x8,x2,512
     51e:	4000                	lw	x8,0(x8)
     520:	2442                	fld	f8,16(x2)
     522:	f09f 0004 f800      	0xf8000004f09f
     528:	0004                	0x4
     52a:	0200                	addi	x8,x2,256
     52c:	3000                	fld	f8,32(x8)
     52e:	f89f 0004 0800      	0x8000004f89f
     534:	0005                	c.nop	1
     536:	0400                	addi	x8,x2,512
     538:	4000                	lw	x8,0(x8)
     53a:	2442                	fld	f8,16(x2)
     53c:	009f 0000 0000      	0x9f
     542:	0000                	unimp
     544:	8400                	0x8400
     546:	0001                	nop
     548:	2400                	fld	f8,8(x8)
     54a:	0002                	c.slli64	x0
     54c:	0200                	addi	x8,x2,256
     54e:	3000                	fld	f8,32(x8)
     550:	d89f 0002 e400      	0xe4000002d89f
     556:	0002                	c.slli64	x0
     558:	0200                	addi	x8,x2,256
     55a:	3000                	fld	f8,32(x8)
     55c:	e89f 0002 f000      	0xf0000002e89f
     562:	0002                	c.slli64	x0
     564:	0100                	addi	x8,x2,128
     566:	6700                	flw	f8,8(x14)
     568:	02f0                	addi	x12,x2,332
     56a:	0000                	unimp
     56c:	030c                	addi	x11,x2,384
     56e:	0000                	unimp
     570:	0001                	nop
     572:	105e                	c.slli	x0,0x37
     574:	14000003          	lb	x0,320(x0) # 140 <write_finish_signal+0x14>
     578:	01000003          	lb	x0,16(x0) # 10 <bsg_group_size+0xc>
     57c:	5e00                	lw	x8,56(x12)
     57e:	04f8                	addi	x14,x2,588
     580:	0000                	unimp
     582:	0508                	addi	x10,x2,640
     584:	0000                	unimp
     586:	0001                	nop
     588:	005e                	c.slli	x0,0x17
     58a:	0000                	unimp
     58c:	0000                	unimp
     58e:	0000                	unimp
     590:	f000                	fsw	f8,32(x8)
     592:	0000                	unimp
     594:	0c00                	addi	x8,x2,528
     596:	0001                	nop
     598:	0600                	addi	x8,x2,768
     59a:	7c00                	flw	f8,56(x8)
     59c:	0800                	addi	x8,x2,16
     59e:	1aff                	0x1aff
     5a0:	849f 0001 2400      	0x24000001849f
     5a6:	0002                	c.slli64	x0
     5a8:	0600                	addi	x8,x2,768
     5aa:	7c00                	flw	f8,56(x8)
     5ac:	0800                	addi	x8,x2,16
     5ae:	1aff                	0x1aff
     5b0:	d89f 0002 e400      	0xe4000002d89f
     5b6:	0002                	c.slli64	x0
     5b8:	0600                	addi	x8,x2,768
     5ba:	7c00                	flw	f8,56(x8)
     5bc:	0800                	addi	x8,x2,16
     5be:	1aff                	0x1aff
     5c0:	e49f 0002 e800      	0xe8000002e49f
     5c6:	0002                	c.slli64	x0
     5c8:	0100                	addi	x8,x2,128
     5ca:	6500                	flw	f8,8(x10)
     5cc:	02e8                	addi	x10,x2,332
     5ce:	0000                	unimp
     5d0:	02f0                	addi	x12,x2,332
     5d2:	0000                	unimp
     5d4:	0006                	c.slli	x0,0x1
     5d6:	0085                	addi	x1,x1,1
     5d8:	ff08                	fsw	f10,56(x14)
     5da:	9f1a                	add	x30,x30,x6
     5dc:	030c                	addi	x11,x2,384
     5de:	0000                	unimp
     5e0:	0310                	addi	x12,x2,384
     5e2:	0000                	unimp
     5e4:	0001                	nop
     5e6:	1066                	c.slli	x0,0x39
     5e8:	14000003          	lb	x0,320(x0) # 140 <write_finish_signal+0x14>
     5ec:	06000003          	lb	x0,96(x0) # 60 <bsg_group_size+0x5c>
     5f0:	8600                	0x8600
     5f2:	0800                	addi	x8,x2,16
     5f4:	1aff                	0x1aff
     5f6:	149f 0003 1800      	0x18000003149f
     5fc:	06000003          	lb	x0,96(x0) # 60 <bsg_group_size+0x5c>
     600:	7c00                	flw	f8,56(x8)
     602:	0800                	addi	x8,x2,16
     604:	1aff                	0x1aff
     606:	249f 0003 2800      	0x28000003249f
     60c:	06000003          	lb	x0,96(x0) # 60 <bsg_group_size+0x5c>
     610:	7c00                	flw	f8,56(x8)
     612:	0800                	addi	x8,x2,16
     614:	1aff                	0x1aff
     616:	289f 0003 3400      	0x34000003289f
     61c:	02000003          	lb	x0,32(x0) # 20 <bsg_group_size+0x1c>
     620:	3000                	fld	f8,32(x8)
     622:	dc9f 0004 e400      	0xe4000004dc9f
     628:	0004                	0x4
     62a:	0600                	addi	x8,x2,768
     62c:	7c00                	flw	f8,56(x8)
     62e:	0800                	addi	x8,x2,16
     630:	1aff                	0x1aff
     632:	e49f 0004 f000      	0xf0000004e49f
     638:	0004                	0x4
     63a:	0200                	addi	x8,x2,256
     63c:	3000                	fld	f8,32(x8)
     63e:	009f 0005 0800      	0x8000005009f
     644:	0005                	c.nop	1
     646:	0200                	addi	x8,x2,256
     648:	3000                	fld	f8,32(x8)
     64a:	009f 0000 0000      	0x9f
     650:	0000                	unimp
     652:	f000                	fsw	f8,32(x8)
     654:	0000                	unimp
     656:	0c00                	addi	x8,x2,528
     658:	0001                	nop
     65a:	0100                	addi	x8,x2,128
     65c:	6300                	flw	f8,0(x14)
     65e:	0184                	addi	x9,x2,192
     660:	0000                	unimp
     662:	0228                	addi	x10,x2,264
     664:	0000                	unimp
     666:	0001                	nop
     668:	00022863          	0x22863
     66c:	8400                	0x8400
     66e:	0002                	c.slli64	x0
     670:	0100                	addi	x8,x2,128
     672:	5d00                	lw	x8,56(x10)
     674:	02d8                	addi	x14,x2,324
     676:	0000                	unimp
     678:	0334                	addi	x13,x2,392
     67a:	0000                	unimp
     67c:	0001                	nop
     67e:	00033463          	0x33463
     682:	7400                	flw	f8,40(x8)
     684:	01000003          	lb	x0,16(x0) # 10 <bsg_group_size+0xc>
     688:	5d00                	lw	x8,56(x10)
     68a:	037c                	addi	x15,x2,396
     68c:	0000                	unimp
     68e:	03d8                	addi	x14,x2,452
     690:	0000                	unimp
     692:	0001                	nop
     694:	d85d                	beqz	x8,64a <bsg_printf+0x142>
     696:	e8000003          	lb	x0,-384(x0) # fffffe80 <_end+0x7efffe20>
     69a:	01000003          	lb	x0,16(x0) # 10 <bsg_group_size+0xc>
     69e:	5e00                	lw	x8,56(x12)
     6a0:	03e8                	addi	x10,x2,460
     6a2:	0000                	unimp
     6a4:	042c                	addi	x11,x2,520
     6a6:	0000                	unimp
     6a8:	0006                	c.slli	x0,0x1
     6aa:	2008                	fld	f10,0(x8)
     6ac:	9f1c0083          	lb	x1,-1551(x24)
     6b0:	042c                	addi	x11,x2,520
     6b2:	0000                	unimp
     6b4:	0440                	addi	x8,x2,516
     6b6:	0000                	unimp
     6b8:	0002                	c.slli64	x0
     6ba:	9f31                	0x9f31
     6bc:	0440                	addi	x8,x2,516
     6be:	0000                	unimp
     6c0:	045c                	addi	x15,x2,516
     6c2:	0000                	unimp
     6c4:	0001                	nop
     6c6:	5c5d                	li	x24,-9
     6c8:	0004                	0x4
     6ca:	7000                	flw	f8,32(x8)
     6cc:	0004                	0x4
     6ce:	0600                	addi	x8,x2,768
     6d0:	0800                	addi	x8,x2,16
     6d2:	8320                	0x8320
     6d4:	1c00                	addi	x8,x2,560
     6d6:	709f 0004 8400      	0x84000004709f
     6dc:	0004                	0x4
     6de:	0200                	addi	x8,x2,256
     6e0:	3000                	fld	f8,32(x8)
     6e2:	8c9f 0004 b800      	0xb80000048c9f
     6e8:	0004                	0x4
     6ea:	0200                	addi	x8,x2,256
     6ec:	3000                	fld	f8,32(x8)
     6ee:	c09f 0004 dc00      	0xdc000004c09f
     6f4:	0004                	0x4
     6f6:	0200                	addi	x8,x2,256
     6f8:	3000                	fld	f8,32(x8)
     6fa:	dc9f 0004 0800      	0x8000004dc9f
     700:	0005                	c.nop	1
     702:	0100                	addi	x8,x2,128
     704:	6300                	flw	f8,0(x14)
	...
     70e:	0258                	addi	x14,x2,260
     710:	0000                	unimp
     712:	025c                	addi	x15,x2,260
     714:	0000                	unimp
     716:	04780003          	lb	x0,71(x16)
     71a:	6c9f 0002 7000      	0x700000026c9f
     720:	0002                	c.slli64	x0
     722:	0600                	addi	x8,x2,768
     724:	7800                	flw	f8,48(x8)
     726:	7f00                	flw	f8,56(x14)
     728:	1a00                	addi	x8,x2,304
     72a:	709f 0002 7400      	0x74000002709f
     730:	0002                	c.slli64	x0
     732:	0100                	addi	x8,x2,128
     734:	5800                	lw	x8,48(x8)
     736:	027c                	addi	x15,x2,268
     738:	0000                	unimp
     73a:	0280                	addi	x8,x2,320
     73c:	0000                	unimp
     73e:	00780007          	0x780007
     742:	25332533          	0x25332533
     746:	809f 0002 8400      	0x84000002809f
     74c:	0002                	c.slli64	x0
     74e:	0500                	addi	x8,x2,640
     750:	7800                	flw	f8,48(x8)
     752:	3300                	fld	f8,32(x14)
     754:	9f25                	0x9f25
     756:	02e8                	addi	x10,x2,332
     758:	0000                	unimp
     75a:	02f0                	addi	x12,x2,332
     75c:	0000                	unimp
     75e:	0001                	nop
     760:	3862                	fld	f16,56(x2)
     762:	3c000003          	lb	x0,960(x0) # 3c0 <number+0x16c>
     766:	03000003          	lb	x0,48(x0) # 30 <bsg_group_size+0x2c>
     76a:	7800                	flw	f8,48(x8)
     76c:	9f08                	0x9f08
     76e:	033c                	addi	x15,x2,392
     770:	0000                	unimp
     772:	0340                	addi	x8,x2,388
     774:	0000                	unimp
     776:	0001                	nop
     778:	5c58                	lw	x14,60(x8)
     77a:	68000003          	lb	x0,1664(x0) # 680 <bsg_printf+0x178>
     77e:	02000003          	lb	x0,32(x0) # 20 <bsg_group_size+0x1c>
     782:	3000                	fld	f8,32(x8)
     784:	6c9f 0003 7400      	0x740000036c9f
     78a:	06000003          	lb	x0,96(x0) # 60 <bsg_group_size+0x5c>
     78e:	0c00                	addi	x8,x2,528
     790:	ffff                	0xffff
     792:	1fff                	0x1fff
     794:	f49f 0003 2c00      	0x2c000003f49f
     79a:	0004                	0x4
     79c:	0100                	addi	x8,x2,128
     79e:	5800                	lw	x8,48(x8)
     7a0:	042c                	addi	x11,x2,520
     7a2:	0000                	unimp
     7a4:	0440                	addi	x8,x2,516
     7a6:	0000                	unimp
     7a8:	0002                	c.slli64	x0
     7aa:	9f30                	0x9f30
     7ac:	045c                	addi	x15,x2,516
     7ae:	0000                	unimp
     7b0:	0484                	addi	x9,x2,576
     7b2:	0000                	unimp
     7b4:	0001                	nop
     7b6:	9058                	0x9058
     7b8:	0004                	0x4
     7ba:	b000                	fsd	f8,32(x8)
     7bc:	0004                	0x4
     7be:	0200                	addi	x8,x2,256
     7c0:	3100                	fld	f8,32(x10)
     7c2:	b09f 0004 b400      	0xb4000004b09f
     7c8:	0004                	0x4
     7ca:	0100                	addi	x8,x2,128
     7cc:	5800                	lw	x8,48(x8)
     7ce:	04c0                	addi	x8,x2,580
     7d0:	0000                	unimp
     7d2:	04dc                	addi	x15,x2,580
     7d4:	0000                	unimp
     7d6:	0002                	c.slli64	x0
     7d8:	9f31                	0x9f31
     7da:	04f8                	addi	x14,x2,588
     7dc:	0000                	unimp
     7de:	0508                	addi	x10,x2,640
     7e0:	0000                	unimp
     7e2:	0004                	0x4
     7e4:	4240                	lw	x8,4(x12)
     7e6:	9f24                	0x9f24
	...
     7f0:	02a4                	addi	x9,x2,328
     7f2:	0000                	unimp
     7f4:	02d8                	addi	x14,x2,324
     7f6:	0000                	unimp
     7f8:	0001                	nop
     7fa:	005a                	c.slli	x0,0x16
     7fc:	0000                	unimp
     7fe:	0000                	unimp
     800:	0000                	unimp
     802:	7800                	flw	f8,48(x8)
     804:	0000                	unimp
     806:	8c00                	0x8c00
     808:	0000                	unimp
     80a:	0300                	addi	x8,x2,384
     80c:	7a00                	flw	f8,48(x12)
     80e:	9f78                	0x9f78
	...
     818:	0130                	addi	x12,x2,136
     81a:	0000                	unimp
     81c:	0144                	addi	x9,x2,132
     81e:	0000                	unimp
     820:	787a0003          	lb	x0,1927(x20)
     824:	009f 0000 0000      	0x9f
     82a:	0000                	unimp
     82c:	9000                	0x9000
     82e:	0001                	nop
     830:	2400                	fld	f8,8(x8)
     832:	0002                	c.slli64	x0
     834:	0100                	addi	x8,x2,128
     836:	6200                	flw	f8,0(x12)
     838:	02e0                	addi	x8,x2,332
     83a:	0000                	unimp
     83c:	02e4                	addi	x9,x2,332
     83e:	0000                	unimp
     840:	0001                	nop
     842:	0062                	c.slli	x0,0x18
     844:	0000                	unimp
     846:	0000                	unimp
     848:	0000                	unimp
     84a:	9000                	0x9000
     84c:	0001                	nop
     84e:	9400                	0x9400
     850:	0001                	nop
     852:	0200                	addi	x8,x2,256
     854:	3000                	fld	f8,32(x8)
     856:	949f 0001 ac00      	0xac000001949f
     85c:	0001                	nop
     85e:	0100                	addi	x8,x2,128
     860:	5d00                	lw	x8,56(x10)
     862:	02dc                	addi	x15,x2,324
     864:	0000                	unimp
     866:	02e4                	addi	x9,x2,332
     868:	0000                	unimp
     86a:	0001                	nop
     86c:	005d                	c.nop	23
     86e:	0000                	unimp
     870:	0000                	unimp
     872:	0000                	unimp
     874:	1000                	addi	x8,x2,32
     876:	0002                	c.slli64	x0
     878:	1c00                	addi	x8,x2,560
     87a:	0002                	c.slli64	x0
     87c:	0800                	addi	x8,x2,16
     87e:	7b00                	flw	f8,48(x14)
     880:	4000                	lw	x8,0(x8)
     882:	7e24                	flw	f9,120(x12)
     884:	2100                	fld	f8,0(x10)
     886:	1c9f 0002 2400      	0x240000021c9f
     88c:	0002                	c.slli64	x0
     88e:	0100                	addi	x8,x2,128
     890:	5800                	lw	x8,48(x8)
	...
     89a:	0210                	addi	x12,x2,256
     89c:	0000                	unimp
     89e:	0218                	addi	x14,x2,256
     8a0:	0000                	unimp
     8a2:	0006                	c.slli	x0,0x1
     8a4:	007f                	0x7f
     8a6:	007d                	c.nop	31
     8a8:	9f1c                	0x9f1c
     8aa:	0218                	addi	x14,x2,256
     8ac:	0000                	unimp
     8ae:	0220                	addi	x8,x2,264
     8b0:	0000                	unimp
     8b2:	0001                	nop
     8b4:	005f 0000 0000      	0x5f
     8ba:	0000                	unimp
     8bc:	8800                	0x8800
     8be:	0001                	nop
     8c0:	2400                	fld	f8,8(x8)
     8c2:	0002                	c.slli64	x0
     8c4:	0100                	addi	x8,x2,128
     8c6:	5a00                	lw	x8,48(x12)
     8c8:	02d8                	addi	x14,x2,324
     8ca:	0000                	unimp
     8cc:	02e4                	addi	x9,x2,332
     8ce:	0000                	unimp
     8d0:	0001                	nop
     8d2:	005a                	c.slli	x0,0x16
     8d4:	0000                	unimp
     8d6:	0000                	unimp
     8d8:	0000                	unimp
     8da:	9800                	0x9800
     8dc:	0001                	nop
     8de:	1400                	addi	x8,x2,544
     8e0:	0002                	c.slli64	x0
     8e2:	0100                	addi	x8,x2,128
     8e4:	5800                	lw	x8,48(x8)
     8e6:	0214                	addi	x13,x2,256
     8e8:	0000                	unimp
     8ea:	0224                	addi	x9,x2,264
     8ec:	0000                	unimp
     8ee:	0005                	c.nop	1
     8f0:	007a                	c.slli	x0,0x1e
     8f2:	2540                	fld	f8,136(x10)
     8f4:	009f 0000 0000      	0x9f
     8fa:	0000                	unimp
     8fc:	a800                	fsd	f8,16(x8)
     8fe:	0001                	nop
     900:	f000                	fsw	f8,32(x8)
     902:	0001                	nop
     904:	0100                	addi	x8,x2,128
     906:	5f00                	lw	x8,56(x14)
     908:	01f0                	addi	x12,x2,204
     90a:	0000                	unimp
     90c:	0224                	addi	x9,x2,264
     90e:	0000                	unimp
     910:	007a0007          	0x7a0007
     914:	ff0a                	fsw	f2,188(x2)
     916:	1aff                	0x1aff
     918:	009f 0000 0000      	0x9f
     91e:	0000                	unimp
     920:	a800                	fsd	f8,16(x8)
     922:	0001                	nop
     924:	cc00                	sw	x8,24(x8)
     926:	0001                	nop
     928:	0100                	addi	x8,x2,128
     92a:	6100                	flw	f8,0(x10)
     92c:	01cc                	addi	x11,x2,196
     92e:	0000                	unimp
     930:	0224                	addi	x9,x2,264
     932:	0000                	unimp
     934:	0001                	nop
     936:	0000005b          	0x5b
     93a:	0000                	unimp
     93c:	0000                	unimp
     93e:	e400                	fsw	f8,8(x8)
     940:	0001                	nop
     942:	0000                	unimp
     944:	0002                	c.slli64	x0
     946:	0100                	addi	x8,x2,128
     948:	6000                	flw	f8,0(x8)
     94a:	0200                	addi	x8,x2,256
     94c:	0000                	unimp
     94e:	0224                	addi	x9,x2,264
     950:	0000                	unimp
     952:	0001                	nop
     954:	005e                	c.slli	x0,0x17
     956:	0000                	unimp
     958:	0000                	unimp
     95a:	0000                	unimp
     95c:	a800                	fsd	f8,16(x8)
     95e:	0001                	nop
     960:	b000                	fsd	f8,32(x8)
     962:	0001                	nop
     964:	0600                	addi	x8,x2,768
     966:	8200                	0x8200
     968:	7800                	flw	f8,48(x8)
     96a:	1d00                	addi	x8,x2,688
     96c:	b09f 0001 bc00      	0xbc000001b09f
     972:	0001                	nop
     974:	0100                	addi	x8,x2,128
     976:	5e00                	lw	x8,56(x12)
     978:	01bc                	addi	x15,x2,200
     97a:	0000                	unimp
     97c:	01c0                	addi	x8,x2,196
     97e:	0000                	unimp
     980:	0006                	c.slli	x0,0x1
     982:	0082                	c.slli64	x1
     984:	0078                	addi	x14,x2,12
     986:	9f1d                	0x9f1d
     988:	01c0                	addi	x8,x2,196
     98a:	0000                	unimp
     98c:	01c8                	addi	x10,x2,196
     98e:	0000                	unimp
     990:	0001                	nop
     992:	c85e                	sw	x23,16(x2)
     994:	0001                	nop
     996:	cc00                	sw	x8,24(x8)
     998:	0001                	nop
     99a:	0b00                	addi	x8,x2,400
     99c:	8200                	0x8200
     99e:	7800                	flw	f8,48(x8)
     9a0:	1d00                	addi	x8,x2,688
     9a2:	2440                	fld	f8,136(x8)
     9a4:	007d                	c.nop	31
     9a6:	9f21                	0x9f21
     9a8:	01cc                	addi	x11,x2,196
     9aa:	0000                	unimp
     9ac:	01e8                	addi	x10,x2,204
     9ae:	0000                	unimp
     9b0:	0001                	nop
     9b2:	005e                	c.slli	x0,0x17
     9b4:	0000                	unimp
     9b6:	0000                	unimp
     9b8:	0000                	unimp
     9ba:	e000                	fsw	f8,0(x8)
     9bc:	0001                	nop
     9be:	e800                	fsw	f8,16(x8)
     9c0:	0001                	nop
     9c2:	0600                	addi	x8,x2,768
     9c4:	7e00                	flw	f8,56(x12)
     9c6:	7800                	flw	f8,48(x8)
     9c8:	1d00                	addi	x8,x2,688
     9ca:	e89f 0001 f000      	0xf0000001e89f
     9d0:	0001                	nop
     9d2:	0100                	addi	x8,x2,128
     9d4:	5e00                	lw	x8,56(x12)
     9d6:	01f0                	addi	x12,x2,204
     9d8:	0000                	unimp
     9da:	01fc                	addi	x15,x2,204
     9dc:	0000                	unimp
     9de:	0001                	nop
     9e0:	005f 0002 1000      	0x10000002005f
     9e6:	0002                	c.slli64	x0
     9e8:	0100                	addi	x8,x2,128
     9ea:	5f00                	lw	x8,56(x14)
     9ec:	0210                	addi	x12,x2,256
     9ee:	0000                	unimp
     9f0:	0218                	addi	x14,x2,256
     9f2:	0000                	unimp
     9f4:	0006                	c.slli	x0,0x1
     9f6:	007f                	0x7f
     9f8:	007d                	c.nop	31
     9fa:	9f1c                	0x9f1c
     9fc:	0218                	addi	x14,x2,256
     9fe:	0000                	unimp
     a00:	0220                	addi	x8,x2,264
     a02:	0000                	unimp
     a04:	0001                	nop
     a06:	005f 0000 0000      	0x5f
     a0c:	0000                	unimp
     a0e:	b800                	fsd	f8,48(x8)
     a10:	0001                	nop
     a12:	e400                	fsw	f8,8(x8)
     a14:	0001                	nop
     a16:	0100                	addi	x8,x2,128
     a18:	6000                	flw	f8,0(x8)
     a1a:	01e4                	addi	x9,x2,204
     a1c:	0000                	unimp
     a1e:	01ec                	addi	x11,x2,204
     a20:	0000                	unimp
     a22:	0006                	c.slli	x0,0x1
     a24:	007f                	0x7f
     a26:	0081                	addi	x1,x1,0
     a28:	9f1e                	add	x30,x30,x7
     a2a:	01ec                	addi	x11,x2,204
     a2c:	0000                	unimp
     a2e:	0224                	addi	x9,x2,264
     a30:	0000                	unimp
     a32:	0001                	nop
     a34:	005d                	c.nop	23
     a36:	0000                	unimp
     a38:	0000                	unimp
     a3a:	0000                	unimp
     a3c:	8400                	0x8400
     a3e:	d0000003          	lb	x0,-768(x0) # fffffd00 <_end+0x7efffca0>
     a42:	02000003          	lb	x0,32(x0) # 20 <bsg_group_size+0x1c>
     a46:	3100                	fld	f8,32(x10)
     a48:	389f 0004 5c00      	0x5c000004389f
     a4e:	0004                	0x4
     a50:	0200                	addi	x8,x2,256
     a52:	3100                	fld	f8,32(x10)
     a54:	789f 0004 7c00      	0x7c000004789f
     a5a:	0004                	0x4
     a5c:	0500                	addi	x8,x2,640
     a5e:	7900                	flw	f8,48(x10)
     a60:	3100                	fld	f8,32(x10)
     a62:	9f1a                	add	x30,x30,x6
     a64:	047c                	addi	x15,x2,524
     a66:	0000                	unimp
     a68:	0480                	addi	x8,x2,576
     a6a:	0000                	unimp
     a6c:	0001                	nop
     a6e:	805f 0004 8400      	0x84000004805f
     a74:	0004                	0x4
     a76:	0200                	addi	x8,x2,256
     a78:	3000                	fld	f8,32(x8)
     a7a:	009f 0000 0000      	0x9f
     a80:	0000                	unimp
     a82:	8c00                	0x8c00
     a84:	d0000003          	lb	x0,-768(x0) # fffffd00 <_end+0x7efffca0>
     a88:	02000003          	lb	x0,32(x0) # 20 <bsg_group_size+0x1c>
     a8c:	3000                	fld	f8,32(x8)
     a8e:	409f 0004 5c00      	0x5c000004409f
     a94:	0004                	0x4
     a96:	0200                	addi	x8,x2,256
     a98:	3000                	fld	f8,32(x8)
     a9a:	009f 0000 0000      	0x9f
     aa0:	0000                	unimp
     aa2:	c400                	sw	x8,8(x8)
     aa4:	c8000003          	lb	x0,-896(x0) # fffffc80 <_end+0x7efffc20>
     aa8:	01000003          	lb	x0,16(x0) # 10 <bsg_group_size+0xc>
     aac:	5f00                	lw	x8,56(x14)
     aae:	044c                	addi	x11,x2,516
     ab0:	0000                	unimp
     ab2:	0450                	addi	x12,x2,516
     ab4:	0000                	unimp
     ab6:	0001                	nop
     ab8:	005f 0000 0000      	0x5f
     abe:	0000                	unimp
     ac0:	0000                	unimp
     ac2:	0000                	unimp
     ac4:	3c00                	fld	f8,56(x8)
     ac6:	0000                	unimp
     ac8:	0100                	addi	x8,x2,128
     aca:	5a00                	lw	x8,48(x12)
     acc:	003c                	addi	x15,x2,8
     ace:	0000                	unimp
     ad0:	0088                	addi	x10,x2,64
     ad2:	0000                	unimp
     ad4:	0006                	c.slli	x0,0x1
     ad6:	0af503f3          	0xaf503f3
     ada:	9f25                	0x9f25
     adc:	0088                	addi	x10,x2,64
     ade:	0000                	unimp
     ae0:	0094                	addi	x13,x2,64
     ae2:	0000                	unimp
     ae4:	0001                	nop
     ae6:	945a                	add	x8,x8,x22
     ae8:	0000                	unimp
     aea:	d000                	sw	x8,32(x8)
     aec:	0000                	unimp
     aee:	0600                	addi	x8,x2,768
     af0:	f300                	fsw	f8,32(x14)
     af2:	250af503          	0x250af503
     af6:	d09f 0000 f800      	0xf8000000d09f
     afc:	0000                	unimp
     afe:	0100                	addi	x8,x2,128
     b00:	5a00                	lw	x8,48(x12)
     b02:	00f8                	addi	x14,x2,76
     b04:	0000                	unimp
     b06:	00fc                	addi	x15,x2,76
     b08:	0000                	unimp
     b0a:	0006                	c.slli	x0,0x1
     b0c:	0af503f3          	0xaf503f3
     b10:	9f25                	0x9f25
     b12:	00fc                	addi	x15,x2,76
     b14:	0000                	unimp
     b16:	0104                	addi	x9,x2,128
     b18:	0000                	unimp
     b1a:	0001                	nop
     b1c:	045a                	slli	x8,x8,0x16
     b1e:	0001                	nop
     b20:	0800                	addi	x8,x2,16
     b22:	0001                	nop
     b24:	0600                	addi	x8,x2,768
     b26:	f300                	fsw	f8,32(x14)
     b28:	250af503          	0x250af503
     b2c:	009f 0000 0000      	0x9f
     b32:	0000                	unimp
     b34:	0000                	unimp
     b36:	0000                	unimp
     b38:	4800                	lw	x8,16(x8)
     b3a:	0000                	unimp
     b3c:	0200                	addi	x8,x2,256
     b3e:	3000                	fld	f8,32(x8)
     b40:	489f 0000 8000      	0x80000000489f
     b46:	0000                	unimp
     b48:	0100                	addi	x8,x2,128
     b4a:	6200                	flw	f8,0(x12)
     b4c:	0088                	addi	x10,x2,64
     b4e:	0000                	unimp
     b50:	00e4                	addi	x9,x2,76
     b52:	0000                	unimp
     b54:	0002                	c.slli64	x0
     b56:	9f30                	0x9f30
     b58:	00e4                	addi	x9,x2,76
     b5a:	0000                	unimp
     b5c:	00f4                	addi	x13,x2,76
     b5e:	0000                	unimp
     b60:	0001                	nop
     b62:	fc62                	fsw	f24,56(x2)
     b64:	0000                	unimp
     b66:	0800                	addi	x8,x2,16
     b68:	0001                	nop
     b6a:	0200                	addi	x8,x2,256
     b6c:	3000                	fld	f8,32(x8)
     b6e:	009f 0000 0000      	0x9f
     b74:	0000                	unimp
     b76:	3400                	fld	f8,40(x8)
     b78:	0000                	unimp
     b7a:	7c00                	flw	f8,56(x8)
     b7c:	0000                	unimp
     b7e:	0600                	addi	x8,x2,768
     b80:	7900                	flw	f8,48(x10)
     b82:	0800                	addi	x8,x2,16
     b84:	1aff                	0x1aff
     b86:	889f 0000 0800      	0x8000000889f
     b8c:	0001                	nop
     b8e:	0600                	addi	x8,x2,768
     b90:	7900                	flw	f8,48(x10)
     b92:	0800                	addi	x8,x2,16
     b94:	1aff                	0x1aff
     b96:	009f 0000 0000      	0x9f
     b9c:	0000                	unimp
     b9e:	3000                	fld	f8,32(x8)
     ba0:	0000                	unimp
     ba2:	4400                	lw	x8,8(x8)
     ba4:	0000                	unimp
     ba6:	0100                	addi	x8,x2,128
     ba8:	5f00                	lw	x8,56(x14)
     baa:	0044                	addi	x9,x2,4
     bac:	0000                	unimp
     bae:	0048                	addi	x10,x2,4
     bb0:	0000                	unimp
     bb2:	0004                	0x4
     bb4:	807a                	c.mv	x0,x30
     bb6:	9f79                	0x9f79
     bb8:	0088                	addi	x10,x2,64
     bba:	0000                	unimp
     bbc:	00000097          	auipc	x1,0x0
     bc0:	0001                	nop
     bc2:	d05f 0000 d400      	0xd4000000d05f
     bc8:	0000                	unimp
     bca:	0100                	addi	x8,x2,128
     bcc:	5f00                	lw	x8,56(x14)
     bce:	00d4                	addi	x13,x2,68
     bd0:	0000                	unimp
     bd2:	00f8                	addi	x14,x2,76
     bd4:	0000                	unimp
     bd6:	0008                	0x8
     bd8:	007a                	c.slli	x0,0x1e
     bda:	ff082547          	fmsub.q	f10,f16,f16,f31,rdn
     bde:	9f1a                	add	x30,x30,x6
     be0:	00fc                	addi	x15,x2,76
     be2:	0000                	unimp
     be4:	0100                	addi	x8,x2,128
     be6:	0000                	unimp
     be8:	0001                	nop
     bea:	005f 0001 0400      	0x4000001005f
     bf0:	0001                	nop
     bf2:	0800                	addi	x8,x2,16
     bf4:	7a00                	flw	f8,48(x12)
     bf6:	4700                	lw	x8,8(x14)
     bf8:	0825                	addi	x16,x16,9
     bfa:	1aff                	0x1aff
     bfc:	009f 0000 0000      	0x9f
     c02:	0000                	unimp
     c04:	3000                	fld	f8,32(x8)
     c06:	0000                	unimp
     c08:	4800                	lw	x8,16(x8)
     c0a:	0000                	unimp
     c0c:	0100                	addi	x8,x2,128
     c0e:	5800                	lw	x8,48(x8)
     c10:	0088                	addi	x10,x2,64
     c12:	0000                	unimp
     c14:	00b4                	addi	x13,x2,72
     c16:	0000                	unimp
     c18:	0001                	nop
     c1a:	c058                	sw	x14,4(x8)
     c1c:	0000                	unimp
     c1e:	cc00                	sw	x8,24(x8)
     c20:	0000                	unimp
     c22:	0100                	addi	x8,x2,128
     c24:	5800                	lw	x8,48(x8)
     c26:	00d0                	addi	x12,x2,68
     c28:	0000                	unimp
     c2a:	00f0                	addi	x12,x2,76
     c2c:	0000                	unimp
     c2e:	0001                	nop
     c30:	f058                	fsw	f14,36(x8)
     c32:	0000                	unimp
     c34:	f800                	fsw	f8,48(x8)
     c36:	0000                	unimp
     c38:	0700                	addi	x8,x2,896
     c3a:	7a00                	flw	f8,48(x12)
     c3c:	3900                	fld	f8,48(x10)
     c3e:	3924                	fld	f9,112(x10)
     c40:	9f25                	0x9f25
     c42:	00fc                	addi	x15,x2,76
     c44:	0000                	unimp
     c46:	0108                	addi	x10,x2,128
     c48:	0000                	unimp
     c4a:	0001                	nop
     c4c:	0058                	addi	x14,x2,4
     c4e:	0000                	unimp
     c50:	0000                	unimp
     c52:	0000                	unimp
     c54:	3c00                	fld	f8,56(x8)
     c56:	0000                	unimp
     c58:	5000                	lw	x8,32(x8)
     c5a:	0000                	unimp
     c5c:	0100                	addi	x8,x2,128
     c5e:	5a00                	lw	x8,48(x12)
     c60:	00bc                	addi	x15,x2,72
     c62:	0000                	unimp
     c64:	00c0                	addi	x8,x2,68
     c66:	0000                	unimp
     c68:	0001                	nop
     c6a:	d05a                	sw	x22,32(x2)
     c6c:	0000                	unimp
     c6e:	fc00                	fsw	f8,56(x8)
     c70:	0000                	unimp
     c72:	0400                	addi	x8,x2,512
     c74:	0a00                	addi	x8,x2,272
     c76:	07ff                	0x7ff
     c78:	009f 0000 0000      	0x9f
     c7e:	0000                	unimp
     c80:	3400                	fld	f8,40(x8)
     c82:	0000                	unimp
     c84:	7800                	flw	f8,48(x8)
     c86:	0000                	unimp
     c88:	0100                	addi	x8,x2,128
     c8a:	5800                	lw	x8,48(x8)
     c8c:	0078                	addi	x14,x2,12
     c8e:	0000                	unimp
     c90:	0088                	addi	x10,x2,64
     c92:	0000                	unimp
     c94:	0001                	nop
     c96:	885a                	mv	x16,x22
     c98:	0000                	unimp
     c9a:	c800                	sw	x8,16(x8)
     c9c:	0000                	unimp
     c9e:	0100                	addi	x8,x2,128
     ca0:	5800                	lw	x8,48(x8)
     ca2:	00c8                	addi	x10,x2,68
     ca4:	0000                	unimp
     ca6:	00d0                	addi	x12,x2,68
     ca8:	0000                	unimp
     caa:	0002                	c.slli64	x0
     cac:	9f30                	0x9f30
     cae:	00d0                	addi	x12,x2,68
     cb0:	0000                	unimp
     cb2:	0108                	addi	x10,x2,128
     cb4:	0000                	unimp
     cb6:	0001                	nop
     cb8:	0058                	addi	x14,x2,4
     cba:	0000                	unimp
     cbc:	0000                	unimp
     cbe:	0000                	unimp
     cc0:	3400                	fld	f8,40(x8)
     cc2:	0000                	unimp
     cc4:	4400                	lw	x8,8(x8)
     cc6:	0000                	unimp
     cc8:	0200                	addi	x8,x2,256
     cca:	3000                	fld	f8,32(x8)
     ccc:	449f 0000 4c00      	0x4c000000449f
     cd2:	0000                	unimp
     cd4:	0100                	addi	x8,x2,128
     cd6:	5f00                	lw	x8,56(x14)
     cd8:	0088                	addi	x10,x2,64
     cda:	0000                	unimp
     cdc:	00b0                	addi	x12,x2,72
     cde:	0000                	unimp
     ce0:	0002                	c.slli64	x0
     ce2:	9f30                	0x9f30
     ce4:	00b0                	addi	x12,x2,72
     ce6:	0000                	unimp
     ce8:	00c0                	addi	x8,x2,68
     cea:	0000                	unimp
     cec:	0001                	nop
     cee:	c05f 0000 c800      	0xc8000000c05f
     cf4:	0000                	unimp
     cf6:	0200                	addi	x8,x2,256
     cf8:	3000                	fld	f8,32(x8)
     cfa:	c89f 0000 d000      	0xd0000000c89f
     d00:	0000                	unimp
     d02:	0100                	addi	x8,x2,128
     d04:	5f00                	lw	x8,56(x14)
     d06:	00d0                	addi	x12,x2,68
     d08:	0000                	unimp
     d0a:	00e8                	addi	x10,x2,76
     d0c:	0000                	unimp
     d0e:	0002                	c.slli64	x0
     d10:	9f30                	0x9f30
     d12:	00e8                	addi	x10,x2,76
     d14:	0000                	unimp
     d16:	00f4                	addi	x13,x2,76
     d18:	0000                	unimp
     d1a:	0001                	nop
     d1c:	fc5f 0000 0800      	0x8000000fc5f
     d22:	0001                	nop
     d24:	0200                	addi	x8,x2,256
     d26:	3000                	fld	f8,32(x8)
     d28:	009f 0000 0000      	0x9f
     d2e:	0000                	unimp
     d30:	9800                	0x9800
     d32:	0000                	unimp
     d34:	bc00                	fsd	f8,56(x8)
     d36:	0000                	unimp
     d38:	0100                	addi	x8,x2,128
     d3a:	5a00                	lw	x8,48(x12)
     d3c:	00c0                	addi	x8,x2,68
     d3e:	0000                	unimp
     d40:	00d0                	addi	x12,x2,68
     d42:	0000                	unimp
     d44:	0001                	nop
     d46:	005a                	c.slli	x0,0x16
	...
     d50:	0000                	unimp
     d52:	6000                	flw	f8,0(x8)
     d54:	0000                	unimp
     d56:	0600                	addi	x8,x2,768
     d58:	5a00                	lw	x8,48(x12)
     d5a:	935b0493          	addi	x9,x22,-1739
     d5e:	6004                	flw	f9,0(x8)
     d60:	0000                	unimp
     d62:	9400                	0x9400
     d64:	0000                	unimp
     d66:	0600                	addi	x8,x2,768
     d68:	f300                	fsw	f8,32(x14)
     d6a:	250af503          	0x250af503
     d6e:	949f 0000 ac00      	0xac000000949f
     d74:	0000                	unimp
     d76:	0600                	addi	x8,x2,768
     d78:	5a00                	lw	x8,48(x12)
     d7a:	935b0493          	addi	x9,x22,-1739
     d7e:	ac04                	fsd	f9,24(x8)
     d80:	0000                	unimp
     d82:	1000                	addi	x8,x2,32
     d84:	0001                	nop
     d86:	0600                	addi	x8,x2,768
     d88:	f300                	fsw	f8,32(x14)
     d8a:	250af503          	0x250af503
     d8e:	109f 0001 5000      	0x50000001109f
     d94:	0001                	nop
     d96:	0600                	addi	x8,x2,768
     d98:	5a00                	lw	x8,48(x12)
     d9a:	935b0493          	addi	x9,x22,-1739
     d9e:	5004                	lw	x9,32(x8)
     da0:	0001                	nop
     da2:	a000                	fsd	f8,0(x8)
     da4:	0001                	nop
     da6:	0600                	addi	x8,x2,768
     da8:	f300                	fsw	f8,32(x14)
     daa:	250af503          	0x250af503
     dae:	a09f 0001 a400      	0xa4000001a09f
     db4:	0001                	nop
     db6:	0600                	addi	x8,x2,768
     db8:	5a00                	lw	x8,48(x12)
     dba:	935b0493          	addi	x9,x22,-1739
     dbe:	a404                	fsd	f9,8(x8)
     dc0:	0001                	nop
     dc2:	d000                	sw	x8,32(x8)
     dc4:	0001                	nop
     dc6:	0600                	addi	x8,x2,768
     dc8:	f300                	fsw	f8,32(x14)
     dca:	250af503          	0x250af503
     dce:	d09f 0001 d400      	0xd4000001d09f
     dd4:	0001                	nop
     dd6:	0600                	addi	x8,x2,768
     dd8:	5a00                	lw	x8,48(x12)
     dda:	935b0493          	addi	x9,x22,-1739
     dde:	d404                	sw	x9,40(x8)
     de0:	0001                	nop
     de2:	0400                	addi	x8,x2,512
     de4:	0002                	c.slli64	x0
     de6:	0600                	addi	x8,x2,768
     de8:	f300                	fsw	f8,32(x14)
     dea:	250af503          	0x250af503
     dee:	049f 0002 5000      	0x50000002049f
     df4:	0002                	c.slli64	x0
     df6:	0600                	addi	x8,x2,768
     df8:	5a00                	lw	x8,48(x12)
     dfa:	935b0493          	addi	x9,x22,-1739
     dfe:	5004                	lw	x9,32(x8)
     e00:	0002                	c.slli64	x0
     e02:	7800                	flw	f8,48(x8)
     e04:	0002                	c.slli64	x0
     e06:	0600                	addi	x8,x2,768
     e08:	f300                	fsw	f8,32(x14)
     e0a:	250af503          	0x250af503
     e0e:	789f 0002 8400      	0x84000002789f
     e14:	0002                	c.slli64	x0
     e16:	0600                	addi	x8,x2,768
     e18:	5a00                	lw	x8,48(x12)
     e1a:	935b0493          	addi	x9,x22,-1739
     e1e:	8404                	0x8404
     e20:	0002                	c.slli64	x0
     e22:	dc00                	sw	x8,56(x8)
     e24:	0002                	c.slli64	x0
     e26:	0600                	addi	x8,x2,768
     e28:	f300                	fsw	f8,32(x14)
     e2a:	250af503          	0x250af503
     e2e:	009f 0000 0000      	0x9f
     e34:	0000                	unimp
     e36:	0000                	unimp
     e38:	0000                	unimp
     e3a:	6000                	flw	f8,0(x8)
     e3c:	0000                	unimp
     e3e:	0200                	addi	x8,x2,256
     e40:	3000                	fld	f8,32(x8)
     e42:	609f 0000 9400      	0x94000000609f
     e48:	0000                	unimp
     e4a:	0100                	addi	x8,x2,128
     e4c:	6100                	flw	f8,0(x10)
     e4e:	0094                	addi	x13,x2,64
     e50:	0000                	unimp
     e52:	00ac                	addi	x11,x2,72
     e54:	0000                	unimp
     e56:	0002                	c.slli64	x0
     e58:	9f30                	0x9f30
     e5a:	00ac                	addi	x11,x2,72
     e5c:	0000                	unimp
     e5e:	00e4                	addi	x9,x2,76
     e60:	0000                	unimp
     e62:	0001                	nop
     e64:	1061                	c.nop	-8
     e66:	0001                	nop
     e68:	5400                	lw	x8,40(x8)
     e6a:	0001                	nop
     e6c:	0200                	addi	x8,x2,256
     e6e:	3000                	fld	f8,32(x8)
     e70:	649f 0001 8c00      	0x8c000001649f
     e76:	0001                	nop
     e78:	0200                	addi	x8,x2,256
     e7a:	3100                	fld	f8,32(x10)
     e7c:	8c9f 0001 a000      	0xa00000018c9f
     e82:	0001                	nop
     e84:	0100                	addi	x8,x2,128
     e86:	6100                	flw	f8,0(x10)
     e88:	01a0                	addi	x8,x2,200
     e8a:	0000                	unimp
     e8c:	01f0                	addi	x12,x2,204
     e8e:	0000                	unimp
     e90:	0002                	c.slli64	x0
     e92:	9f30                	0x9f30
     e94:	01f0                	addi	x12,x2,204
     e96:	0000                	unimp
     e98:	0204                	addi	x9,x2,256
     e9a:	0000                	unimp
     e9c:	0001                	nop
     e9e:	0461                	addi	x8,x8,24
     ea0:	0002                	c.slli64	x0
     ea2:	3400                	fld	f8,40(x8)
     ea4:	0002                	c.slli64	x0
     ea6:	0200                	addi	x8,x2,256
     ea8:	3000                	fld	f8,32(x8)
     eaa:	349f 0002 4800      	0x48000002349f
     eb0:	0002                	c.slli64	x0
     eb2:	0100                	addi	x8,x2,128
     eb4:	6100                	flw	f8,0(x10)
     eb6:	0248                	addi	x10,x2,260
     eb8:	0000                	unimp
     eba:	0250                	addi	x12,x2,260
     ebc:	0000                	unimp
     ebe:	0002                	c.slli64	x0
     ec0:	9f30                	0x9f30
     ec2:	0250                	addi	x12,x2,260
     ec4:	0000                	unimp
     ec6:	0278                	addi	x14,x2,268
     ec8:	0000                	unimp
     eca:	0002                	c.slli64	x0
     ecc:	9f31                	0x9f31
     ece:	0278                	addi	x14,x2,268
     ed0:	0000                	unimp
     ed2:	0290                	addi	x12,x2,320
     ed4:	0000                	unimp
     ed6:	0002                	c.slli64	x0
     ed8:	9f30                	0x9f30
     eda:	0290                	addi	x12,x2,320
     edc:	0000                	unimp
     ede:	02d0                	addi	x12,x2,324
     ee0:	0000                	unimp
     ee2:	0001                	nop
     ee4:	d061                	beqz	x8,ea4 <bsg_tile_group_barrier+0x100>
     ee6:	0002                	c.slli64	x0
     ee8:	d400                	sw	x8,40(x8)
     eea:	0002                	c.slli64	x0
     eec:	0500                	addi	x8,x2,640
     eee:	8100                	0x8100
     ef0:	3100                	fld	f8,32(x10)
     ef2:	9f21                	0x9f21
     ef4:	02d4                	addi	x13,x2,324
     ef6:	0000                	unimp
     ef8:	02d8                	addi	x14,x2,324
     efa:	0000                	unimp
     efc:	0001                	nop
     efe:	0061                	c.nop	24
     f00:	0000                	unimp
     f02:	0000                	unimp
     f04:	0000                	unimp
     f06:	2c00                	fld	f8,24(x8)
     f08:	0000                	unimp
     f0a:	e400                	fsw	f8,8(x8)
     f0c:	0000                	unimp
     f0e:	0100                	addi	x8,x2,128
     f10:	5b00                	lw	x8,48(x14)
     f12:	0110                	addi	x12,x2,128
     f14:	0000                	unimp
     f16:	02d8                	addi	x14,x2,324
     f18:	0000                	unimp
     f1a:	0001                	nop
     f1c:	0000005b          	0x5b
     f20:	0000                	unimp
     f22:	0000                	unimp
     f24:	1400                	addi	x8,x2,544
     f26:	0000                	unimp
     f28:	6000                	flw	f8,0(x8)
     f2a:	0000                	unimp
     f2c:	0100                	addi	x8,x2,128
     f2e:	6000                	flw	f8,0(x8)
     f30:	0094                	addi	x13,x2,64
     f32:	0000                	unimp
     f34:	00ac                	addi	x11,x2,72
     f36:	0000                	unimp
     f38:	0001                	nop
     f3a:	1060                	addi	x8,x2,44
     f3c:	0001                	nop
     f3e:	3800                	fld	f8,48(x8)
     f40:	0001                	nop
     f42:	0100                	addi	x8,x2,128
     f44:	6000                	flw	f8,0(x8)
     f46:	0138                	addi	x14,x2,136
     f48:	0000                	unimp
     f4a:	0150                	addi	x12,x2,132
     f4c:	0000                	unimp
     f4e:	0004                	0x4
     f50:	fe80                	fsw	f8,56(x13)
     f52:	9f06                	add	x30,x30,x1
     f54:	01a0                	addi	x8,x2,200
     f56:	0000                	unimp
     f58:	01bc                	addi	x15,x2,200
     f5a:	0000                	unimp
     f5c:	0001                	nop
     f5e:	bc60                	fsd	f8,248(x8)
     f60:	0001                	nop
     f62:	c000                	sw	x8,0(x8)
     f64:	0001                	nop
     f66:	0400                	addi	x8,x2,512
     f68:	8000                	0x8000
     f6a:	06de                	slli	x13,x13,0x17
     f6c:	d09f 0001 f000      	0xf0000001d09f
     f72:	0001                	nop
     f74:	0100                	addi	x8,x2,128
     f76:	6000                	flw	f8,0(x8)
     f78:	0204                	addi	x9,x2,256
     f7a:	0000                	unimp
     f7c:	0250                	addi	x12,x2,260
     f7e:	0000                	unimp
     f80:	0001                	nop
     f82:	7860                	flw	f8,116(x8)
     f84:	0002                	c.slli64	x0
     f86:	8400                	0x8400
     f88:	0002                	c.slli64	x0
     f8a:	0100                	addi	x8,x2,128
     f8c:	6000                	flw	f8,0(x8)
	...
     f96:	0004                	0x4
     f98:	0000                	unimp
     f9a:	0030                	addi	x12,x2,8
     f9c:	0000                	unimp
     f9e:	0001                	nop
     fa0:	305a                	fld	f0,432(x2)
     fa2:	0000                	unimp
     fa4:	4800                	lw	x8,16(x8)
     fa6:	0000                	unimp
     fa8:	0100                	addi	x8,x2,128
     faa:	5f00                	lw	x8,56(x14)
     fac:	0048                	addi	x10,x2,4
     fae:	0000                	unimp
     fb0:	0060                	addi	x8,x2,12
     fb2:	0000                	unimp
     fb4:	0005                	c.nop	1
     fb6:	007a                	c.slli	x0,0x1e
     fb8:	949f2433          	0x949f2433
     fbc:	0000                	unimp
     fbe:	ac00                	fsd	f8,24(x8)
     fc0:	0000                	unimp
     fc2:	0500                	addi	x8,x2,640
     fc4:	7a00                	flw	f8,48(x12)
     fc6:	3300                	fld	f8,32(x14)
     fc8:	9f24                	0x9f24
     fca:	0110                	addi	x12,x2,128
     fcc:	0000                	unimp
     fce:	0140                	addi	x8,x2,132
     fd0:	0000                	unimp
     fd2:	0001                	nop
     fd4:	405f 0001 5000      	0x50000001405f
     fda:	0001                	nop
     fdc:	0500                	addi	x8,x2,640
     fde:	7a00                	flw	f8,48(x12)
     fe0:	3300                	fld	f8,32(x14)
     fe2:	9f24                	0x9f24
     fe4:	01a0                	addi	x8,x2,200
     fe6:	0000                	unimp
     fe8:	01c4                	addi	x9,x2,196
     fea:	0000                	unimp
     fec:	0001                	nop
     fee:	cc5f 0001 e000      	0xe0000001cc5f
     ff4:	0001                	nop
     ff6:	0100                	addi	x8,x2,128
     ff8:	5f00                	lw	x8,56(x14)
     ffa:	0204                	addi	x9,x2,256
     ffc:	0000                	unimp
     ffe:	0208                	addi	x10,x2,256
    1000:	0000                	unimp
    1002:	0001                	nop
    1004:	085f 0002 3400      	0x34000002085f
    100a:	0002                	c.slli64	x0
    100c:	0500                	addi	x8,x2,640
    100e:	7a00                	flw	f8,48(x12)
    1010:	3300                	fld	f8,32(x14)
    1012:	9f24                	0x9f24
    1014:	0248                	addi	x10,x2,260
    1016:	0000                	unimp
    1018:	024c                	addi	x11,x2,260
    101a:	0000                	unimp
    101c:	0001                	nop
    101e:	4c5f 0002 5000      	0x500000024c5f
    1024:	0002                	c.slli64	x0
    1026:	0500                	addi	x8,x2,640
    1028:	7a00                	flw	f8,48(x12)
    102a:	3300                	fld	f8,32(x14)
    102c:	9f24                	0x9f24
    102e:	0278                	addi	x14,x2,268
    1030:	0000                	unimp
    1032:	0284                	addi	x9,x2,320
    1034:	0000                	unimp
    1036:	0005                	c.nop	1
    1038:	007a                	c.slli	x0,0x1e
    103a:	009f2433          	slt	x8,x30,x9
    103e:	0000                	unimp
    1040:	0000                	unimp
    1042:	0000                	unimp
    1044:	1000                	addi	x8,x2,32
    1046:	0000                	unimp
    1048:	1c00                	addi	x8,x2,560
    104a:	0000                	unimp
    104c:	0100                	addi	x8,x2,128
    104e:	5e00                	lw	x8,56(x12)
    1050:	001c                	0x1c
    1052:	0000                	unimp
    1054:	002c                	addi	x11,x2,8
    1056:	0000                	unimp
    1058:	007b0007          	0x7b0007
    105c:	243c                	fld	f15,72(x8)
    105e:	253c                	fld	f15,72(x10)
    1060:	2c9f 0000 6000      	0x600000002c9f
    1066:	0000                	unimp
    1068:	0100                	addi	x8,x2,128
    106a:	5d00                	lw	x8,56(x10)
    106c:	0094                	addi	x13,x2,64
    106e:	0000                	unimp
    1070:	00ac                	addi	x11,x2,72
    1072:	0000                	unimp
    1074:	0001                	nop
    1076:	105d                	c.nop	-9
    1078:	0001                	nop
    107a:	4800                	lw	x8,16(x8)
    107c:	0001                	nop
    107e:	0100                	addi	x8,x2,128
    1080:	5d00                	lw	x8,56(x10)
    1082:	01a0                	addi	x8,x2,200
    1084:	0000                	unimp
    1086:	01cc                	addi	x11,x2,196
    1088:	0000                	unimp
    108a:	0001                	nop
    108c:	cc5d                	beqz	x8,114a <_bsg_data_start_addr+0x14a>
    108e:	0001                	nop
    1090:	d000                	sw	x8,32(x8)
    1092:	0001                	nop
    1094:	0200                	addi	x8,x2,256
    1096:	3000                	fld	f8,32(x8)
    1098:	d09f 0001 dc00      	0xdc000001d09f
    109e:	0001                	nop
    10a0:	0100                	addi	x8,x2,128
    10a2:	5d00                	lw	x8,56(x10)
    10a4:	0204                	addi	x9,x2,256
    10a6:	0000                	unimp
    10a8:	0234                	addi	x13,x2,264
    10aa:	0000                	unimp
    10ac:	0001                	nop
    10ae:	345d                	jal	b54 <bsg_printf+0x64c>
    10b0:	0002                	c.slli64	x0
    10b2:	4800                	lw	x8,16(x8)
    10b4:	0002                	c.slli64	x0
    10b6:	0200                	addi	x8,x2,256
    10b8:	3000                	fld	f8,32(x8)
    10ba:	489f 0002 5000      	0x50000002489f
    10c0:	0002                	c.slli64	x0
    10c2:	0100                	addi	x8,x2,128
    10c4:	5d00                	lw	x8,56(x10)
    10c6:	0278                	addi	x14,x2,268
    10c8:	0000                	unimp
    10ca:	0284                	addi	x9,x2,320
    10cc:	0000                	unimp
    10ce:	0001                	nop
    10d0:	005d                	c.nop	23
    10d2:	0000                	unimp
    10d4:	0000                	unimp
    10d6:	0000                	unimp
    10d8:	3000                	fld	f8,32(x8)
    10da:	0000                	unimp
    10dc:	0000                	unimp
    10de:	0001                	nop
    10e0:	0100                	addi	x8,x2,128
    10e2:	5b00                	lw	x8,48(x14)
    10e4:	0110                	addi	x12,x2,128
    10e6:	0000                	unimp
    10e8:	02d8                	addi	x14,x2,324
    10ea:	0000                	unimp
    10ec:	0001                	nop
    10ee:	0000005b          	0x5b
    10f2:	0000                	unimp
    10f4:	0000                	unimp
    10f6:	3800                	fld	f8,48(x8)
    10f8:	0000                	unimp
    10fa:	5800                	lw	x8,48(x8)
    10fc:	0000                	unimp
    10fe:	0100                	addi	x8,x2,128
    1100:	5600                	lw	x8,40(x12)
    1102:	0058                	addi	x14,x2,4
    1104:	0000                	unimp
    1106:	0060                	addi	x8,x2,12
    1108:	0000                	unimp
    110a:	0004                	0x4
    110c:	8080                	0x8080
    110e:	9f79                	0x9f79
    1110:	0094                	addi	x13,x2,64
    1112:	0000                	unimp
    1114:	00a8                	addi	x10,x2,72
    1116:	0000                	unimp
    1118:	0001                	nop
    111a:	a856                	fsd	f21,16(x2)
    111c:	0000                	unimp
    111e:	ac00                	fsd	f8,24(x8)
    1120:	0000                	unimp
    1122:	0400                	addi	x8,x2,512
    1124:	8000                	0x8000
    1126:	7980                	flw	f8,48(x11)
    1128:	b89f 0000 e400      	0xe4000000b89f
    112e:	0000                	unimp
    1130:	0100                	addi	x8,x2,128
    1132:	5600                	lw	x8,40(x12)
    1134:	0110                	addi	x12,x2,128
    1136:	0000                	unimp
    1138:	0150                	addi	x12,x2,132
    113a:	0000                	unimp
    113c:	0001                	nop
    113e:	5056                	0x5056
    1140:	0001                	nop
    1142:	5400                	lw	x8,40(x8)
    1144:	0001                	nop
    1146:	0200                	addi	x8,x2,256
    1148:	3000                	fld	f8,32(x8)
    114a:	a09f 0001 ac00      	0xac000001a09f
    1150:	0001                	nop
    1152:	0100                	addi	x8,x2,128
    1154:	5600                	lw	x8,40(x12)
    1156:	01ac                	addi	x11,x2,200
    1158:	0000                	unimp
    115a:	01bc                	addi	x15,x2,200
    115c:	0000                	unimp
    115e:	0004                	0x4
    1160:	8080                	0x8080
    1162:	9f79                	0x9f79
    1164:	01bc                	addi	x15,x2,200
    1166:	0000                	unimp
    1168:	01c0                	addi	x8,x2,196
    116a:	0000                	unimp
    116c:	5e800003          	lb	x0,1512(x0) # 5e8 <bsg_printf+0xe0>
    1170:	d09f 0001 f000      	0xf0000001d09f
    1176:	0001                	nop
    1178:	0100                	addi	x8,x2,128
    117a:	5600                	lw	x8,40(x12)
    117c:	020c                	addi	x11,x2,256
    117e:	0000                	unimp
    1180:	0214                	addi	x13,x2,256
    1182:	0000                	unimp
    1184:	0002                	c.slli64	x0
    1186:	9f30                	0x9f30
    1188:	0214                	addi	x13,x2,256
    118a:	0000                	unimp
    118c:	0248                	addi	x10,x2,260
    118e:	0000                	unimp
    1190:	ff080003          	lb	x0,-16(x16)
    1194:	489f 0002 5000      	0x50000002489f
    119a:	0002                	c.slli64	x0
    119c:	0100                	addi	x8,x2,128
    119e:	5600                	lw	x8,40(x12)
    11a0:	0278                	addi	x14,x2,268
    11a2:	0000                	unimp
    11a4:	0284                	addi	x9,x2,320
    11a6:	0000                	unimp
    11a8:	ff080003          	lb	x0,-16(x16)
    11ac:	849f 0002 9000      	0x90000002849f
    11b2:	0002                	c.slli64	x0
    11b4:	0200                	addi	x8,x2,256
    11b6:	3000                	fld	f8,32(x8)
    11b8:	a49f 0002 c000      	0xc0000002a49f
    11be:	0002                	c.slli64	x0
    11c0:	0100                	addi	x8,x2,128
    11c2:	5600                	lw	x8,40(x12)
    11c4:	02c4                	addi	x9,x2,324
    11c6:	0000                	unimp
    11c8:	02d8                	addi	x14,x2,324
    11ca:	0000                	unimp
    11cc:	0001                	nop
    11ce:	0056                	c.slli	x0,0x15
    11d0:	0000                	unimp
    11d2:	0000                	unimp
    11d4:	0000                	unimp
    11d6:	b400                	fsd	f8,40(x8)
    11d8:	0000                	unimp
    11da:	cc00                	sw	x8,24(x8)
    11dc:	0000                	unimp
    11de:	0900                	addi	x8,x2,144
    11e0:	7f00                	flw	f8,56(x14)
    11e2:	1100                	addi	x8,x2,160
    11e4:	ffff                	0xffff
    11e6:	5fff                	0x5fff
    11e8:	9f1a                	add	x30,x30,x6
    11ea:	00cc                	addi	x11,x2,68
    11ec:	0000                	unimp
    11ee:	00e0                	addi	x8,x2,76
    11f0:	0000                	unimp
    11f2:	0001                	nop
    11f4:	e45f 0000 f000      	0xf0000000e45f
    11fa:	0000                	unimp
    11fc:	0100                	addi	x8,x2,128
    11fe:	5f00                	lw	x8,56(x14)
    1200:	0150                	addi	x12,x2,132
    1202:	0000                	unimp
    1204:	0154                	addi	x13,x2,132
    1206:	0000                	unimp
    1208:	0001                	nop
    120a:	e85f 0001 f000      	0xf0000001e85f
    1210:	0001                	nop
    1212:	0100                	addi	x8,x2,128
    1214:	5f00                	lw	x8,56(x14)
    1216:	01f8                	addi	x14,x2,204
    1218:	0000                	unimp
    121a:	0204                	addi	x9,x2,256
    121c:	0000                	unimp
    121e:	0001                	nop
    1220:	385f 0002 4000      	0x40000002385f
    1226:	0002                	c.slli64	x0
    1228:	0100                	addi	x8,x2,128
    122a:	5d00                	lw	x8,56(x10)
    122c:	0240                	addi	x8,x2,260
    122e:	0000                	unimp
    1230:	0248                	addi	x10,x2,260
    1232:	0000                	unimp
    1234:	0001                	nop
    1236:	845f 0002 9000      	0x90000002845f
    123c:	0002                	c.slli64	x0
    123e:	0100                	addi	x8,x2,128
    1240:	5f00                	lw	x8,56(x14)
    1242:	0298                	addi	x14,x2,320
    1244:	0000                	unimp
    1246:	029c                	addi	x15,x2,320
    1248:	0000                	unimp
    124a:	0001                	nop
    124c:	a45f 0002 a800      	0xa8000002a45f
    1252:	0002                	c.slli64	x0
    1254:	0900                	addi	x8,x2,144
    1256:	7f00                	flw	f8,56(x14)
    1258:	1100                	addi	x8,x2,160
    125a:	ffff                	0xffff
    125c:	5fff                	0x5fff
    125e:	9f1a                	add	x30,x30,x6
    1260:	02d0                	addi	x12,x2,324
    1262:	0000                	unimp
    1264:	02d8                	addi	x14,x2,324
    1266:	0000                	unimp
    1268:	0001                	nop
    126a:	005f 0000 0000      	0x5f
    1270:	0000                	unimp
    1272:	0400                	addi	x8,x2,512
    1274:	0001                	nop
    1276:	1000                	addi	x8,x2,32
    1278:	0001                	nop
    127a:	0100                	addi	x8,x2,128
    127c:	5a00                	lw	x8,48(x12)
    127e:	02d8                	addi	x14,x2,324
    1280:	0000                	unimp
    1282:	02dc                	addi	x15,x2,324
    1284:	0000                	unimp
    1286:	0001                	nop
    1288:	005a                	c.slli	x0,0x16
    128a:	0000                	unimp
    128c:	0000                	unimp
    128e:	0000                	unimp
    1290:	6000                	flw	f8,0(x8)
    1292:	0000                	unimp
    1294:	8800                	0x8800
    1296:	0000                	unimp
    1298:	0100                	addi	x8,x2,128
    129a:	5e00                	lw	x8,56(x12)
    129c:	0154                	addi	x13,x2,132
    129e:	0000                	unimp
    12a0:	01a0                	addi	x8,x2,200
    12a2:	0000                	unimp
    12a4:	0002                	c.slli64	x0
    12a6:	9f31                	0x9f31
    12a8:	01f0                	addi	x12,x2,204
    12aa:	0000                	unimp
    12ac:	0200                	addi	x8,x2,256
    12ae:	0000                	unimp
    12b0:	0001                	nop
    12b2:	505e                	0x505e
    12b4:	0002                	c.slli64	x0
    12b6:	7800                	flw	f8,48(x8)
    12b8:	0002                	c.slli64	x0
    12ba:	0200                	addi	x8,x2,256
    12bc:	3100                	fld	f8,32(x10)
    12be:	909f 0002 a400      	0xa4000002909f
    12c4:	0002                	c.slli64	x0
    12c6:	0100                	addi	x8,x2,128
    12c8:	5e00                	lw	x8,56(x12)
	...
    12d2:	0154                	addi	x13,x2,132
    12d4:	0000                	unimp
    12d6:	01a0                	addi	x8,x2,200
    12d8:	0000                	unimp
    12da:	0001                	nop
    12dc:	0002505b          	0x2505b
    12e0:	7800                	flw	f8,48(x8)
    12e2:	0002                	c.slli64	x0
    12e4:	0100                	addi	x8,x2,128
    12e6:	5b00                	lw	x8,48(x14)
	...
    12f0:	0154                	addi	x13,x2,132
    12f2:	0000                	unimp
    12f4:	01a0                	addi	x8,x2,200
    12f6:	0000                	unimp
    12f8:	0002                	c.slli64	x0
    12fa:	9f30                	0x9f30
    12fc:	0250                	addi	x12,x2,260
    12fe:	0000                	unimp
    1300:	0278                	addi	x14,x2,268
    1302:	0000                	unimp
    1304:	0002                	c.slli64	x0
    1306:	9f30                	0x9f30
	...
    1310:	0154                	addi	x13,x2,132
    1312:	0000                	unimp
    1314:	0158                	addi	x14,x2,132
    1316:	0000                	unimp
    1318:	0001                	nop
    131a:	585f 0001 9000      	0x90000001585f
    1320:	0001                	nop
    1322:	0100                	addi	x8,x2,128
    1324:	5e00                	lw	x8,56(x12)
    1326:	0250                	addi	x12,x2,260
    1328:	0000                	unimp
    132a:	0278                	addi	x14,x2,268
    132c:	0000                	unimp
    132e:	0001                	nop
    1330:	005e                	c.slli	x0,0x17
	...
    133a:	0000                	unimp
    133c:	2400                	fld	f8,8(x8)
    133e:	0000                	unimp
    1340:	0100                	addi	x8,x2,128
    1342:	5a00                	lw	x8,48(x12)
    1344:	0024                	addi	x9,x2,8
    1346:	0000                	unimp
    1348:	0038                	addi	x14,x2,8
    134a:	0000                	unimp
    134c:	0004                	0x4
    134e:	9f5a01f3          	0x9f5a01f3
    1352:	0038                	addi	x14,x2,8
    1354:	0000                	unimp
    1356:	004c                	addi	x11,x2,4
    1358:	0000                	unimp
    135a:	0001                	nop
    135c:	005a                	c.slli	x0,0x16
	...
    1366:	0000                	unimp
    1368:	2400                	fld	f8,8(x8)
    136a:	0000                	unimp
    136c:	0100                	addi	x8,x2,128
    136e:	5a00                	lw	x8,48(x12)
    1370:	0024                	addi	x9,x2,8
    1372:	0000                	unimp
    1374:	0038                	addi	x14,x2,8
    1376:	0000                	unimp
    1378:	0004                	0x4
    137a:	9f5a01f3          	0x9f5a01f3
    137e:	0038                	addi	x14,x2,8
    1380:	0000                	unimp
    1382:	004c                	addi	x11,x2,4
    1384:	0000                	unimp
    1386:	0001                	nop
    1388:	005a                	c.slli	x0,0x16
    138a:	0000                	unimp
    138c:	0000                	unimp
    138e:	0000                	unimp
    1390:	1400                	addi	x8,x2,544
    1392:	0000                	unimp
    1394:	2800                	fld	f8,16(x8)
    1396:	0000                	unimp
    1398:	0100                	addi	x8,x2,128
    139a:	5f00                	lw	x8,56(x14)
	...

Disassembly of section .debug_aranges:

00000000 <.debug_aranges>:
   0:	001c                	0x1c
   2:	0000                	unimp
   4:	0002                	c.slli64	x0
   6:	0000                	unimp
   8:	0000                	unimp
   a:	0004                	0x4
   c:	0000                	unimp
   e:	0000                	unimp
  10:	14c0                	addi	x8,x2,612
  12:	0000                	unimp
  14:	0508                	addi	x10,x2,640
	...
  1e:	0000                	unimp
  20:	001c                	0x1c
  22:	0000                	unimp
  24:	0002                	c.slli64	x0
  26:	03ce                	slli	x7,x7,0x13
  28:	0000                	unimp
  2a:	0004                	0x4
  2c:	0000                	unimp
  2e:	0000                	unimp
  30:	19c8                	addi	x10,x2,244
  32:	0000                	unimp
  34:	0108                	addi	x10,x2,128
	...
  3e:	0000                	unimp
  40:	001c                	0x1c
  42:	0000                	unimp
  44:	0002                	c.slli64	x0
  46:	0679                	addi	x12,x12,30
  48:	0000                	unimp
  4a:	0004                	0x4
  4c:	0000                	unimp
  4e:	0000                	unimp
  50:	1ad0                	addi	x12,x2,372
  52:	0000                	unimp
  54:	02dc                	addi	x15,x2,324
	...
  5e:	0000                	unimp
  60:	001c                	0x1c
  62:	0000                	unimp
  64:	0002                	c.slli64	x0
  66:	096c                	addi	x11,x2,156
  68:	0000                	unimp
  6a:	0004                	0x4
  6c:	0000                	unimp
  6e:	0000                	unimp
  70:	1dac                	addi	x11,x2,760
  72:	0000                	unimp
  74:	004c                	addi	x11,x2,4
	...
  7e:	0000                	unimp
  80:	0014                	0x14
  82:	0000                	unimp
  84:	0002                	c.slli64	x0
  86:	00001543          	fmadd.s	f10,f0,f0,f0,rtz
  8a:	0004                	0x4
	...

Disassembly of section .debug_ranges:

00000000 <.debug_ranges>:
   0:	0030                	addi	x12,x2,8
   2:	0000                	unimp
   4:	0044                	addi	x9,x2,4
   6:	0000                	unimp
   8:	02e4                	addi	x9,x2,332
   a:	0000                	unimp
   c:	02e8                	addi	x10,x2,332
	...
  16:	0000                	unimp
  18:	0060                	addi	x8,x2,12
  1a:	0000                	unimp
  1c:	0064                	addi	x9,x2,12
  1e:	0000                	unimp
  20:	0070                	addi	x12,x2,12
  22:	0000                	unimp
  24:	008c                	addi	x11,x2,64
	...
  2e:	0000                	unimp
  30:	00a4                	addi	x9,x2,72
  32:	0000                	unimp
  34:	00b8                	addi	x14,x2,72
  36:	0000                	unimp
  38:	030c                	addi	x11,x2,384
  3a:	0000                	unimp
  3c:	0310                	addi	x12,x2,384
	...
  46:	0000                	unimp
  48:	00d4                	addi	x13,x2,68
  4a:	0000                	unimp
  4c:	00d8                	addi	x14,x2,68
  4e:	0000                	unimp
  50:	0128                	addi	x10,x2,136
  52:	0000                	unimp
  54:	0144                	addi	x9,x2,132
	...
  5e:	0000                	unimp
  60:	0184                	addi	x9,x2,192
  62:	0000                	unimp
  64:	0224                	addi	x9,x2,264
  66:	0000                	unimp
  68:	02d8                	addi	x14,x2,324
  6a:	0000                	unimp
  6c:	02e4                	addi	x9,x2,332
	...
  76:	0000                	unimp
  78:	0194                	addi	x13,x2,192
  7a:	0000                	unimp
  7c:	0210                	addi	x12,x2,256
  7e:	0000                	unimp
  80:	0210                	addi	x12,x2,256
  82:	0000                	unimp
  84:	0214                	addi	x13,x2,256
  86:	0000                	unimp
  88:	0218                	addi	x14,x2,256
  8a:	0000                	unimp
  8c:	021c                	addi	x15,x2,256
	...
  96:	0000                	unimp
  98:	0384                	addi	x9,x2,448
  9a:	0000                	unimp
  9c:	04b8                	addi	x14,x2,584
  9e:	0000                	unimp
  a0:	04c0                	addi	x8,x2,580
  a2:	0000                	unimp
  a4:	04dc                	addi	x15,x2,580
	...
  ae:	0000                	unimp
  b0:	038c                	addi	x11,x2,448
  b2:	0000                	unimp
  b4:	03d0                	addi	x12,x2,452
  b6:	0000                	unimp
  b8:	0440                	addi	x8,x2,516
  ba:	0000                	unimp
  bc:	045c                	addi	x15,x2,516
	...
  c6:	0000                	unimp
  c8:	0018                	0x18
  ca:	0000                	unimp
  cc:	0020                	addi	x8,x2,8
  ce:	0000                	unimp
  d0:	0024                	addi	x9,x2,8
  d2:	0000                	unimp
  d4:	0028                	addi	x10,x2,8
  d6:	0000                	unimp
  d8:	002c                	addi	x11,x2,8
  da:	0000                	unimp
  dc:	0034                	addi	x13,x2,8
	...
  e6:	0000                	unimp
  e8:	0048                	addi	x10,x2,4
  ea:	0000                	unimp
  ec:	0064                	addi	x9,x2,12
  ee:	0000                	unimp
  f0:	0064                	addi	x9,x2,12
  f2:	0000                	unimp
  f4:	0068                	addi	x10,x2,12
	...
  fe:	0000                	unimp
 100:	0004                	0x4
 102:	0000                	unimp
 104:	0014                	0x14
 106:	0000                	unimp
 108:	0028                	addi	x10,x2,8
 10a:	0000                	unimp
 10c:	002c                	addi	x11,x2,8
	...
 116:	0000                	unimp
 118:	0058                	addi	x14,x2,4
 11a:	0000                	unimp
 11c:	005c                	addi	x15,x2,4
 11e:	0000                	unimp
 120:	0060                	addi	x8,x2,12
 122:	0000                	unimp
 124:	0094                	addi	x13,x2,64
 126:	0000                	unimp
 128:	00ac                	addi	x11,x2,72
 12a:	0000                	unimp
 12c:	00e4                	addi	x9,x2,76
 12e:	0000                	unimp
 130:	0150                	addi	x12,x2,132
 132:	0000                	unimp
 134:	01a0                	addi	x8,x2,200
 136:	0000                	unimp
 138:	01e8                	addi	x10,x2,204
 13a:	0000                	unimp
 13c:	01ec                	addi	x11,x2,204
 13e:	0000                	unimp
 140:	01f0                	addi	x12,x2,204
 142:	0000                	unimp
 144:	0204                	addi	x9,x2,256
 146:	0000                	unimp
 148:	0250                	addi	x12,x2,260
 14a:	0000                	unimp
 14c:	0278                	addi	x14,x2,268
 14e:	0000                	unimp
 150:	0284                	addi	x9,x2,320
 152:	0000                	unimp
 154:	02d8                	addi	x14,x2,324
	...
 15e:	0000                	unimp
 160:	0154                	addi	x13,x2,132
 162:	0000                	unimp
 164:	01a0                	addi	x8,x2,200
 166:	0000                	unimp
 168:	0250                	addi	x12,x2,260
 16a:	0000                	unimp
 16c:	0278                	addi	x14,x2,268
	...
 17a:	0000                	unimp
 17c:	0014                	0x14
 17e:	0000                	unimp
 180:	0014                	0x14
 182:	0000                	unimp
 184:	0030                	addi	x12,x2,8
 186:	0000                	unimp
 188:	0038                	addi	x14,x2,8
 18a:	0000                	unimp
 18c:	004c                	addi	x11,x2,4
	...

Disassembly of section .debug_line:

00000000 <.debug_line>:
       0:	0ad6                	slli	x21,x21,0x15
       2:	0000                	unimp
       4:	00910003          	lb	x0,9(x2)
       8:	0000                	unimp
       a:	0101                	addi	x2,x2,0
       c:	000d0efb          	0xd0efb
      10:	0101                	addi	x2,x2,0
      12:	0101                	addi	x2,x2,0
      14:	0000                	unimp
      16:	0100                	addi	x8,x2,128
      18:	0000                	unimp
      1a:	2e01                	jal	32a <number+0xd6>
      1c:	2f2e                	fld	f30,200(x2)
      1e:	2e2e                	fld	f28,200(x2)
      20:	2f2e2e2f          	0x2f2e2e2f
      24:	2f2e                	fld	f30,200(x2)
      26:	6972                	flw	f18,28(x2)
      28:	2d766373          	csrrsi	x6,0x2d7,12
      2c:	2f636367          	0x2f636367
      30:	696c                	flw	f11,84(x10)
      32:	6762                	flw	f14,24(x2)
      34:	732f6363          	bltu	x30,x18,75a <bsg_printf+0x252>
      38:	2d74666f          	jal	x12,46b0e <_bsg_elf_vcache_size+0x26b0e>
      3c:	7066                	flw	f0,120(x2)
      3e:	2e00                	fld	f8,24(x12)
      40:	2f2e                	fld	f30,200(x2)
      42:	2e2e                	fld	f28,200(x2)
      44:	2f2e2e2f          	0x2f2e2e2f
      48:	2f2e                	fld	f30,200(x2)
      4a:	6972                	flw	f18,28(x2)
      4c:	2d766373          	csrrsi	x6,0x2d7,12
      50:	2f636367          	0x2f636367
      54:	696c                	flw	f11,84(x10)
      56:	6762                	flw	f14,24(x2)
      58:	2e2f6363          	bltu	x30,x2,33e <number+0xea>
      5c:	2f2e                	fld	f30,200(x2)
      5e:	6e69                	lui	x28,0x1a
      60:	64756c63          	bltu	x10,x7,6b8 <bsg_printf+0x1b0>
      64:	0065                	c.nop	25
      66:	6400                	flw	f8,8(x8)
      68:	7669                	lui	x12,0xffffa
      6a:	2e336673          	csrrsi	x12,0x2e3,6
      6e:	00010063          	beqz	x2,6e <bsg_group_size+0x6a>
      72:	7300                	flw	f8,32(x14)
      74:	2d74666f          	jal	x12,46b4a <_bsg_elf_vcache_size+0x26b4a>
      78:	7066                	flw	f0,120(x2)
      7a:	682e                	flw	f16,200(x2)
      7c:	0100                	addi	x8,x2,128
      7e:	0000                	unimp
      80:	676e6973          	csrrsi	x18,0x676,28
      84:	656c                	flw	f11,76(x10)
      86:	682e                	flw	f16,200(x2)
      88:	0100                	addi	x8,x2,128
      8a:	0000                	unimp
      8c:	6f6c                	flw	f11,92(x14)
      8e:	676e                	flw	f14,216(x2)
      90:	6f6c                	flw	f11,92(x14)
      92:	676e                	flw	f14,216(x2)
      94:	682e                	flw	f16,200(x2)
      96:	0200                	addi	x8,x2,256
      98:	0000                	unimp
      9a:	0500                	addi	x8,x2,640
      9c:	0001                	nop
      9e:	0205                	addi	x4,x4,1
      a0:	14c0                	addi	x8,x2,612
      a2:	0000                	unimp
      a4:	05012303          	lw	x6,80(x2)
      a8:	09010303          	lb	x6,144(x2)
      ac:	0000                	unimp
      ae:	0301                	addi	x6,x6,0
      b0:	0900                	addi	x8,x2,144
      b2:	0000                	unimp
      b4:	0501                	addi	x10,x10,0
      b6:	030d                	addi	x6,x6,3
      b8:	0900                	addi	x8,x2,144
      ba:	0000                	unimp
      bc:	0501                	addi	x10,x10,0
      be:	09010303          	lb	x6,144(x2)
      c2:	0000                	unimp
      c4:	0301                	addi	x6,x6,0
      c6:	0900                	addi	x8,x2,144
      c8:	0000                	unimp
      ca:	0301                	addi	x6,x6,0
      cc:	0900                	addi	x8,x2,144
      ce:	0000                	unimp
      d0:	0301                	addi	x6,x6,0
      d2:	0900                	addi	x8,x2,144
      d4:	0000                	unimp
      d6:	0301                	addi	x6,x6,0
      d8:	0901                	addi	x18,x18,0
      da:	0000                	unimp
      dc:	0301                	addi	x6,x6,0
      de:	0900                	addi	x8,x2,144
      e0:	0000                	unimp
      e2:	0301                	addi	x6,x6,0
      e4:	0900                	addi	x8,x2,144
      e6:	0000                	unimp
      e8:	0301                	addi	x6,x6,0
      ea:	0900                	addi	x8,x2,144
      ec:	0000                	unimp
      ee:	0301                	addi	x6,x6,0
      f0:	0901                	addi	x18,x18,0
      f2:	0000                	unimp
      f4:	0301                	addi	x6,x6,0
      f6:	0900                	addi	x8,x2,144
      f8:	0000                	unimp
      fa:	0301                	addi	x6,x6,0
      fc:	0900                	addi	x8,x2,144
      fe:	0000                	unimp
     100:	0301                	addi	x6,x6,0
     102:	0900                	addi	x8,x2,144
     104:	0000                	unimp
     106:	0301                	addi	x6,x6,0
     108:	0901                	addi	x18,x18,0
     10a:	0000                	unimp
     10c:	0301                	addi	x6,x6,0
     10e:	0902                	c.slli64	x18
     110:	0000                	unimp
     112:	0301                	addi	x6,x6,0
     114:	0900                	addi	x8,x2,144
     116:	0000                	unimp
     118:	0501                	addi	x10,x10,0
     11a:	0601                	addi	x12,x12,0
     11c:	00097903          	0x97903
     120:	0100                	addi	x8,x2,128
     122:	28090003          	lb	x0,640(x18) # 1280 <__ieee754_expf+0xfc>
     126:	0100                	addi	x8,x2,128
     128:	0305                	addi	x6,x6,1
     12a:	04090703          	lb	x14,64(x18)
     12e:	0100                	addi	x8,x2,128
     130:	0306                	slli	x6,x6,0x1
     132:	0900                	addi	x8,x2,144
     134:	0004                	0x4
     136:	0301                	addi	x6,x6,0
     138:	0901                	addi	x18,x18,0
     13a:	0000                	unimp
     13c:	0301                	addi	x6,x6,0
     13e:	0900                	addi	x8,x2,144
     140:	0000                	unimp
     142:	0301                	addi	x6,x6,0
     144:	0900                	addi	x8,x2,144
     146:	0000                	unimp
     148:	0301                	addi	x6,x6,0
     14a:	0900                	addi	x8,x2,144
     14c:	0000                	unimp
     14e:	0301                	addi	x6,x6,0
     150:	0900                	addi	x8,x2,144
     152:	0000                	unimp
     154:	0301                	addi	x6,x6,0
     156:	0900                	addi	x8,x2,144
     158:	0010                	0x10
     15a:	0301                	addi	x6,x6,0
     15c:	0900                	addi	x8,x2,144
     15e:	0000                	unimp
     160:	0301                	addi	x6,x6,0
     162:	0900                	addi	x8,x2,144
     164:	0004                	0x4
     166:	0301                	addi	x6,x6,0
     168:	0900                	addi	x8,x2,144
     16a:	0000                	unimp
     16c:	0301                	addi	x6,x6,0
     16e:	0900                	addi	x8,x2,144
     170:	0000                	unimp
     172:	0001                	nop
     174:	0402                	c.slli64	x8
     176:	0301                	addi	x6,x6,0
     178:	0900                	addi	x8,x2,144
     17a:	000c                	0xc
     17c:	0001                	nop
     17e:	0402                	c.slli64	x8
     180:	0301                	addi	x6,x6,0
     182:	0900                	addi	x8,x2,144
     184:	0000                	unimp
     186:	0001                	nop
     188:	0402                	c.slli64	x8
     18a:	0301                	addi	x6,x6,0
     18c:	0900                	addi	x8,x2,144
     18e:	0000                	unimp
     190:	0001                	nop
     192:	0402                	c.slli64	x8
     194:	0301                	addi	x6,x6,0
     196:	0900                	addi	x8,x2,144
     198:	0000                	unimp
     19a:	0001                	nop
     19c:	0402                	c.slli64	x8
     19e:	0301                	addi	x6,x6,0
     1a0:	0900                	addi	x8,x2,144
     1a2:	000c                	0xc
     1a4:	0001                	nop
     1a6:	0402                	c.slli64	x8
     1a8:	0301                	addi	x6,x6,0
     1aa:	0900                	addi	x8,x2,144
     1ac:	0000                	unimp
     1ae:	0001                	nop
     1b0:	0402                	c.slli64	x8
     1b2:	0301                	addi	x6,x6,0
     1b4:	0900                	addi	x8,x2,144
     1b6:	0004                	0x4
     1b8:	0001                	nop
     1ba:	0402                	c.slli64	x8
     1bc:	0301                	addi	x6,x6,0
     1be:	0900                	addi	x8,x2,144
     1c0:	0000                	unimp
     1c2:	0001                	nop
     1c4:	0402                	c.slli64	x8
     1c6:	0900030f          	0x900030f
     1ca:	0000                	unimp
     1cc:	0001                	nop
     1ce:	0402                	c.slli64	x8
     1d0:	0900030f          	0x900030f
     1d4:	0000                	unimp
     1d6:	0601                	addi	x12,x12,0
     1d8:	04097903          	0x4097903
     1dc:	0100                	addi	x8,x2,128
     1de:	0200                	addi	x8,x2,256
     1e0:	0204                	addi	x9,x2,256
     1e2:	0306                	slli	x6,x6,0x1
     1e4:	00080907          	0x80907
     1e8:	0001                	nop
     1ea:	0402                	c.slli64	x8
     1ec:	0900030f          	0x900030f
     1f0:	0004                	0x4
     1f2:	0001                	nop
     1f4:	0402                	c.slli64	x8
     1f6:	0900030f          	0x900030f
     1fa:	0000                	unimp
     1fc:	0001                	nop
     1fe:	0402                	c.slli64	x8
     200:	0900030f          	0x900030f
     204:	0000                	unimp
     206:	0001                	nop
     208:	0402                	c.slli64	x8
     20a:	0900030f          	0x900030f
     20e:	0000                	unimp
     210:	0001                	nop
     212:	0402                	c.slli64	x8
     214:	0900030f          	0x900030f
     218:	0000                	unimp
     21a:	0001                	nop
     21c:	0402                	c.slli64	x8
     21e:	0900030f          	0x900030f
     222:	0000                	unimp
     224:	0001                	nop
     226:	0402                	c.slli64	x8
     228:	0900030f          	0x900030f
     22c:	0008                	0x8
     22e:	0001                	nop
     230:	0402                	c.slli64	x8
     232:	0900030f          	0x900030f
     236:	0000                	unimp
     238:	0001                	nop
     23a:	0402                	c.slli64	x8
     23c:	0900030f          	0x900030f
     240:	0000                	unimp
     242:	0001                	nop
     244:	0402                	c.slli64	x8
     246:	0900030f          	0x900030f
     24a:	0000                	unimp
     24c:	0001                	nop
     24e:	0402                	c.slli64	x8
     250:	0900030f          	0x900030f
     254:	0000                	unimp
     256:	0001                	nop
     258:	0402                	c.slli64	x8
     25a:	0900030f          	0x900030f
     25e:	000c                	0xc
     260:	0001                	nop
     262:	0402                	c.slli64	x8
     264:	0900030f          	0x900030f
     268:	0000                	unimp
     26a:	0001                	nop
     26c:	0402                	c.slli64	x8
     26e:	09000303          	lb	x6,144(x0) # 90 <bsg_group_size+0x8c>
     272:	0008                	0x8
     274:	0001                	nop
     276:	0402                	c.slli64	x8
     278:	031e                	slli	x6,x6,0x7
     27a:	0900                	addi	x8,x2,144
     27c:	0004                	0x4
     27e:	0001                	nop
     280:	0402                	c.slli64	x8
     282:	031e                	slli	x6,x6,0x7
     284:	0900                	addi	x8,x2,144
     286:	0000                	unimp
     288:	0001                	nop
     28a:	0402                	c.slli64	x8
     28c:	0308                	addi	x10,x2,384
     28e:	0900                	addi	x8,x2,144
     290:	0014                	0x14
     292:	0001                	nop
     294:	0402                	c.slli64	x8
     296:	0308                	addi	x10,x2,384
     298:	0900                	addi	x8,x2,144
     29a:	0000                	unimp
     29c:	0001                	nop
     29e:	0402                	c.slli64	x8
     2a0:	0308                	addi	x10,x2,384
     2a2:	0901                	addi	x18,x18,0
     2a4:	0000                	unimp
     2a6:	0001                	nop
     2a8:	0402                	c.slli64	x8
     2aa:	0308                	addi	x10,x2,384
     2ac:	0900                	addi	x8,x2,144
     2ae:	0000                	unimp
     2b0:	0001                	nop
     2b2:	0402                	c.slli64	x8
     2b4:	0308                	addi	x10,x2,384
     2b6:	0900                	addi	x8,x2,144
     2b8:	0000                	unimp
     2ba:	0001                	nop
     2bc:	0402                	c.slli64	x8
     2be:	0308                	addi	x10,x2,384
     2c0:	0900                	addi	x8,x2,144
     2c2:	0000                	unimp
     2c4:	0001                	nop
     2c6:	0402                	c.slli64	x8
     2c8:	0308                	addi	x10,x2,384
     2ca:	0900                	addi	x8,x2,144
     2cc:	0000                	unimp
     2ce:	0001                	nop
     2d0:	0402                	c.slli64	x8
     2d2:	0308                	addi	x10,x2,384
     2d4:	0900                	addi	x8,x2,144
     2d6:	0010                	0x10
     2d8:	0001                	nop
     2da:	0402                	c.slli64	x8
     2dc:	0308                	addi	x10,x2,384
     2de:	0900                	addi	x8,x2,144
     2e0:	0000                	unimp
     2e2:	0001                	nop
     2e4:	0402                	c.slli64	x8
     2e6:	0308                	addi	x10,x2,384
     2e8:	0900                	addi	x8,x2,144
     2ea:	0004                	0x4
     2ec:	0001                	nop
     2ee:	0402                	c.slli64	x8
     2f0:	0308                	addi	x10,x2,384
     2f2:	0900                	addi	x8,x2,144
     2f4:	0000                	unimp
     2f6:	0001                	nop
     2f8:	0402                	c.slli64	x8
     2fa:	0308                	addi	x10,x2,384
     2fc:	0900                	addi	x8,x2,144
     2fe:	0000                	unimp
     300:	0601                	addi	x12,x12,0
     302:	04090003          	lb	x0,64(x18)
     306:	0100                	addi	x8,x2,128
     308:	0200                	addi	x8,x2,256
     30a:	0104                	addi	x9,x2,128
     30c:	0306                	slli	x6,x6,0x1
     30e:	0900                	addi	x8,x2,144
     310:	0008                	0x8
     312:	0001                	nop
     314:	0402                	c.slli64	x8
     316:	0301                	addi	x6,x6,0
     318:	0900                	addi	x8,x2,144
     31a:	0000                	unimp
     31c:	0001                	nop
     31e:	0402                	c.slli64	x8
     320:	0301                	addi	x6,x6,0
     322:	0900                	addi	x8,x2,144
     324:	0000                	unimp
     326:	0001                	nop
     328:	0402                	c.slli64	x8
     32a:	0301                	addi	x6,x6,0
     32c:	0900                	addi	x8,x2,144
     32e:	0000                	unimp
     330:	0001                	nop
     332:	0402                	c.slli64	x8
     334:	0301                	addi	x6,x6,0
     336:	0900                	addi	x8,x2,144
     338:	000c                	0xc
     33a:	0001                	nop
     33c:	0402                	c.slli64	x8
     33e:	0301                	addi	x6,x6,0
     340:	0900                	addi	x8,x2,144
     342:	0000                	unimp
     344:	0001                	nop
     346:	0402                	c.slli64	x8
     348:	0301                	addi	x6,x6,0
     34a:	0900                	addi	x8,x2,144
     34c:	0004                	0x4
     34e:	0001                	nop
     350:	0402                	c.slli64	x8
     352:	0301                	addi	x6,x6,0
     354:	0900                	addi	x8,x2,144
     356:	0000                	unimp
     358:	0001                	nop
     35a:	0402                	c.slli64	x8
     35c:	0900030f          	0x900030f
     360:	0000                	unimp
     362:	0001                	nop
     364:	0402                	c.slli64	x8
     366:	0900030f          	0x900030f
     36a:	0000                	unimp
     36c:	0001                	nop
     36e:	0402                	c.slli64	x8
     370:	0308                	addi	x10,x2,384
     372:	0900                	addi	x8,x2,144
     374:	0004                	0x4
     376:	0001                	nop
     378:	0402                	c.slli64	x8
     37a:	0308                	addi	x10,x2,384
     37c:	0900                	addi	x8,x2,144
     37e:	0000                	unimp
     380:	0001                	nop
     382:	0402                	c.slli64	x8
     384:	0308                	addi	x10,x2,384
     386:	0901                	addi	x18,x18,0
     388:	0000                	unimp
     38a:	0001                	nop
     38c:	0402                	c.slli64	x8
     38e:	0308                	addi	x10,x2,384
     390:	0900                	addi	x8,x2,144
     392:	0000                	unimp
     394:	0001                	nop
     396:	0402                	c.slli64	x8
     398:	0308                	addi	x10,x2,384
     39a:	0900                	addi	x8,x2,144
     39c:	0018                	0x18
     39e:	0001                	nop
     3a0:	0402                	c.slli64	x8
     3a2:	0308                	addi	x10,x2,384
     3a4:	0900                	addi	x8,x2,144
     3a6:	0000                	unimp
     3a8:	0601                	addi	x12,x12,0
     3aa:	20097e03          	0x20097e03
     3ae:	0100                	addi	x8,x2,128
     3b0:	0200                	addi	x8,x2,256
     3b2:	0204                	addi	x9,x2,256
     3b4:	0306                	slli	x6,x6,0x1
     3b6:	0901                	addi	x18,x18,0
     3b8:	0014                	0x14
     3ba:	0001                	nop
     3bc:	0402                	c.slli64	x8
     3be:	0900030f          	0x900030f
     3c2:	0004                	0x4
     3c4:	0001                	nop
     3c6:	0402                	c.slli64	x8
     3c8:	0900030f          	0x900030f
     3cc:	0000                	unimp
     3ce:	0001                	nop
     3d0:	0402                	c.slli64	x8
     3d2:	0900030f          	0x900030f
     3d6:	0000                	unimp
     3d8:	0001                	nop
     3da:	0402                	c.slli64	x8
     3dc:	0900030f          	0x900030f
     3e0:	0000                	unimp
     3e2:	0001                	nop
     3e4:	0402                	c.slli64	x8
     3e6:	0900030f          	0x900030f
     3ea:	0000                	unimp
     3ec:	0001                	nop
     3ee:	0402                	c.slli64	x8
     3f0:	0900030f          	0x900030f
     3f4:	0000                	unimp
     3f6:	0001                	nop
     3f8:	0402                	c.slli64	x8
     3fa:	0900030f          	0x900030f
     3fe:	0008                	0x8
     400:	0001                	nop
     402:	0402                	c.slli64	x8
     404:	0900030f          	0x900030f
     408:	0000                	unimp
     40a:	0001                	nop
     40c:	0402                	c.slli64	x8
     40e:	0900030f          	0x900030f
     412:	0000                	unimp
     414:	0001                	nop
     416:	0402                	c.slli64	x8
     418:	0900030f          	0x900030f
     41c:	0000                	unimp
     41e:	0001                	nop
     420:	0402                	c.slli64	x8
     422:	0900030f          	0x900030f
     426:	0000                	unimp
     428:	0001                	nop
     42a:	0402                	c.slli64	x8
     42c:	0900030f          	0x900030f
     430:	0008                	0x8
     432:	0001                	nop
     434:	0402                	c.slli64	x8
     436:	0900030f          	0x900030f
     43a:	0000                	unimp
     43c:	0001                	nop
     43e:	0402                	c.slli64	x8
     440:	09000303          	lb	x6,144(x0) # 90 <bsg_group_size+0x8c>
     444:	000c                	0xc
     446:	0001                	nop
     448:	0402                	c.slli64	x8
     44a:	031e                	slli	x6,x6,0x7
     44c:	0900                	addi	x8,x2,144
     44e:	0004                	0x4
     450:	0001                	nop
     452:	0402                	c.slli64	x8
     454:	031e                	slli	x6,x6,0x7
     456:	0900                	addi	x8,x2,144
     458:	0000                	unimp
     45a:	0601                	addi	x12,x12,0
     45c:	08090003          	lb	x0,128(x18)
     460:	0100                	addi	x8,x2,128
     462:	0200                	addi	x8,x2,256
     464:	0204                	addi	x9,x2,256
     466:	0306                	slli	x6,x6,0x1
     468:	0901                	addi	x18,x18,0
     46a:	0034                	addi	x13,x2,8
     46c:	0001                	nop
     46e:	0402                	c.slli64	x8
     470:	0302                	c.slli64	x6
     472:	0900                	addi	x8,x2,144
     474:	0000                	unimp
     476:	0001                	nop
     478:	0402                	c.slli64	x8
     47a:	0302                	c.slli64	x6
     47c:	0900                	addi	x8,x2,144
     47e:	0000                	unimp
     480:	0001                	nop
     482:	0402                	c.slli64	x8
     484:	0302                	c.slli64	x6
     486:	0900                	addi	x8,x2,144
     488:	0000                	unimp
     48a:	0001                	nop
     48c:	0402                	c.slli64	x8
     48e:	0302                	c.slli64	x6
     490:	0900                	addi	x8,x2,144
     492:	0000                	unimp
     494:	0001                	nop
     496:	0402                	c.slli64	x8
     498:	0302                	c.slli64	x6
     49a:	0900                	addi	x8,x2,144
     49c:	0000                	unimp
     49e:	0001                	nop
     4a0:	0402                	c.slli64	x8
     4a2:	0302                	c.slli64	x6
     4a4:	0900                	addi	x8,x2,144
     4a6:	0000                	unimp
     4a8:	0001                	nop
     4aa:	0402                	c.slli64	x8
     4ac:	0302                	c.slli64	x6
     4ae:	0900                	addi	x8,x2,144
     4b0:	0000                	unimp
     4b2:	0001                	nop
     4b4:	0402                	c.slli64	x8
     4b6:	0302                	c.slli64	x6
     4b8:	0900                	addi	x8,x2,144
     4ba:	0004                	0x4
     4bc:	0001                	nop
     4be:	0402                	c.slli64	x8
     4c0:	030a                	slli	x6,x6,0x2
     4c2:	0900                	addi	x8,x2,144
     4c4:	0004                	0x4
     4c6:	0001                	nop
     4c8:	0402                	c.slli64	x8
     4ca:	030a                	slli	x6,x6,0x2
     4cc:	0900                	addi	x8,x2,144
     4ce:	0004                	0x4
     4d0:	0001                	nop
     4d2:	0402                	c.slli64	x8
     4d4:	030a                	slli	x6,x6,0x2
     4d6:	0900                	addi	x8,x2,144
     4d8:	0000                	unimp
     4da:	0001                	nop
     4dc:	0402                	c.slli64	x8
     4de:	030d                	addi	x6,x6,3
     4e0:	0900                	addi	x8,x2,144
     4e2:	0004                	0x4
     4e4:	0001                	nop
     4e6:	0402                	c.slli64	x8
     4e8:	030d                	addi	x6,x6,3
     4ea:	0900                	addi	x8,x2,144
     4ec:	0000                	unimp
     4ee:	0001                	nop
     4f0:	0402                	c.slli64	x8
     4f2:	030d                	addi	x6,x6,3
     4f4:	0900                	addi	x8,x2,144
     4f6:	0000                	unimp
     4f8:	0001                	nop
     4fa:	0402                	c.slli64	x8
     4fc:	030d                	addi	x6,x6,3
     4fe:	0900                	addi	x8,x2,144
     500:	0000                	unimp
     502:	0001                	nop
     504:	0402                	c.slli64	x8
     506:	030d                	addi	x6,x6,3
     508:	0900                	addi	x8,x2,144
     50a:	0004                	0x4
     50c:	0001                	nop
     50e:	0402                	c.slli64	x8
     510:	030d                	addi	x6,x6,3
     512:	0900                	addi	x8,x2,144
     514:	0010                	0x10
     516:	0001                	nop
     518:	0402                	c.slli64	x8
     51a:	030d                	addi	x6,x6,3
     51c:	0900                	addi	x8,x2,144
     51e:	0000                	unimp
     520:	0001                	nop
     522:	0402                	c.slli64	x8
     524:	030d                	addi	x6,x6,3
     526:	0900                	addi	x8,x2,144
     528:	0000                	unimp
     52a:	0001                	nop
     52c:	0402                	c.slli64	x8
     52e:	030d                	addi	x6,x6,3
     530:	0900                	addi	x8,x2,144
     532:	0010                	0x10
     534:	0001                	nop
     536:	0402                	c.slli64	x8
     538:	030d                	addi	x6,x6,3
     53a:	0900                	addi	x8,x2,144
     53c:	0008                	0x8
     53e:	0001                	nop
     540:	0402                	c.slli64	x8
     542:	030e                	slli	x6,x6,0x3
     544:	0900                	addi	x8,x2,144
     546:	0004                	0x4
     548:	0001                	nop
     54a:	0402                	c.slli64	x8
     54c:	030e                	slli	x6,x6,0x3
     54e:	0900                	addi	x8,x2,144
     550:	0008                	0x8
     552:	0001                	nop
     554:	0402                	c.slli64	x8
     556:	0310                	addi	x12,x2,384
     558:	0900                	addi	x8,x2,144
     55a:	0004                	0x4
     55c:	0001                	nop
     55e:	0402                	c.slli64	x8
     560:	0312                	slli	x6,x6,0x4
     562:	0900                	addi	x8,x2,144
     564:	0004                	0x4
     566:	0001                	nop
     568:	0402                	c.slli64	x8
     56a:	0314                	addi	x13,x2,384
     56c:	0900                	addi	x8,x2,144
     56e:	0008                	0x8
     570:	0001                	nop
     572:	0402                	c.slli64	x8
     574:	0314                	addi	x13,x2,384
     576:	0900                	addi	x8,x2,144
     578:	0004                	0x4
     57a:	0001                	nop
     57c:	0402                	c.slli64	x8
     57e:	0314                	addi	x13,x2,384
     580:	0900                	addi	x8,x2,144
     582:	0000                	unimp
     584:	0001                	nop
     586:	0402                	c.slli64	x8
     588:	0314                	addi	x13,x2,384
     58a:	0900                	addi	x8,x2,144
     58c:	0004                	0x4
     58e:	0001                	nop
     590:	0402                	c.slli64	x8
     592:	0314                	addi	x13,x2,384
     594:	0900                	addi	x8,x2,144
     596:	0008                	0x8
     598:	0001                	nop
     59a:	0402                	c.slli64	x8
     59c:	0314                	addi	x13,x2,384
     59e:	0900                	addi	x8,x2,144
     5a0:	0004                	0x4
     5a2:	0001                	nop
     5a4:	0402                	c.slli64	x8
     5a6:	0315                	addi	x6,x6,5
     5a8:	0900                	addi	x8,x2,144
     5aa:	0008                	0x8
     5ac:	0001                	nop
     5ae:	0402                	c.slli64	x8
     5b0:	0315                	addi	x6,x6,5
     5b2:	0900                	addi	x8,x2,144
     5b4:	0008                	0x8
     5b6:	0001                	nop
     5b8:	0402                	c.slli64	x8
     5ba:	09000317          	auipc	x6,0x9000
     5be:	0004                	0x4
     5c0:	0001                	nop
     5c2:	0402                	c.slli64	x8
     5c4:	0319                	addi	x6,x6,6
     5c6:	0900                	addi	x8,x2,144
     5c8:	0004                	0x4
     5ca:	0001                	nop
     5cc:	0402                	c.slli64	x8
     5ce:	0900031b          	0x900031b
     5d2:	0008                	0x8
     5d4:	0001                	nop
     5d6:	0402                	c.slli64	x8
     5d8:	0900031b          	0x900031b
     5dc:	0000                	unimp
     5de:	0001                	nop
     5e0:	0402                	c.slli64	x8
     5e2:	0900031b          	0x900031b
     5e6:	0000                	unimp
     5e8:	0001                	nop
     5ea:	0402                	c.slli64	x8
     5ec:	0900031b          	0x900031b
     5f0:	0000                	unimp
     5f2:	0001                	nop
     5f4:	0402                	c.slli64	x8
     5f6:	0900031b          	0x900031b
     5fa:	0000                	unimp
     5fc:	0001                	nop
     5fe:	0402                	c.slli64	x8
     600:	0900031b          	0x900031b
     604:	0014                	0x14
     606:	0001                	nop
     608:	0402                	c.slli64	x8
     60a:	0900031b          	0x900031b
     60e:	0000                	unimp
     610:	0001                	nop
     612:	0402                	c.slli64	x8
     614:	0900031b          	0x900031b
     618:	0000                	unimp
     61a:	0001                	nop
     61c:	0402                	c.slli64	x8
     61e:	0901031b          	0x901031b
     622:	0000                	unimp
     624:	0001                	nop
     626:	0402                	c.slli64	x8
     628:	0900031b          	0x900031b
     62c:	0000                	unimp
     62e:	0001                	nop
     630:	0402                	c.slli64	x8
     632:	0900031b          	0x900031b
     636:	0000                	unimp
     638:	0001                	nop
     63a:	0402                	c.slli64	x8
     63c:	0302                	c.slli64	x6
     63e:	0900                	addi	x8,x2,144
     640:	0000                	unimp
     642:	0001                	nop
     644:	0402                	c.slli64	x8
     646:	0302                	c.slli64	x6
     648:	0900                	addi	x8,x2,144
     64a:	0004                	0x4
     64c:	0001                	nop
     64e:	0402                	c.slli64	x8
     650:	0306                	slli	x6,x6,0x1
     652:	0900                	addi	x8,x2,144
     654:	0004                	0x4
     656:	0001                	nop
     658:	0402                	c.slli64	x8
     65a:	0306                	slli	x6,x6,0x1
     65c:	0900                	addi	x8,x2,144
     65e:	0000                	unimp
     660:	0001                	nop
     662:	0402                	c.slli64	x8
     664:	0308                	addi	x10,x2,384
     666:	0900                	addi	x8,x2,144
     668:	0008                	0x8
     66a:	0001                	nop
     66c:	0402                	c.slli64	x8
     66e:	0308                	addi	x10,x2,384
     670:	0900                	addi	x8,x2,144
     672:	0008                	0x8
     674:	0301                	addi	x6,x6,0
     676:	0900                	addi	x8,x2,144
     678:	0010                	0x10
     67a:	0301                	addi	x6,x6,0
     67c:	0900                	addi	x8,x2,144
     67e:	0000                	unimp
     680:	0001                	nop
     682:	0402                	c.slli64	x8
     684:	030a                	slli	x6,x6,0x2
     686:	0900                	addi	x8,x2,144
     688:	000c                	0xc
     68a:	0001                	nop
     68c:	0402                	c.slli64	x8
     68e:	0309                	addi	x6,x6,2
     690:	0900                	addi	x8,x2,144
     692:	0004                	0x4
     694:	0001                	nop
     696:	0402                	c.slli64	x8
     698:	0309                	addi	x6,x6,2
     69a:	0900                	addi	x8,x2,144
     69c:	0000                	unimp
     69e:	0001                	nop
     6a0:	0402                	c.slli64	x8
     6a2:	0318                	addi	x14,x2,384
     6a4:	0900                	addi	x8,x2,144
     6a6:	0008                	0x8
     6a8:	0001                	nop
     6aa:	0402                	c.slli64	x8
     6ac:	0318                	addi	x14,x2,384
     6ae:	0900                	addi	x8,x2,144
     6b0:	000c                	0xc
     6b2:	0001                	nop
     6b4:	0402                	c.slli64	x8
     6b6:	031a                	slli	x6,x6,0x6
     6b8:	0900                	addi	x8,x2,144
     6ba:	0004                	0x4
     6bc:	0001                	nop
     6be:	0402                	c.slli64	x8
     6c0:	031a                	slli	x6,x6,0x6
     6c2:	0900                	addi	x8,x2,144
     6c4:	0000                	unimp
     6c6:	0601                	addi	x12,x12,0
     6c8:	08090003          	lb	x0,128(x18)
     6cc:	0100                	addi	x8,x2,128
     6ce:	0200                	addi	x8,x2,256
     6d0:	6f04                	flw	f9,24(x14)
     6d2:	0306                	slli	x6,x6,0x1
     6d4:	0900                	addi	x8,x2,144
     6d6:	0008                	0x8
     6d8:	0001                	nop
     6da:	0402                	c.slli64	x8
     6dc:	0900036f          	jal	x6,76c <bsg_printf+0x264>
     6e0:	0000                	unimp
     6e2:	0001                	nop
     6e4:	0402                	c.slli64	x8
     6e6:	0900036f          	jal	x6,776 <bsg_printf+0x26e>
     6ea:	0000                	unimp
     6ec:	0001                	nop
     6ee:	0402                	c.slli64	x8
     6f0:	0900036f          	jal	x6,780 <bsg_printf+0x278>
     6f4:	0000                	unimp
     6f6:	0001                	nop
     6f8:	0402                	c.slli64	x8
     6fa:	0900036f          	jal	x6,78a <bsg_printf+0x282>
     6fe:	0000                	unimp
     700:	0001                	nop
     702:	0402                	c.slli64	x8
     704:	0900036f          	jal	x6,794 <bsg_printf+0x28c>
     708:	0000                	unimp
     70a:	0001                	nop
     70c:	0402                	c.slli64	x8
     70e:	0900036f          	jal	x6,79e <bsg_printf+0x296>
     712:	0020                	addi	x8,x2,8
     714:	0001                	nop
     716:	0402                	c.slli64	x8
     718:	0900036f          	jal	x6,7a8 <bsg_printf+0x2a0>
     71c:	0000                	unimp
     71e:	0001                	nop
     720:	0402                	c.slli64	x8
     722:	0900036f          	jal	x6,7b2 <bsg_printf+0x2aa>
     726:	0000                	unimp
     728:	0001                	nop
     72a:	0402                	c.slli64	x8
     72c:	0901036f          	jal	x6,107bc <_bsg_elf_stack_ptr+0xe7c0>
     730:	0000                	unimp
     732:	0001                	nop
     734:	0402                	c.slli64	x8
     736:	0900036f          	jal	x6,7c6 <bsg_printf+0x2be>
     73a:	0000                	unimp
     73c:	0001                	nop
     73e:	0402                	c.slli64	x8
     740:	0301                	addi	x6,x6,0
     742:	0900                	addi	x8,x2,144
     744:	0004                	0x4
     746:	0001                	nop
     748:	0402                	c.slli64	x8
     74a:	0301                	addi	x6,x6,0
     74c:	0900                	addi	x8,x2,144
     74e:	0004                	0x4
     750:	0001                	nop
     752:	0402                	c.slli64	x8
     754:	0301                	addi	x6,x6,0
     756:	0902                	c.slli64	x18
     758:	0000                	unimp
     75a:	0501                	addi	x10,x10,0
     75c:	0601                	addi	x12,x12,0
     75e:	00090103          	lb	x2,0(x18)
     762:	0100                	addi	x8,x2,128
     764:	0305                	addi	x6,x6,1
     766:	0200                	addi	x8,x2,256
     768:	0b04                	addi	x9,x2,400
     76a:	0306                	slli	x6,x6,0x1
     76c:	002c097b          	0x2c097b
     770:	0001                	nop
     772:	0402                	c.slli64	x8
     774:	0900030b          	0x900030b
     778:	0004                	0x4
     77a:	0001                	nop
     77c:	0402                	c.slli64	x8
     77e:	0608                	addi	x10,x2,768
     780:	08097e03          	0x8097e03
     784:	0100                	addi	x8,x2,128
     786:	0200                	addi	x8,x2,256
     788:	0804                	addi	x9,x2,16
     78a:	0306                	slli	x6,x6,0x1
     78c:	0902                	c.slli64	x18
     78e:	0004                	0x4
     790:	0001                	nop
     792:	0402                	c.slli64	x8
     794:	0308                	addi	x10,x2,384
     796:	0900                	addi	x8,x2,144
     798:	0000                	unimp
     79a:	0001                	nop
     79c:	0402                	c.slli64	x8
     79e:	0308                	addi	x10,x2,384
     7a0:	0900                	addi	x8,x2,144
     7a2:	0000                	unimp
     7a4:	0001                	nop
     7a6:	0402                	c.slli64	x8
     7a8:	0308                	addi	x10,x2,384
     7aa:	0900                	addi	x8,x2,144
     7ac:	0000                	unimp
     7ae:	0001                	nop
     7b0:	0402                	c.slli64	x8
     7b2:	09000323          	sb	x16,134(x0) # 86 <bsg_group_size+0x82>
     7b6:	0008                	0x8
     7b8:	0001                	nop
     7ba:	0402                	c.slli64	x8
     7bc:	09010323          	sb	x16,134(x2)
     7c0:	0000                	unimp
     7c2:	0001                	nop
     7c4:	0402                	c.slli64	x8
     7c6:	09000323          	sb	x16,134(x0) # 86 <bsg_group_size+0x82>
     7ca:	0000                	unimp
     7cc:	0001                	nop
     7ce:	0402                	c.slli64	x8
     7d0:	09000323          	sb	x16,134(x0) # 86 <bsg_group_size+0x82>
     7d4:	0000                	unimp
     7d6:	0601                	addi	x12,x12,0
     7d8:	08090003          	lb	x0,128(x18)
     7dc:	0100                	addi	x8,x2,128
     7de:	0200                	addi	x8,x2,256
     7e0:	0504                	addi	x9,x2,640
     7e2:	14097e03          	0x14097e03
     7e6:	0100                	addi	x8,x2,128
     7e8:	0200                	addi	x8,x2,256
     7ea:	0504                	addi	x9,x2,640
     7ec:	0306                	slli	x6,x6,0x1
     7ee:	0901                	addi	x18,x18,0
     7f0:	0004                	0x4
     7f2:	0001                	nop
     7f4:	0402                	c.slli64	x8
     7f6:	0305                	addi	x6,x6,1
     7f8:	0900                	addi	x8,x2,144
     7fa:	0000                	unimp
     7fc:	0001                	nop
     7fe:	0402                	c.slli64	x8
     800:	0305                	addi	x6,x6,1
     802:	0900                	addi	x8,x2,144
     804:	0000                	unimp
     806:	0001                	nop
     808:	0402                	c.slli64	x8
     80a:	0305                	addi	x6,x6,1
     80c:	0900                	addi	x8,x2,144
     80e:	0000                	unimp
     810:	0001                	nop
     812:	0402                	c.slli64	x8
     814:	09000303          	lb	x6,144(x0) # 90 <bsg_group_size+0x8c>
     818:	0004                	0x4
     81a:	0601                	addi	x12,x12,0
     81c:	04090103          	lb	x2,64(x18)
     820:	0100                	addi	x8,x2,128
     822:	0c097f03          	0xc097f03
     826:	0100                	addi	x8,x2,128
     828:	0306                	slli	x6,x6,0x1
     82a:	0901                	addi	x18,x18,0
     82c:	0010                	0x10
     82e:	0301                	addi	x6,x6,0
     830:	0900                	addi	x8,x2,144
     832:	0000                	unimp
     834:	0001                	nop
     836:	0402                	c.slli64	x8
     838:	0315                	addi	x6,x6,5
     83a:	0900                	addi	x8,x2,144
     83c:	0004                	0x4
     83e:	0301                	addi	x6,x6,0
     840:	0900                	addi	x8,x2,144
     842:	0008                	0x8
     844:	0301                	addi	x6,x6,0
     846:	0900                	addi	x8,x2,144
     848:	0000                	unimp
     84a:	0301                	addi	x6,x6,0
     84c:	0900                	addi	x8,x2,144
     84e:	0008                	0x8
     850:	0301                	addi	x6,x6,0
     852:	0900                	addi	x8,x2,144
     854:	0020                	addi	x8,x2,8
     856:	0001                	nop
     858:	0402                	c.slli64	x8
     85a:	0326                	slli	x6,x6,0x9
     85c:	0900                	addi	x8,x2,144
     85e:	000c                	0xc
     860:	0001                	nop
     862:	0402                	c.slli64	x8
     864:	0326                	slli	x6,x6,0x9
     866:	0900                	addi	x8,x2,144
     868:	0000                	unimp
     86a:	0301                	addi	x6,x6,0
     86c:	0900                	addi	x8,x2,144
     86e:	0008                	0x8
     870:	0001                	nop
     872:	0402                	c.slli64	x8
     874:	09000307          	0x9000307
     878:	0008                	0x8
     87a:	0001                	nop
     87c:	0402                	c.slli64	x8
     87e:	09000307          	0x9000307
     882:	0000                	unimp
     884:	0001                	nop
     886:	0402                	c.slli64	x8
     888:	09000327          	0x9000327
     88c:	0008                	0x8
     88e:	0001                	nop
     890:	0402                	c.slli64	x8
     892:	09000327          	0x9000327
     896:	0000                	unimp
     898:	0001                	nop
     89a:	0402                	c.slli64	x8
     89c:	09000327          	0x9000327
     8a0:	0000                	unimp
     8a2:	0001                	nop
     8a4:	0402                	c.slli64	x8
     8a6:	09000327          	0x9000327
     8aa:	0000                	unimp
     8ac:	0001                	nop
     8ae:	0402                	c.slli64	x8
     8b0:	09000327          	0x9000327
     8b4:	0000                	unimp
     8b6:	0001                	nop
     8b8:	0402                	c.slli64	x8
     8ba:	09000327          	0x9000327
     8be:	0000                	unimp
     8c0:	0001                	nop
     8c2:	0402                	c.slli64	x8
     8c4:	09000327          	0x9000327
     8c8:	0000                	unimp
     8ca:	0001                	nop
     8cc:	0402                	c.slli64	x8
     8ce:	09000327          	0x9000327
     8d2:	0000                	unimp
     8d4:	0001                	nop
     8d6:	0402                	c.slli64	x8
     8d8:	09000327          	0x9000327
     8dc:	0000                	unimp
     8de:	0001                	nop
     8e0:	0402                	c.slli64	x8
     8e2:	0329                	addi	x6,x6,10
     8e4:	0900                	addi	x8,x2,144
     8e6:	000c                	0xc
     8e8:	0001                	nop
     8ea:	0402                	c.slli64	x8
     8ec:	0329                	addi	x6,x6,10
     8ee:	0900                	addi	x8,x2,144
     8f0:	0008                	0x8
     8f2:	0301                	addi	x6,x6,0
     8f4:	0900                	addi	x8,x2,144
     8f6:	0014                	0x14
     8f8:	0301                	addi	x6,x6,0
     8fa:	0900                	addi	x8,x2,144
     8fc:	0000                	unimp
     8fe:	0001                	nop
     900:	0402                	c.slli64	x8
     902:	0900032b          	0x900032b
     906:	000c                	0xc
     908:	0001                	nop
     90a:	0402                	c.slli64	x8
     90c:	032a                	slli	x6,x6,0xa
     90e:	0900                	addi	x8,x2,144
     910:	0004                	0x4
     912:	0001                	nop
     914:	0402                	c.slli64	x8
     916:	032a                	slli	x6,x6,0xa
     918:	0900                	addi	x8,x2,144
     91a:	0000                	unimp
     91c:	0001                	nop
     91e:	0402                	c.slli64	x8
     920:	0900033b          	0x900033b
     924:	000c                	0xc
     926:	0001                	nop
     928:	0402                	c.slli64	x8
     92a:	0900033b          	0x900033b
     92e:	0008                	0x8
     930:	0001                	nop
     932:	0402                	c.slli64	x8
     934:	033c                	addi	x15,x2,392
     936:	0900                	addi	x8,x2,144
     938:	0008                	0x8
     93a:	0001                	nop
     93c:	0402                	c.slli64	x8
     93e:	033c                	addi	x15,x2,392
     940:	0900                	addi	x8,x2,144
     942:	0014                	0x14
     944:	0001                	nop
     946:	0402                	c.slli64	x8
     948:	033c                	addi	x15,x2,392
     94a:	0900                	addi	x8,x2,144
     94c:	0000                	unimp
     94e:	0001                	nop
     950:	0402                	c.slli64	x8
     952:	0344                	addi	x9,x2,388
     954:	0900                	addi	x8,x2,144
     956:	0008                	0x8
     958:	0001                	nop
     95a:	0402                	c.slli64	x8
     95c:	0344                	addi	x9,x2,388
     95e:	0900                	addi	x8,x2,144
     960:	0008                	0x8
     962:	0301                	addi	x6,x6,0
     964:	0900                	addi	x8,x2,144
     966:	0010                	0x10
     968:	0301                	addi	x6,x6,0
     96a:	0900                	addi	x8,x2,144
     96c:	0000                	unimp
     96e:	0001                	nop
     970:	0402                	c.slli64	x8
     972:	0346                	slli	x6,x6,0x11
     974:	0900                	addi	x8,x2,144
     976:	000c                	0xc
     978:	0001                	nop
     97a:	0402                	c.slli64	x8
     97c:	0345                	addi	x6,x6,17
     97e:	0900                	addi	x8,x2,144
     980:	0004                	0x4
     982:	0001                	nop
     984:	0402                	c.slli64	x8
     986:	0345                	addi	x6,x6,17
     988:	0900                	addi	x8,x2,144
     98a:	0000                	unimp
     98c:	0001                	nop
     98e:	0402                	c.slli64	x8
     990:	0354                	addi	x13,x2,388
     992:	0900                	addi	x8,x2,144
     994:	0008                	0x8
     996:	0001                	nop
     998:	0402                	c.slli64	x8
     99a:	0354                	addi	x13,x2,388
     99c:	0900                	addi	x8,x2,144
     99e:	0000                	unimp
     9a0:	0001                	nop
     9a2:	0402                	c.slli64	x8
     9a4:	0354                	addi	x13,x2,388
     9a6:	0900                	addi	x8,x2,144
     9a8:	0000                	unimp
     9aa:	0001                	nop
     9ac:	0402                	c.slli64	x8
     9ae:	0354                	addi	x13,x2,388
     9b0:	0900                	addi	x8,x2,144
     9b2:	0004                	0x4
     9b4:	0601                	addi	x12,x12,0
     9b6:	08090003          	lb	x0,128(x18)
     9ba:	0100                	addi	x8,x2,128
     9bc:	0306                	slli	x6,x6,0x1
     9be:	0900                	addi	x8,x2,144
     9c0:	0008                	0x8
     9c2:	0301                	addi	x6,x6,0
     9c4:	0900                	addi	x8,x2,144
     9c6:	0000                	unimp
     9c8:	0001                	nop
     9ca:	0402                	c.slli64	x8
     9cc:	0336                	slli	x6,x6,0xd
     9ce:	0900                	addi	x8,x2,144
     9d0:	0008                	0x8
     9d2:	0301                	addi	x6,x6,0
     9d4:	0900                	addi	x8,x2,144
     9d6:	0008                	0x8
     9d8:	0301                	addi	x6,x6,0
     9da:	0900                	addi	x8,x2,144
     9dc:	0000                	unimp
     9de:	0301                	addi	x6,x6,0
     9e0:	0900                	addi	x8,x2,144
     9e2:	000c                	0xc
     9e4:	0301                	addi	x6,x6,0
     9e6:	0900                	addi	x8,x2,144
     9e8:	0000                	unimp
     9ea:	0001                	nop
     9ec:	0402                	c.slli64	x8
     9ee:	0351                	addi	x6,x6,20
     9f0:	0900                	addi	x8,x2,144
     9f2:	0004                	0x4
     9f4:	0301                	addi	x6,x6,0
     9f6:	0900                	addi	x8,x2,144
     9f8:	0008                	0x8
     9fa:	0301                	addi	x6,x6,0
     9fc:	0900                	addi	x8,x2,144
     9fe:	0000                	unimp
     a00:	0001                	nop
     a02:	0402                	c.slli64	x8
     a04:	0355                	addi	x6,x6,21
     a06:	0900                	addi	x8,x2,144
     a08:	0008                	0x8
     a0a:	0001                	nop
     a0c:	0402                	c.slli64	x8
     a0e:	0355                	addi	x6,x6,21
     a10:	0900                	addi	x8,x2,144
     a12:	0000                	unimp
     a14:	0001                	nop
     a16:	0402                	c.slli64	x8
     a18:	0355                	addi	x6,x6,21
     a1a:	0900                	addi	x8,x2,144
     a1c:	0004                	0x4
     a1e:	0001                	nop
     a20:	0402                	c.slli64	x8
     a22:	0658                	addi	x14,x2,772
     a24:	04090003          	lb	x0,64(x18)
     a28:	0100                	addi	x8,x2,128
     a2a:	08090003          	lb	x0,128(x18)
     a2e:	0100                	addi	x8,x2,128
     a30:	0200                	addi	x8,x2,256
     a32:	5904                	lw	x9,48(x10)
     a34:	0306                	slli	x6,x6,0x1
     a36:	0900                	addi	x8,x2,144
     a38:	0004                	0x4
     a3a:	0001                	nop
     a3c:	0402                	c.slli64	x8
     a3e:	033d                	addi	x6,x6,15
     a40:	0900                	addi	x8,x2,144
     a42:	0008                	0x8
     a44:	0001                	nop
     a46:	0402                	c.slli64	x8
     a48:	033d                	addi	x6,x6,15
     a4a:	0900                	addi	x8,x2,144
     a4c:	0000                	unimp
     a4e:	0001                	nop
     a50:	0402                	c.slli64	x8
     a52:	035c                	addi	x15,x2,388
     a54:	0900                	addi	x8,x2,144
     a56:	0004                	0x4
     a58:	0001                	nop
     a5a:	0402                	c.slli64	x8
     a5c:	035c                	addi	x15,x2,388
     a5e:	0900                	addi	x8,x2,144
     a60:	0000                	unimp
     a62:	0001                	nop
     a64:	0402                	c.slli64	x8
     a66:	035c                	addi	x15,x2,388
     a68:	0900                	addi	x8,x2,144
     a6a:	0000                	unimp
     a6c:	0001                	nop
     a6e:	0402                	c.slli64	x8
     a70:	035c                	addi	x15,x2,388
     a72:	0900                	addi	x8,x2,144
     a74:	0000                	unimp
     a76:	0001                	nop
     a78:	0402                	c.slli64	x8
     a7a:	035c                	addi	x15,x2,388
     a7c:	0900                	addi	x8,x2,144
     a7e:	0008                	0x8
     a80:	0601                	addi	x12,x12,0
     a82:	0c090003          	lb	x0,192(x18)
     a86:	0100                	addi	x8,x2,128
     a88:	0200                	addi	x8,x2,256
     a8a:	5d04                	lw	x9,56(x10)
     a8c:	0306                	slli	x6,x6,0x1
     a8e:	0900                	addi	x8,x2,144
     a90:	000c                	0xc
     a92:	0001                	nop
     a94:	0402                	c.slli64	x8
     a96:	035d                	addi	x6,x6,23
     a98:	0900                	addi	x8,x2,144
     a9a:	0000                	unimp
     a9c:	0001                	nop
     a9e:	0402                	c.slli64	x8
     aa0:	036c                	addi	x11,x2,396
     aa2:	0900                	addi	x8,x2,144
     aa4:	0004                	0x4
     aa6:	0601                	addi	x12,x12,0
     aa8:	04090003          	lb	x0,64(x18)
     aac:	0100                	addi	x8,x2,128
     aae:	0306                	slli	x6,x6,0x1
     ab0:	0900                	addi	x8,x2,144
     ab2:	0008                	0x8
     ab4:	0301                	addi	x6,x6,0
     ab6:	0900                	addi	x8,x2,144
     ab8:	0000                	unimp
     aba:	0301                	addi	x6,x6,0
     abc:	0900                	addi	x8,x2,144
     abe:	0010                	0x10
     ac0:	0301                	addi	x6,x6,0
     ac2:	0900                	addi	x8,x2,144
     ac4:	0000                	unimp
     ac6:	0601                	addi	x12,x12,0
     ac8:	18097f03          	0x18097f03
     acc:	0100                	addi	x8,x2,128
     ace:	08090103          	lb	x2,128(x18)
     ad2:	0100                	addi	x8,x2,128
     ad4:	1809                	addi	x16,x16,-30
     ad6:	0000                	unimp
     ad8:	0101                	addi	x2,x2,0
     ada:	03fd                	addi	x7,x7,31
     adc:	0000                	unimp
     ade:	00a20003          	lb	x0,10(x4) # 95c00 <_bsg_elf_vcache_size+0x75c00>
     ae2:	0000                	unimp
     ae4:	0101                	addi	x2,x2,0
     ae6:	000d0efb          	0xd0efb
     aea:	0101                	addi	x2,x2,0
     aec:	0101                	addi	x2,x2,0
     aee:	0000                	unimp
     af0:	0100                	addi	x8,x2,128
     af2:	0000                	unimp
     af4:	2e01                	jal	e04 <bsg_tile_group_barrier+0x60>
     af6:	2f2e                	fld	f30,200(x2)
     af8:	2e2e                	fld	f28,200(x2)
     afa:	2f2e2e2f          	0x2f2e2e2f
     afe:	2f2e                	fld	f30,200(x2)
     b00:	6972                	flw	f18,28(x2)
     b02:	2d766373          	csrrsi	x6,0x2d7,12
     b06:	2f636367          	0x2f636367
     b0a:	696c                	flw	f11,84(x10)
     b0c:	6762                	flw	f14,24(x2)
     b0e:	732f6363          	bltu	x30,x18,1234 <__ieee754_expf+0xb0>
     b12:	2d74666f          	jal	x12,475e8 <_bsg_elf_vcache_size+0x275e8>
     b16:	7066                	flw	f0,120(x2)
     b18:	2e00                	fld	f8,24(x12)
     b1a:	2f2e                	fld	f30,200(x2)
     b1c:	2e2e                	fld	f28,200(x2)
     b1e:	2f2e2e2f          	0x2f2e2e2f
     b22:	2f2e                	fld	f30,200(x2)
     b24:	6972                	flw	f18,28(x2)
     b26:	2d766373          	csrrsi	x6,0x2d7,12
     b2a:	2f636367          	0x2f636367
     b2e:	696c                	flw	f11,84(x10)
     b30:	6762                	flw	f14,24(x2)
     b32:	2e2f6363          	bltu	x30,x2,e18 <bsg_tile_group_barrier+0x74>
     b36:	2f2e                	fld	f30,200(x2)
     b38:	6e69                	lui	x28,0x1a
     b3a:	64756c63          	bltu	x10,x7,1192 <__ieee754_expf+0xe>
     b3e:	0065                	c.nop	25
     b40:	6500                	flw	f8,8(x10)
     b42:	7478                	flw	f14,108(x8)
     b44:	6e65                	lui	x28,0x19
     b46:	7364                	flw	f9,100(x14)
     b48:	6466                	flw	f8,88(x2)
     b4a:	3266                	fld	f4,120(x2)
     b4c:	632e                	flw	f6,200(x2)
     b4e:	0100                	addi	x8,x2,128
     b50:	0000                	unimp
     b52:	74666f73          	csrrsi	x30,0x746,12
     b56:	662d                	lui	x12,0xb
     b58:	2e70                	fld	f12,216(x12)
     b5a:	0068                	addi	x10,x2,12
     b5c:	0001                	nop
     b5e:	7300                	flw	f8,32(x14)
     b60:	6e69                	lui	x28,0x1a
     b62:	2e656c67          	0x2e656c67
     b66:	0068                	addi	x10,x2,12
     b68:	0001                	nop
     b6a:	6400                	flw	f8,8(x8)
     b6c:	6c62756f          	jal	x10,28232 <_bsg_elf_vcache_size+0x8232>
     b70:	2e65                	jal	f28 <bsg_tile_group_barrier+0x184>
     b72:	0068                	addi	x10,x2,12
     b74:	0001                	nop
     b76:	6c00                	flw	f8,24(x8)
     b78:	6c676e6f          	jal	x28,7723e <_bsg_elf_vcache_size+0x5723e>
     b7c:	2e676e6f          	jal	x28,76e62 <_bsg_elf_vcache_size+0x56e62>
     b80:	0068                	addi	x10,x2,12
     b82:	0002                	c.slli64	x0
     b84:	0000                	unimp
     b86:	0105                	addi	x2,x2,1
     b88:	0500                	addi	x8,x2,640
     b8a:	c802                	sw	x0,16(x2)
     b8c:	0019                	c.nop	6
     b8e:	0300                	addi	x8,x2,384
     b90:	0125                	addi	x2,x2,9
     b92:	0305                	addi	x6,x6,1
     b94:	00090103          	lb	x2,0(x18)
     b98:	0100                	addi	x8,x2,128
     b9a:	00090003          	lb	x0,0(x18)
     b9e:	0100                	addi	x8,x2,128
     ba0:	0d05                	addi	x26,x26,1
     ba2:	00090003          	lb	x0,0(x18)
     ba6:	0100                	addi	x8,x2,128
     ba8:	0305                	addi	x6,x6,1
     baa:	00090103          	lb	x2,0(x18)
     bae:	0100                	addi	x8,x2,128
     bb0:	00090003          	lb	x0,0(x18)
     bb4:	0100                	addi	x8,x2,128
     bb6:	00090003          	lb	x0,0(x18)
     bba:	0100                	addi	x8,x2,128
     bbc:	00090003          	lb	x0,0(x18)
     bc0:	0100                	addi	x8,x2,128
     bc2:	00090103          	lb	x2,0(x18)
     bc6:	0100                	addi	x8,x2,128
     bc8:	00090003          	lb	x0,0(x18)
     bcc:	0100                	addi	x8,x2,128
     bce:	00090003          	lb	x0,0(x18)
     bd2:	0100                	addi	x8,x2,128
     bd4:	00090003          	lb	x0,0(x18)
     bd8:	0100                	addi	x8,x2,128
     bda:	00090103          	lb	x2,0(x18)
     bde:	0100                	addi	x8,x2,128
     be0:	00090203          	lb	x4,0(x18)
     be4:	0100                	addi	x8,x2,128
     be6:	00090003          	lb	x0,0(x18)
     bea:	0100                	addi	x8,x2,128
     bec:	0105                	addi	x2,x2,1
     bee:	0306                	slli	x6,x6,0x1
     bf0:	097a                	slli	x18,x18,0x1e
     bf2:	0000                	unimp
     bf4:	0501                	addi	x10,x10,0
     bf6:	09060303          	lb	x6,144(x12) # b090 <_bsg_elf_stack_ptr+0x9094>
     bfa:	0014                	0x14
     bfc:	0601                	addi	x12,x12,0
     bfe:	04090003          	lb	x0,64(x18)
     c02:	0100                	addi	x8,x2,128
     c04:	00090103          	lb	x2,0(x18)
     c08:	0100                	addi	x8,x2,128
     c0a:	00090003          	lb	x0,0(x18)
     c0e:	0100                	addi	x8,x2,128
     c10:	00090003          	lb	x0,0(x18)
     c14:	0100                	addi	x8,x2,128
     c16:	00090003          	lb	x0,0(x18)
     c1a:	0100                	addi	x8,x2,128
     c1c:	0306                	slli	x6,x6,0x1
     c1e:	0902                	c.slli64	x18
     c20:	0008                	0x8
     c22:	0301                	addi	x6,x6,0
     c24:	097e                	slli	x18,x18,0x1f
     c26:	0004                	0x4
     c28:	0301                	addi	x6,x6,0
     c2a:	0902                	c.slli64	x18
     c2c:	0004                	0x4
     c2e:	0301                	addi	x6,x6,0
     c30:	097e                	slli	x18,x18,0x1f
     c32:	0004                	0x4
     c34:	0601                	addi	x12,x12,0
     c36:	04090003          	lb	x0,64(x18)
     c3a:	0100                	addi	x8,x2,128
     c3c:	00090003          	lb	x0,0(x18)
     c40:	0100                	addi	x8,x2,128
     c42:	04090003          	lb	x0,64(x18)
     c46:	0100                	addi	x8,x2,128
     c48:	00090203          	lb	x4,0(x18)
     c4c:	0100                	addi	x8,x2,128
     c4e:	00090003          	lb	x0,0(x18)
     c52:	0100                	addi	x8,x2,128
     c54:	00090003          	lb	x0,0(x18)
     c58:	0100                	addi	x8,x2,128
     c5a:	00090003          	lb	x0,0(x18)
     c5e:	0100                	addi	x8,x2,128
     c60:	00090003          	lb	x0,0(x18)
     c64:	0100                	addi	x8,x2,128
     c66:	00090003          	lb	x0,0(x18)
     c6a:	0100                	addi	x8,x2,128
     c6c:	00090003          	lb	x0,0(x18)
     c70:	0100                	addi	x8,x2,128
     c72:	0200                	addi	x8,x2,256
     c74:	0104                	addi	x9,x2,128
     c76:	04090003          	lb	x0,64(x18)
     c7a:	0100                	addi	x8,x2,128
     c7c:	0200                	addi	x8,x2,256
     c7e:	0104                	addi	x9,x2,128
     c80:	04090003          	lb	x0,64(x18)
     c84:	0100                	addi	x8,x2,128
     c86:	0200                	addi	x8,x2,256
     c88:	0104                	addi	x9,x2,128
     c8a:	00090003          	lb	x0,0(x18)
     c8e:	0100                	addi	x8,x2,128
     c90:	0200                	addi	x8,x2,256
     c92:	0104                	addi	x9,x2,128
     c94:	00090003          	lb	x0,0(x18)
     c98:	0100                	addi	x8,x2,128
     c9a:	0200                	addi	x8,x2,256
     c9c:	0104                	addi	x9,x2,128
     c9e:	0306                	slli	x6,x6,0x1
     ca0:	0978                	addi	x14,x2,156
     ca2:	0000                	unimp
     ca4:	0001                	nop
     ca6:	0402                	c.slli64	x8
     ca8:	0301                	addi	x6,x6,0
     caa:	0908                	addi	x10,x2,144
     cac:	0004                	0x4
     cae:	0001                	nop
     cb0:	0402                	c.slli64	x8
     cb2:	0601                	addi	x12,x12,0
     cb4:	04090003          	lb	x0,64(x18)
     cb8:	0100                	addi	x8,x2,128
     cba:	0200                	addi	x8,x2,256
     cbc:	0104                	addi	x9,x2,128
     cbe:	04090003          	lb	x0,64(x18)
     cc2:	0100                	addi	x8,x2,128
     cc4:	0200                	addi	x8,x2,256
     cc6:	3504                	fld	f9,40(x10)
     cc8:	00090003          	lb	x0,0(x18)
     ccc:	0100                	addi	x8,x2,128
     cce:	0200                	addi	x8,x2,256
     cd0:	3504                	fld	f9,40(x10)
     cd2:	00090003          	lb	x0,0(x18)
     cd6:	0100                	addi	x8,x2,128
     cd8:	0200                	addi	x8,x2,256
     cda:	3504                	fld	f9,40(x10)
     cdc:	00090403          	lb	x8,0(x18)
     ce0:	0100                	addi	x8,x2,128
     ce2:	0200                	addi	x8,x2,256
     ce4:	3504                	fld	f9,40(x10)
     ce6:	00090003          	lb	x0,0(x18)
     cea:	0100                	addi	x8,x2,128
     cec:	0200                	addi	x8,x2,256
     cee:	3504                	fld	f9,40(x10)
     cf0:	00090003          	lb	x0,0(x18)
     cf4:	0100                	addi	x8,x2,128
     cf6:	0200                	addi	x8,x2,256
     cf8:	3504                	fld	f9,40(x10)
     cfa:	00090003          	lb	x0,0(x18)
     cfe:	0100                	addi	x8,x2,128
     d00:	0200                	addi	x8,x2,256
     d02:	3504                	fld	f9,40(x10)
     d04:	00090003          	lb	x0,0(x18)
     d08:	0100                	addi	x8,x2,128
     d0a:	0200                	addi	x8,x2,256
     d0c:	3504                	fld	f9,40(x10)
     d0e:	00090003          	lb	x0,0(x18)
     d12:	0100                	addi	x8,x2,128
     d14:	0200                	addi	x8,x2,256
     d16:	3504                	fld	f9,40(x10)
     d18:	00090003          	lb	x0,0(x18)
     d1c:	0100                	addi	x8,x2,128
     d1e:	0200                	addi	x8,x2,256
     d20:	3504                	fld	f9,40(x10)
     d22:	1c090003          	lb	x0,448(x18)
     d26:	0100                	addi	x8,x2,128
     d28:	0200                	addi	x8,x2,256
     d2a:	3504                	fld	f9,40(x10)
     d2c:	00090103          	lb	x2,0(x18)
     d30:	0100                	addi	x8,x2,128
     d32:	0200                	addi	x8,x2,256
     d34:	3504                	fld	f9,40(x10)
     d36:	00090003          	lb	x0,0(x18)
     d3a:	0100                	addi	x8,x2,128
     d3c:	0200                	addi	x8,x2,256
     d3e:	3504                	fld	f9,40(x10)
     d40:	0306                	slli	x6,x6,0x1
     d42:	097f                	0x97f
     d44:	0000                	unimp
     d46:	0001                	nop
     d48:	0402                	c.slli64	x8
     d4a:	0335                	addi	x6,x6,13
     d4c:	0901                	addi	x18,x18,0
     d4e:	0004                	0x4
     d50:	0001                	nop
     d52:	0402                	c.slli64	x8
     d54:	0601                	addi	x12,x12,0
     d56:	04090003          	lb	x0,64(x18)
     d5a:	0100                	addi	x8,x2,128
     d5c:	0200                	addi	x8,x2,256
     d5e:	0104                	addi	x9,x2,128
     d60:	04090003          	lb	x0,64(x18)
     d64:	0100                	addi	x8,x2,128
     d66:	0200                	addi	x8,x2,256
     d68:	0104                	addi	x9,x2,128
     d6a:	00090203          	lb	x4,0(x18)
     d6e:	0100                	addi	x8,x2,128
     d70:	0105                	addi	x2,x2,1
     d72:	0306                	slli	x6,x6,0x1
     d74:	0901                	addi	x18,x18,0
     d76:	0000                	unimp
     d78:	0501                	addi	x10,x10,0
     d7a:	04020003          	lb	x0,64(x4) # 40 <bsg_group_size+0x3c>
     d7e:	0602                	c.slli64	x12
     d80:	18097803          	0x18097803
     d84:	0100                	addi	x8,x2,128
     d86:	0200                	addi	x8,x2,256
     d88:	0c04                	addi	x9,x2,528
     d8a:	04090003          	lb	x0,64(x18)
     d8e:	0100                	addi	x8,x2,128
     d90:	0200                	addi	x8,x2,256
     d92:	0c04                	addi	x9,x2,528
     d94:	00090003          	lb	x0,0(x18)
     d98:	0100                	addi	x8,x2,128
     d9a:	0200                	addi	x8,x2,256
     d9c:	0c04                	addi	x9,x2,528
     d9e:	00090003          	lb	x0,0(x18)
     da2:	0100                	addi	x8,x2,128
     da4:	0200                	addi	x8,x2,256
     da6:	0c04                	addi	x9,x2,528
     da8:	00090003          	lb	x0,0(x18)
     dac:	0100                	addi	x8,x2,128
     dae:	0200                	addi	x8,x2,256
     db0:	1004                	addi	x9,x2,32
     db2:	04090003          	lb	x0,64(x18)
     db6:	0100                	addi	x8,x2,128
     db8:	0200                	addi	x8,x2,256
     dba:	1004                	addi	x9,x2,32
     dbc:	00090003          	lb	x0,0(x18)
     dc0:	0100                	addi	x8,x2,128
     dc2:	0200                	addi	x8,x2,256
     dc4:	1004                	addi	x9,x2,32
     dc6:	00090003          	lb	x0,0(x18)
     dca:	0100                	addi	x8,x2,128
     dcc:	0200                	addi	x8,x2,256
     dce:	1004                	addi	x9,x2,32
     dd0:	00090003          	lb	x0,0(x18)
     dd4:	0100                	addi	x8,x2,128
     dd6:	0200                	addi	x8,x2,256
     dd8:	1004                	addi	x9,x2,32
     dda:	00090003          	lb	x0,0(x18)
     dde:	0100                	addi	x8,x2,128
     de0:	0200                	addi	x8,x2,256
     de2:	1004                	addi	x9,x2,32
     de4:	00090003          	lb	x0,0(x18)
     de8:	0100                	addi	x8,x2,128
     dea:	0200                	addi	x8,x2,256
     dec:	1004                	addi	x9,x2,32
     dee:	00090003          	lb	x0,0(x18)
     df2:	0100                	addi	x8,x2,128
     df4:	0200                	addi	x8,x2,256
     df6:	1004                	addi	x9,x2,32
     df8:	08090003          	lb	x0,128(x18)
     dfc:	0100                	addi	x8,x2,128
     dfe:	0200                	addi	x8,x2,256
     e00:	1004                	addi	x9,x2,32
     e02:	00090003          	lb	x0,0(x18)
     e06:	0100                	addi	x8,x2,128
     e08:	0200                	addi	x8,x2,256
     e0a:	1d04                	addi	x9,x2,688
     e0c:	08090003          	lb	x0,128(x18)
     e10:	0100                	addi	x8,x2,128
     e12:	0200                	addi	x8,x2,256
     e14:	1d04                	addi	x9,x2,688
     e16:	00090003          	lb	x0,0(x18)
     e1a:	0100                	addi	x8,x2,128
     e1c:	0200                	addi	x8,x2,256
     e1e:	1d04                	addi	x9,x2,688
     e20:	10090003          	lb	x0,256(x18)
     e24:	0100                	addi	x8,x2,128
     e26:	0200                	addi	x8,x2,256
     e28:	1d04                	addi	x9,x2,688
     e2a:	04090003          	lb	x0,64(x18)
     e2e:	0100                	addi	x8,x2,128
     e30:	0200                	addi	x8,x2,256
     e32:	2604                	fld	f9,8(x12)
     e34:	00090003          	lb	x0,0(x18)
     e38:	0100                	addi	x8,x2,128
     e3a:	0200                	addi	x8,x2,256
     e3c:	1e04                	addi	x9,x2,816
     e3e:	0c090003          	lb	x0,192(x18)
     e42:	0100                	addi	x8,x2,128
     e44:	0200                	addi	x8,x2,256
     e46:	1e04                	addi	x9,x2,816
     e48:	08090003          	lb	x0,128(x18)
     e4c:	0100                	addi	x8,x2,128
     e4e:	0200                	addi	x8,x2,256
     e50:	0904                	addi	x9,x2,144
     e52:	08090003          	lb	x0,128(x18)
     e56:	0100                	addi	x8,x2,128
     e58:	0200                	addi	x8,x2,256
     e5a:	0904                	addi	x9,x2,144
     e5c:	00090003          	lb	x0,0(x18)
     e60:	0100                	addi	x8,x2,128
     e62:	0200                	addi	x8,x2,256
     e64:	2704                	fld	f9,8(x14)
     e66:	08090003          	lb	x0,128(x18)
     e6a:	0100                	addi	x8,x2,128
     e6c:	0306                	slli	x6,x6,0x1
     e6e:	0900                	addi	x8,x2,144
     e70:	0008                	0x8
     e72:	0001                	nop
     e74:	0402                	c.slli64	x8
     e76:	062d                	addi	x12,x12,11
     e78:	04090003          	lb	x0,64(x18)
     e7c:	0100                	addi	x8,x2,128
     e7e:	0200                	addi	x8,x2,256
     e80:	2d04                	fld	f9,24(x10)
     e82:	00090003          	lb	x0,0(x18)
     e86:	0100                	addi	x8,x2,128
     e88:	0200                	addi	x8,x2,256
     e8a:	2d04                	fld	f9,24(x10)
     e8c:	00090003          	lb	x0,0(x18)
     e90:	0100                	addi	x8,x2,128
     e92:	0200                	addi	x8,x2,256
     e94:	2d04                	fld	f9,24(x10)
     e96:	04090003          	lb	x0,64(x18)
     e9a:	0100                	addi	x8,x2,128
     e9c:	0200                	addi	x8,x2,256
     e9e:	2d04                	fld	f9,24(x10)
     ea0:	08090003          	lb	x0,128(x18)
     ea4:	0100                	addi	x8,x2,128
     ea6:	0200                	addi	x8,x2,256
     ea8:	2d04                	fld	f9,24(x10)
     eaa:	00090003          	lb	x0,0(x18)
     eae:	0100                	addi	x8,x2,128
     eb0:	0200                	addi	x8,x2,256
     eb2:	2d04                	fld	f9,24(x10)
     eb4:	00090003          	lb	x0,0(x18)
     eb8:	0100                	addi	x8,x2,128
     eba:	0200                	addi	x8,x2,256
     ebc:	2d04                	fld	f9,24(x10)
     ebe:	00090003          	lb	x0,0(x18)
     ec2:	0100                	addi	x8,x2,128
     ec4:	0200                	addi	x8,x2,256
     ec6:	2d04                	fld	f9,24(x10)
     ec8:	00090003          	lb	x0,0(x18)
     ecc:	0100                	addi	x8,x2,128
     ece:	0306                	slli	x6,x6,0x1
     ed0:	0900                	addi	x8,x2,144
     ed2:	0004                	0x4
     ed4:	0901                	addi	x18,x18,0
     ed6:	0014                	0x14
     ed8:	0100                	addi	x8,x2,128
     eda:	cc01                	beqz	x8,ef2 <bsg_tile_group_barrier+0x14e>
     edc:	0006                	c.slli	x0,0x1
     ede:	0300                	addi	x8,x2,384
     ee0:	a100                	fsd	f8,0(x10)
     ee2:	0000                	unimp
     ee4:	0100                	addi	x8,x2,128
     ee6:	fb01                	bnez	x14,df6 <bsg_tile_group_barrier+0x52>
     ee8:	0d0e                	slli	x26,x26,0x3
     eea:	0100                	addi	x8,x2,128
     eec:	0101                	addi	x2,x2,0
     eee:	0001                	nop
     ef0:	0000                	unimp
     ef2:	0001                	nop
     ef4:	0100                	addi	x8,x2,128
     ef6:	2e2e                	fld	f28,200(x2)
     ef8:	2f2e2e2f          	0x2f2e2e2f
     efc:	2e2e                	fld	f28,200(x2)
     efe:	722f2e2f          	0x722f2e2f
     f02:	7369                	lui	x6,0xffffa
     f04:	672d7663          	bgeu	x26,x18,1570 <_tls_data+0x90>
     f08:	6c2f6363          	bltu	x30,x2,15ce <_tls_data+0xee>
     f0c:	6269                	lui	x4,0x1a
     f0e:	2f636367          	0x2f636367
     f12:	74666f73          	csrrsi	x30,0x746,12
     f16:	662d                	lui	x12,0xb
     f18:	0070                	addi	x12,x2,12
     f1a:	2e2e                	fld	f28,200(x2)
     f1c:	2f2e2e2f          	0x2f2e2e2f
     f20:	2e2e                	fld	f28,200(x2)
     f22:	722f2e2f          	0x722f2e2f
     f26:	7369                	lui	x6,0xffffa
     f28:	672d7663          	bgeu	x26,x18,1594 <_tls_data+0xb4>
     f2c:	6c2f6363          	bltu	x30,x2,15f2 <_tls_data+0x112>
     f30:	6269                	lui	x4,0x1a
     f32:	2f636367          	0x2f636367
     f36:	2e2e                	fld	f28,200(x2)
     f38:	636e692f          	0x636e692f
     f3c:	756c                	flw	f11,108(x10)
     f3e:	6564                	flw	f9,76(x10)
     f40:	0000                	unimp
     f42:	7274                	flw	f13,100(x12)
     f44:	6e75                	lui	x28,0x1d
     f46:	73666463          	bltu	x12,x22,166e <_tls_data+0x18e>
     f4a:	3266                	fld	f4,120(x2)
     f4c:	632e                	flw	f6,200(x2)
     f4e:	0100                	addi	x8,x2,128
     f50:	0000                	unimp
     f52:	74666f73          	csrrsi	x30,0x746,12
     f56:	662d                	lui	x12,0xb
     f58:	2e70                	fld	f12,216(x12)
     f5a:	0068                	addi	x10,x2,12
     f5c:	0001                	nop
     f5e:	7300                	flw	f8,32(x14)
     f60:	6e69                	lui	x28,0x1a
     f62:	2e656c67          	0x2e656c67
     f66:	0068                	addi	x10,x2,12
     f68:	0001                	nop
     f6a:	6400                	flw	f8,8(x8)
     f6c:	6c62756f          	jal	x10,28632 <_bsg_elf_vcache_size+0x8632>
     f70:	2e65                	jal	1328 <__ieee754_expf+0x1a4>
     f72:	0068                	addi	x10,x2,12
     f74:	0001                	nop
     f76:	6c00                	flw	f8,24(x8)
     f78:	6c676e6f          	jal	x28,7763e <_bsg_elf_vcache_size+0x5763e>
     f7c:	2e676e6f          	jal	x28,77262 <_bsg_elf_vcache_size+0x57262>
     f80:	0068                	addi	x10,x2,12
     f82:	0002                	c.slli64	x0
     f84:	0000                	unimp
     f86:	0105                	addi	x2,x2,1
     f88:	0500                	addi	x8,x2,640
     f8a:	d002                	sw	x0,32(x2)
     f8c:	001a                	c.slli	x0,0x6
     f8e:	0300                	addi	x8,x2,384
     f90:	0124                	addi	x9,x2,136
     f92:	0305                	addi	x6,x6,1
     f94:	00090103          	lb	x2,0(x18)
     f98:	0100                	addi	x8,x2,128
     f9a:	00090003          	lb	x0,0(x18)
     f9e:	0100                	addi	x8,x2,128
     fa0:	0d05                	addi	x26,x26,1
     fa2:	00090003          	lb	x0,0(x18)
     fa6:	0100                	addi	x8,x2,128
     fa8:	0305                	addi	x6,x6,1
     faa:	00090103          	lb	x2,0(x18)
     fae:	0100                	addi	x8,x2,128
     fb0:	00090003          	lb	x0,0(x18)
     fb4:	0100                	addi	x8,x2,128
     fb6:	00090003          	lb	x0,0(x18)
     fba:	0100                	addi	x8,x2,128
     fbc:	00090003          	lb	x0,0(x18)
     fc0:	0100                	addi	x8,x2,128
     fc2:	00090103          	lb	x2,0(x18)
     fc6:	0100                	addi	x8,x2,128
     fc8:	00090003          	lb	x0,0(x18)
     fcc:	0100                	addi	x8,x2,128
     fce:	00090003          	lb	x0,0(x18)
     fd2:	0100                	addi	x8,x2,128
     fd4:	00090003          	lb	x0,0(x18)
     fd8:	0100                	addi	x8,x2,128
     fda:	00090103          	lb	x2,0(x18)
     fde:	0100                	addi	x8,x2,128
     fe0:	00090203          	lb	x4,0(x18)
     fe4:	0100                	addi	x8,x2,128
     fe6:	00090003          	lb	x0,0(x18)
     fea:	0100                	addi	x8,x2,128
     fec:	04090003          	lb	x0,64(x18)
     ff0:	0100                	addi	x8,x2,128
     ff2:	00090103          	lb	x2,0(x18)
     ff6:	0100                	addi	x8,x2,128
     ff8:	00090003          	lb	x0,0(x18)
     ffc:	0100                	addi	x8,x2,128
     ffe:	00090003          	lb	x0,0(x18)
    1002:	0100                	addi	x8,x2,128
    1004:	00090003          	lb	x0,0(x18)
    1008:	0100                	addi	x8,x2,128
    100a:	00090003          	lb	x0,0(x18)
    100e:	0100                	addi	x8,x2,128
    1010:	00090003          	lb	x0,0(x18)
    1014:	0100                	addi	x8,x2,128
    1016:	0c090003          	lb	x0,192(x18)
    101a:	0100                	addi	x8,x2,128
    101c:	04090003          	lb	x0,64(x18)
    1020:	0100                	addi	x8,x2,128
    1022:	0306                	slli	x6,x6,0x1
    1024:	0902                	c.slli64	x18
    1026:	0004                	0x4
    1028:	0301                	addi	x6,x6,0
    102a:	097e                	slli	x18,x18,0x1f
    102c:	0004                	0x4
    102e:	0301                	addi	x6,x6,0
    1030:	0902                	c.slli64	x18
    1032:	0004                	0x4
    1034:	0301                	addi	x6,x6,0
    1036:	097e                	slli	x18,x18,0x1f
    1038:	0004                	0x4
    103a:	0601                	addi	x12,x12,0
    103c:	08090003          	lb	x0,128(x18)
    1040:	0100                	addi	x8,x2,128
    1042:	00090003          	lb	x0,0(x18)
    1046:	0100                	addi	x8,x2,128
    1048:	00090003          	lb	x0,0(x18)
    104c:	0100                	addi	x8,x2,128
    104e:	00090003          	lb	x0,0(x18)
    1052:	0100                	addi	x8,x2,128
    1054:	00090003          	lb	x0,0(x18)
    1058:	0100                	addi	x8,x2,128
    105a:	04090003          	lb	x0,64(x18)
    105e:	0100                	addi	x8,x2,128
    1060:	00090003          	lb	x0,0(x18)
    1064:	0100                	addi	x8,x2,128
    1066:	00090203          	lb	x4,0(x18)
    106a:	0100                	addi	x8,x2,128
    106c:	00090003          	lb	x0,0(x18)
    1070:	0100                	addi	x8,x2,128
    1072:	00090003          	lb	x0,0(x18)
    1076:	0100                	addi	x8,x2,128
    1078:	00090003          	lb	x0,0(x18)
    107c:	0100                	addi	x8,x2,128
    107e:	00090003          	lb	x0,0(x18)
    1082:	0100                	addi	x8,x2,128
    1084:	0200                	addi	x8,x2,256
    1086:	0104                	addi	x9,x2,128
    1088:	04090003          	lb	x0,64(x18)
    108c:	0100                	addi	x8,x2,128
    108e:	0200                	addi	x8,x2,256
    1090:	0104                	addi	x9,x2,128
    1092:	04090003          	lb	x0,64(x18)
    1096:	0100                	addi	x8,x2,128
    1098:	0200                	addi	x8,x2,256
    109a:	0304                	addi	x9,x2,384
    109c:	08090003          	lb	x0,128(x18)
    10a0:	0100                	addi	x8,x2,128
    10a2:	0200                	addi	x8,x2,256
    10a4:	0304                	addi	x9,x2,384
    10a6:	00090003          	lb	x0,0(x18)
    10aa:	0100                	addi	x8,x2,128
    10ac:	0200                	addi	x8,x2,256
    10ae:	0604                	addi	x9,x2,768
    10b0:	0306                	slli	x6,x6,0x1
    10b2:	0900                	addi	x8,x2,144
    10b4:	0004                	0x4
    10b6:	0001                	nop
    10b8:	0402                	c.slli64	x8
    10ba:	09000307          	0x9000307
    10be:	0008                	0x8
    10c0:	0301                	addi	x6,x6,0
    10c2:	0900                	addi	x8,x2,144
    10c4:	0004                	0x4
    10c6:	0301                	addi	x6,x6,0
    10c8:	0904                	addi	x9,x2,144
    10ca:	0008                	0x8
    10cc:	0301                	addi	x6,x6,0
    10ce:	097c                	addi	x15,x2,156
    10d0:	0004                	0x4
    10d2:	0001                	nop
    10d4:	0402                	c.slli64	x8
    10d6:	0625                	addi	x12,x12,9
    10d8:	04090403          	lb	x8,64(x18)
    10dc:	0100                	addi	x8,x2,128
    10de:	0200                	addi	x8,x2,256
    10e0:	2504                	fld	f9,8(x10)
    10e2:	08090003          	lb	x0,128(x18)
    10e6:	0100                	addi	x8,x2,128
    10e8:	0306                	slli	x6,x6,0x1
    10ea:	0900                	addi	x8,x2,144
    10ec:	0004                	0x4
    10ee:	0001                	nop
    10f0:	0402                	c.slli64	x8
    10f2:	0628                	addi	x10,x2,776
    10f4:	0c090003          	lb	x0,192(x18)
    10f8:	0100                	addi	x8,x2,128
    10fa:	0200                	addi	x8,x2,256
    10fc:	2804                	fld	f9,16(x8)
    10fe:	00090003          	lb	x0,0(x18)
    1102:	0100                	addi	x8,x2,128
    1104:	0200                	addi	x8,x2,256
    1106:	2c04                	fld	f9,24(x8)
    1108:	0c090003          	lb	x0,192(x18)
    110c:	0100                	addi	x8,x2,128
    110e:	0200                	addi	x8,x2,256
    1110:	3a04                	fld	f9,48(x12)
    1112:	0306                	slli	x6,x6,0x1
    1114:	0900                	addi	x8,x2,144
    1116:	0004                	0x4
    1118:	0001                	nop
    111a:	0402                	c.slli64	x8
    111c:	063c                	addi	x15,x2,776
    111e:	04090003          	lb	x0,64(x18)
    1122:	0100                	addi	x8,x2,128
    1124:	0200                	addi	x8,x2,256
    1126:	0a04                	addi	x9,x2,272
    1128:	0306                	slli	x6,x6,0x1
    112a:	097c                	addi	x15,x2,156
    112c:	0008                	0x8
    112e:	0001                	nop
    1130:	0402                	c.slli64	x8
    1132:	0900030b          	0x900030b
    1136:	0008                	0x8
    1138:	0301                	addi	x6,x6,0
    113a:	0900                	addi	x8,x2,144
    113c:	0004                	0x4
    113e:	0001                	nop
    1140:	0402                	c.slli64	x8
    1142:	063e                	slli	x12,x12,0xf
    1144:	0c090403          	lb	x8,192(x18)
    1148:	0100                	addi	x8,x2,128
    114a:	0200                	addi	x8,x2,256
    114c:	3f04                	fld	f9,56(x14)
    114e:	08090003          	lb	x0,128(x18)
    1152:	0100                	addi	x8,x2,128
    1154:	0200                	addi	x8,x2,256
    1156:	3f04                	fld	f9,56(x14)
    1158:	00090003          	lb	x0,0(x18)
    115c:	0100                	addi	x8,x2,128
    115e:	0200                	addi	x8,x2,256
    1160:	3f04                	fld	f9,56(x14)
    1162:	04090003          	lb	x0,64(x18)
    1166:	0100                	addi	x8,x2,128
    1168:	0306                	slli	x6,x6,0x1
    116a:	0900                	addi	x8,x2,144
    116c:	0008                	0x8
    116e:	0001                	nop
    1170:	0402                	c.slli64	x8
    1172:	0003064f          	fnmadd.s	f12,f6,f0,f0,rne
    1176:	0c09                	addi	x24,x24,2
    1178:	0100                	addi	x8,x2,128
    117a:	0200                	addi	x8,x2,256
    117c:	4f04                	lw	x9,24(x14)
    117e:	00090003          	lb	x0,0(x18)
    1182:	0100                	addi	x8,x2,128
    1184:	0200                	addi	x8,x2,256
    1186:	4f04                	lw	x9,24(x14)
    1188:	08090003          	lb	x0,128(x18)
    118c:	0100                	addi	x8,x2,128
    118e:	0200                	addi	x8,x2,256
    1190:	5004                	lw	x9,32(x8)
    1192:	0306                	slli	x6,x6,0x1
    1194:	0900                	addi	x8,x2,144
    1196:	0004                	0x4
    1198:	0301                	addi	x6,x6,0
    119a:	0900                	addi	x8,x2,144
    119c:	0004                	0x4
    119e:	0001                	nop
    11a0:	0402                	c.slli64	x8
    11a2:	065a                	slli	x12,x12,0x16
    11a4:	08090003          	lb	x0,128(x18)
    11a8:	0100                	addi	x8,x2,128
    11aa:	0200                	addi	x8,x2,256
    11ac:	5a04                	lw	x9,48(x12)
    11ae:	00090003          	lb	x0,0(x18)
    11b2:	0100                	addi	x8,x2,128
    11b4:	0200                	addi	x8,x2,256
    11b6:	5a04                	lw	x9,48(x12)
    11b8:	00090003          	lb	x0,0(x18)
    11bc:	0100                	addi	x8,x2,128
    11be:	0200                	addi	x8,x2,256
    11c0:	5a04                	lw	x9,48(x12)
    11c2:	00090003          	lb	x0,0(x18)
    11c6:	0100                	addi	x8,x2,128
    11c8:	0200                	addi	x8,x2,256
    11ca:	5a04                	lw	x9,48(x12)
    11cc:	00090003          	lb	x0,0(x18)
    11d0:	0100                	addi	x8,x2,128
    11d2:	0200                	addi	x8,x2,256
    11d4:	5a04                	lw	x9,48(x12)
    11d6:	00090003          	lb	x0,0(x18)
    11da:	0100                	addi	x8,x2,128
    11dc:	0200                	addi	x8,x2,256
    11de:	5a04                	lw	x9,48(x12)
    11e0:	00090003          	lb	x0,0(x18)
    11e4:	0100                	addi	x8,x2,128
    11e6:	0200                	addi	x8,x2,256
    11e8:	5a04                	lw	x9,48(x12)
    11ea:	20090003          	lb	x0,512(x18)
    11ee:	0100                	addi	x8,x2,128
    11f0:	0200                	addi	x8,x2,256
    11f2:	5a04                	lw	x9,48(x12)
    11f4:	00090003          	lb	x0,0(x18)
    11f8:	0100                	addi	x8,x2,128
    11fa:	0200                	addi	x8,x2,256
    11fc:	5a04                	lw	x9,48(x12)
    11fe:	00090003          	lb	x0,0(x18)
    1202:	0100                	addi	x8,x2,128
    1204:	0200                	addi	x8,x2,256
    1206:	5a04                	lw	x9,48(x12)
    1208:	00090103          	lb	x2,0(x18)
    120c:	0100                	addi	x8,x2,128
    120e:	0200                	addi	x8,x2,256
    1210:	5a04                	lw	x9,48(x12)
    1212:	00090003          	lb	x0,0(x18)
    1216:	0100                	addi	x8,x2,128
    1218:	0200                	addi	x8,x2,256
    121a:	0104                	addi	x9,x2,128
    121c:	04090003          	lb	x0,64(x18)
    1220:	0100                	addi	x8,x2,128
    1222:	0200                	addi	x8,x2,256
    1224:	0104                	addi	x9,x2,128
    1226:	04090003          	lb	x0,64(x18)
    122a:	0100                	addi	x8,x2,128
    122c:	0200                	addi	x8,x2,256
    122e:	0104                	addi	x9,x2,128
    1230:	00090203          	lb	x4,0(x18)
    1234:	0100                	addi	x8,x2,128
    1236:	0a05                	addi	x20,x20,1
    1238:	0200                	addi	x8,x2,256
    123a:	0104                	addi	x9,x2,128
    123c:	0306                	slli	x6,x6,0x1
    123e:	0900                	addi	x8,x2,144
    1240:	0000                	unimp
    1242:	0501                	addi	x10,x10,0
    1244:	04020003          	lb	x0,64(x4) # 1a040 <_bsg_elf_stack_ptr+0x18044>
    1248:	0604                	addi	x9,x2,768
    124a:	04097903          	0x4097903
    124e:	0100                	addi	x8,x2,128
    1250:	0200                	addi	x8,x2,256
    1252:	1104                	addi	x9,x2,160
    1254:	04090003          	lb	x0,64(x18)
    1258:	0100                	addi	x8,x2,128
    125a:	0200                	addi	x8,x2,256
    125c:	1404                	addi	x9,x2,544
    125e:	08090003          	lb	x0,128(x18)
    1262:	0100                	addi	x8,x2,128
    1264:	0200                	addi	x8,x2,256
    1266:	1404                	addi	x9,x2,544
    1268:	0c090003          	lb	x0,192(x18)
    126c:	0100                	addi	x8,x2,128
    126e:	0200                	addi	x8,x2,256
    1270:	1604                	addi	x9,x2,800
    1272:	0c090003          	lb	x0,192(x18)
    1276:	0100                	addi	x8,x2,128
    1278:	0200                	addi	x8,x2,256
    127a:	1604                	addi	x9,x2,800
    127c:	1c090003          	lb	x0,448(x18)
    1280:	0100                	addi	x8,x2,128
    1282:	0200                	addi	x8,x2,256
    1284:	0104                	addi	x9,x2,128
    1286:	0306                	slli	x6,x6,0x1
    1288:	0904                	addi	x9,x2,144
    128a:	0000                	unimp
    128c:	0601                	addi	x12,x12,0
    128e:	04090003          	lb	x0,64(x18)
    1292:	0100                	addi	x8,x2,128
    1294:	00090003          	lb	x0,0(x18)
    1298:	0100                	addi	x8,x2,128
    129a:	00090003          	lb	x0,0(x18)
    129e:	0100                	addi	x8,x2,128
    12a0:	00090003          	lb	x0,0(x18)
    12a4:	0100                	addi	x8,x2,128
    12a6:	00090003          	lb	x0,0(x18)
    12aa:	0100                	addi	x8,x2,128
    12ac:	00090003          	lb	x0,0(x18)
    12b0:	0100                	addi	x8,x2,128
    12b2:	00090003          	lb	x0,0(x18)
    12b6:	0100                	addi	x8,x2,128
    12b8:	00090003          	lb	x0,0(x18)
    12bc:	0100                	addi	x8,x2,128
    12be:	00090003          	lb	x0,0(x18)
    12c2:	0100                	addi	x8,x2,128
    12c4:	00090003          	lb	x0,0(x18)
    12c8:	0100                	addi	x8,x2,128
    12ca:	00090003          	lb	x0,0(x18)
    12ce:	0100                	addi	x8,x2,128
    12d0:	04090003          	lb	x0,64(x18)
    12d4:	0100                	addi	x8,x2,128
    12d6:	00090003          	lb	x0,0(x18)
    12da:	0100                	addi	x8,x2,128
    12dc:	00090003          	lb	x0,0(x18)
    12e0:	0100                	addi	x8,x2,128
    12e2:	0c090003          	lb	x0,192(x18)
    12e6:	0100                	addi	x8,x2,128
    12e8:	00090003          	lb	x0,0(x18)
    12ec:	0100                	addi	x8,x2,128
    12ee:	0200                	addi	x8,x2,256
    12f0:	1004                	addi	x9,x2,32
    12f2:	18090003          	lb	x0,384(x18)
    12f6:	0100                	addi	x8,x2,128
    12f8:	0200                	addi	x8,x2,256
    12fa:	1004                	addi	x9,x2,32
    12fc:	00090003          	lb	x0,0(x18)
    1300:	0100                	addi	x8,x2,128
    1302:	0200                	addi	x8,x2,256
    1304:	1404                	addi	x9,x2,544
    1306:	0c090003          	lb	x0,192(x18)
    130a:	0100                	addi	x8,x2,128
    130c:	0200                	addi	x8,x2,256
    130e:	1704                	addi	x9,x2,928
    1310:	04090003          	lb	x0,64(x18)
    1314:	0100                	addi	x8,x2,128
    1316:	0200                	addi	x8,x2,256
    1318:	1704                	addi	x9,x2,928
    131a:	00090003          	lb	x0,0(x18)
    131e:	0100                	addi	x8,x2,128
    1320:	0200                	addi	x8,x2,256
    1322:	1704                	addi	x9,x2,928
    1324:	14097c03          	0x14097c03
    1328:	0100                	addi	x8,x2,128
    132a:	0200                	addi	x8,x2,256
    132c:	1f04                	addi	x9,x2,944
    132e:	0306                	slli	x6,x6,0x1
    1330:	0900                	addi	x8,x2,144
    1332:	0018                	0x18
    1334:	0001                	nop
    1336:	0402                	c.slli64	x8
    1338:	0322                	slli	x6,x6,0x8
    133a:	0900                	addi	x8,x2,144
    133c:	0008                	0x8
    133e:	0001                	nop
    1340:	0402                	c.slli64	x8
    1342:	0622                	slli	x12,x12,0x8
    1344:	0c090003          	lb	x0,192(x18)
    1348:	0100                	addi	x8,x2,128
    134a:	0200                	addi	x8,x2,256
    134c:	1204                	addi	x9,x2,288
    134e:	04090003          	lb	x0,64(x18)
    1352:	0100                	addi	x8,x2,128
    1354:	0200                	addi	x8,x2,256
    1356:	1204                	addi	x9,x2,288
    1358:	00090003          	lb	x0,0(x18)
    135c:	0100                	addi	x8,x2,128
    135e:	0200                	addi	x8,x2,256
    1360:	1204                	addi	x9,x2,288
    1362:	18090003          	lb	x0,384(x18)
    1366:	0100                	addi	x8,x2,128
    1368:	0200                	addi	x8,x2,256
    136a:	1204                	addi	x9,x2,288
    136c:	00090003          	lb	x0,0(x18)
    1370:	0100                	addi	x8,x2,128
    1372:	0200                	addi	x8,x2,256
    1374:	1204                	addi	x9,x2,288
    1376:	00090003          	lb	x0,0(x18)
    137a:	0100                	addi	x8,x2,128
    137c:	0200                	addi	x8,x2,256
    137e:	1204                	addi	x9,x2,288
    1380:	00090403          	lb	x8,0(x18)
    1384:	0100                	addi	x8,x2,128
    1386:	0200                	addi	x8,x2,256
    1388:	1204                	addi	x9,x2,288
    138a:	00090003          	lb	x0,0(x18)
    138e:	0100                	addi	x8,x2,128
    1390:	0200                	addi	x8,x2,256
    1392:	1204                	addi	x9,x2,288
    1394:	00090003          	lb	x0,0(x18)
    1398:	0100                	addi	x8,x2,128
    139a:	0200                	addi	x8,x2,256
    139c:	1204                	addi	x9,x2,288
    139e:	0306                	slli	x6,x6,0x1
    13a0:	0974                	addi	x13,x2,156
    13a2:	0004                	0x4
    13a4:	0001                	nop
    13a6:	0402                	c.slli64	x8
    13a8:	0624                	addi	x9,x2,776
    13aa:	04090c03          	lb	x24,64(x18)
    13ae:	0100                	addi	x8,x2,128
    13b0:	0200                	addi	x8,x2,256
    13b2:	2404                	fld	f9,8(x8)
    13b4:	00090003          	lb	x0,0(x18)
    13b8:	0100                	addi	x8,x2,128
    13ba:	0200                	addi	x8,x2,256
    13bc:	2f04                	fld	f9,24(x14)
    13be:	08090003          	lb	x0,128(x18)
    13c2:	0100                	addi	x8,x2,128
    13c4:	0200                	addi	x8,x2,256
    13c6:	2f04                	fld	f9,24(x14)
    13c8:	00090003          	lb	x0,0(x18)
    13cc:	0100                	addi	x8,x2,128
    13ce:	0200                	addi	x8,x2,256
    13d0:	3a04                	fld	f9,48(x12)
    13d2:	04090003          	lb	x0,64(x18)
    13d6:	0100                	addi	x8,x2,128
    13d8:	0200                	addi	x8,x2,256
    13da:	0204                	addi	x9,x2,256
    13dc:	08097c03          	0x8097c03
    13e0:	0100                	addi	x8,x2,128
    13e2:	0200                	addi	x8,x2,256
    13e4:	2a04                	fld	f9,16(x12)
    13e6:	08090003          	lb	x0,128(x18)
    13ea:	0100                	addi	x8,x2,128
    13ec:	0200                	addi	x8,x2,256
    13ee:	2a04                	fld	f9,16(x12)
    13f0:	00090003          	lb	x0,0(x18)
    13f4:	0100                	addi	x8,x2,128
    13f6:	0200                	addi	x8,x2,256
    13f8:	2a04                	fld	f9,16(x12)
    13fa:	00090003          	lb	x0,0(x18)
    13fe:	0100                	addi	x8,x2,128
    1400:	0200                	addi	x8,x2,256
    1402:	2a04                	fld	f9,16(x12)
    1404:	00090003          	lb	x0,0(x18)
    1408:	0100                	addi	x8,x2,128
    140a:	0200                	addi	x8,x2,256
    140c:	2a04                	fld	f9,16(x12)
    140e:	00090003          	lb	x0,0(x18)
    1412:	0100                	addi	x8,x2,128
    1414:	0200                	addi	x8,x2,256
    1416:	2704                	fld	f9,8(x14)
    1418:	08090003          	lb	x0,128(x18)
    141c:	0100                	addi	x8,x2,128
    141e:	0200                	addi	x8,x2,256
    1420:	2704                	fld	f9,8(x14)
    1422:	00090003          	lb	x0,0(x18)
    1426:	0100                	addi	x8,x2,128
    1428:	0200                	addi	x8,x2,256
    142a:	3004                	fld	f9,32(x8)
    142c:	04090003          	lb	x0,64(x18)
    1430:	0100                	addi	x8,x2,128
    1432:	0200                	addi	x8,x2,256
    1434:	3004                	fld	f9,32(x8)
    1436:	00090003          	lb	x0,0(x18)
    143a:	0100                	addi	x8,x2,128
    143c:	0200                	addi	x8,x2,256
    143e:	3004                	fld	f9,32(x8)
    1440:	0306                	slli	x6,x6,0x1
    1442:	0978                	addi	x14,x2,156
    1444:	0004                	0x4
    1446:	0001                	nop
    1448:	0402                	c.slli64	x8
    144a:	0330                	addi	x12,x2,392
    144c:	0908                	addi	x10,x2,144
    144e:	0004                	0x4
    1450:	0001                	nop
    1452:	0402                	c.slli64	x8
    1454:	0334                	addi	x13,x2,392
    1456:	0900                	addi	x8,x2,144
    1458:	0004                	0x4
    145a:	0001                	nop
    145c:	0402                	c.slli64	x8
    145e:	0334                	addi	x13,x2,392
    1460:	0978                	addi	x14,x2,156
    1462:	0008                	0x8
    1464:	0001                	nop
    1466:	0402                	c.slli64	x8
    1468:	0638                	addi	x14,x2,776
    146a:	08090803          	lb	x16,128(x18)
    146e:	0100                	addi	x8,x2,128
    1470:	0200                	addi	x8,x2,256
    1472:	3804                	fld	f9,48(x8)
    1474:	00090003          	lb	x0,0(x18)
    1478:	0100                	addi	x8,x2,128
    147a:	0200                	addi	x8,x2,256
    147c:	3804                	fld	f9,48(x8)
    147e:	00090003          	lb	x0,0(x18)
    1482:	0100                	addi	x8,x2,128
    1484:	0200                	addi	x8,x2,256
    1486:	3804                	fld	f9,48(x8)
    1488:	00090003          	lb	x0,0(x18)
    148c:	0100                	addi	x8,x2,128
    148e:	0200                	addi	x8,x2,256
    1490:	3804                	fld	f9,48(x8)
    1492:	00090003          	lb	x0,0(x18)
    1496:	0100                	addi	x8,x2,128
    1498:	0200                	addi	x8,x2,256
    149a:	3804                	fld	f9,48(x8)
    149c:	00090003          	lb	x0,0(x18)
    14a0:	0100                	addi	x8,x2,128
    14a2:	0200                	addi	x8,x2,256
    14a4:	3804                	fld	f9,48(x8)
    14a6:	04090003          	lb	x0,64(x18)
    14aa:	0100                	addi	x8,x2,128
    14ac:	0200                	addi	x8,x2,256
    14ae:	3804                	fld	f9,48(x8)
    14b0:	00090003          	lb	x0,0(x18)
    14b4:	0100                	addi	x8,x2,128
    14b6:	0200                	addi	x8,x2,256
    14b8:	3804                	fld	f9,48(x8)
    14ba:	00090003          	lb	x0,0(x18)
    14be:	0100                	addi	x8,x2,128
{
    14c0:	0306                	slli	x6,x6,0x1
    14c2:	0900                	addi	x8,x2,144
    14c4:	0010                	0x10
    14c6:	0001                	nop
    14c8:	0402                	c.slli64	x8
    14ca:	04030613          	addi	x12,x6,64 # ffffa040 <_end+0x7eff9fe0>
    14ce:	0809                	addi	x16,x16,2
    14d0:	0100                	addi	x8,x2,128
    14d2:	0200                	addi	x8,x2,256
    14d4:	1304                	addi	x9,x2,416
    14d6:	00090003          	lb	x0,0(x18)
    14da:	0100                	addi	x8,x2,128
    14dc:	0200                	addi	x8,x2,256
    14de:	1a04                	addi	x9,x2,304
    14e0:	08090003          	lb	x0,128(x18)
    14e4:	0100                	addi	x8,x2,128
    14e6:	0200                	addi	x8,x2,256
    14e8:	1204                	addi	x9,x2,288
    14ea:	0c090003          	lb	x0,192(x18)
  FP_INIT_ROUNDMODE;
    14ee:	0100                	addi	x8,x2,128
  FP_UNPACK_S (A, a);
    14f0:	0200                	addi	x8,x2,256
    14f2:	1204                	addi	x9,x2,288
    14f4:	00090003          	lb	x0,0(x18)
    14f8:	0100                	addi	x8,x2,128
    14fa:	0200                	addi	x8,x2,256
    14fc:	1f04                	addi	x9,x2,944
    14fe:	08090003          	lb	x0,128(x18)
    1502:	0100                	addi	x8,x2,128
    1504:	0306                	slli	x6,x6,0x1
    1506:	0974                	addi	x13,x2,156
    1508:	000c                	0xc
    150a:	0301                	addi	x6,x6,0
    150c:	0908                	addi	x10,x2,144
    150e:	0004                	0x4
    1510:	0001                	nop
    1512:	0402                	c.slli64	x8
    1514:	0403062b          	0x403062b
    1518:	1409                	addi	x8,x8,-30
    151a:	0100                	addi	x8,x2,128
    151c:	0200                	addi	x8,x2,256
    151e:	2b04                	fld	f9,16(x14)
    1520:	00090003          	lb	x0,0(x18)
  FP_DECL_EX;
    1524:	0100                	addi	x8,x2,128
    1526:	0200                	addi	x8,x2,256
    1528:	3704                	fld	f9,40(x14)
    152a:	04090003          	lb	x0,64(x18)
  FP_UNPACK_S (A, a);
    152e:	0100                	addi	x8,x2,128
    1530:	0200                	addi	x8,x2,256
    1532:	2a04                	fld	f9,16(x12)
    1534:	08090003          	lb	x0,128(x18)
    1538:	0100                	addi	x8,x2,128
    153a:	0200                	addi	x8,x2,256
    153c:	2a04                	fld	f9,16(x12)
    153e:	00090003          	lb	x0,0(x18)
    1542:	0100                	addi	x8,x2,128
    1544:	0200                	addi	x8,x2,256
    1546:	4104                	lw	x9,0(x10)
    1548:	08090003          	lb	x0,128(x18)
    154c:	0100                	addi	x8,x2,128
    154e:	0200                	addi	x8,x2,256
    1550:	4104                	lw	x9,0(x10)
    1552:	00090003          	lb	x0,0(x18)
    1556:	0100                	addi	x8,x2,128
    1558:	0200                	addi	x8,x2,256
    155a:	4404                	lw	x9,8(x8)
    155c:	0306                	slli	x6,x6,0x1
    155e:	0900                	addi	x8,x2,144
    1560:	0008                	0x8
    1562:	0001                	nop
  FP_UNPACK_S (B, b);
    1564:	0402                	c.slli64	x8
    1566:	0345                	addi	x6,x6,17
    1568:	0900                	addi	x8,x2,144
    156a:	0008                	0x8
    156c:	0301                	addi	x6,x6,0
    156e:	0900                	addi	x8,x2,144
    1570:	0004                	0x4
    1572:	0001                	nop
    1574:	0402                	c.slli64	x8
    1576:	0348                	addi	x10,x2,388
    1578:	0900                	addi	x8,x2,144
    157a:	000c                	0xc
    157c:	0001                	nop
    157e:	0402                	c.slli64	x8
    1580:	0349                	addi	x6,x6,18
    1582:	0900                	addi	x8,x2,144
    1584:	0008                	0x8
    1586:	0001                	nop
    1588:	0402                	c.slli64	x8
    158a:	064e                	slli	x12,x12,0x13
    158c:	04090003          	lb	x0,64(x18)
    1590:	0100                	addi	x8,x2,128
    1592:	0200                	addi	x8,x2,256
    1594:	4e04                	lw	x9,24(x12)
    1596:	00090003          	lb	x0,0(x18)
  FP_DIV_S (R, A, B);
    159a:	0100                	addi	x8,x2,128
    159c:	0105                	addi	x2,x2,1
    159e:	0306                	slli	x6,x6,0x1
    15a0:	0904                	addi	x9,x2,144
    15a2:	0008                	0x8
    15a4:	0901                	addi	x18,x18,0
    15a6:	0004                	0x4
    15a8:	0100                	addi	x8,x2,128
    15aa:	1601                	addi	x12,x12,-32
    15ac:	03000003          	lb	x0,48(x0) # 30 <bsg_group_size+0x2c>
    15b0:	8400                	0x8400
    15b2:	0002                	c.slli64	x0
    15b4:	0100                	addi	x8,x2,128
    15b6:	fb01                	bnez	x14,14c6 <_impure_ptr+0x2>
    15b8:	0d0e                	slli	x26,x26,0x3
    15ba:	0100                	addi	x8,x2,128
    15bc:	0101                	addi	x2,x2,0
    15be:	0001                	nop
    15c0:	0000                	unimp
    15c2:	0001                	nop
    15c4:	0100                	addi	x8,x2,128
    15c6:	2e2e                	fld	f28,200(x2)
    15c8:	2f2e2e2f          	0x2f2e2e2f
    15cc:	2e2e                	fld	f28,200(x2)
    15ce:	722f2e2f          	0x722f2e2f
  FP_UNPACK_S (A, a);
    15d2:	7369                	lui	x6,0xffffa
    15d4:	672d7663          	bgeu	x26,x18,1c40 <_gp+0x18>
    15d8:	6c2f6363          	bltu	x30,x2,1c9e <_gp+0x76>
    15dc:	6269                	lui	x4,0x1a
    15de:	00636367          	0x636367
    15e2:	6d6f682f          	0x6d6f682f
  FP_UNPACK_S (B, b);
    15e6:	2f65                	jal	1d9e <_gp+0x176>
    15e8:	746e6563          	bltu	x28,x6,1d32 <_gp+0x10a>
    15ec:	622f736f          	jal	x6,f8c0e <_bsg_elf_vcache_size+0xd8c0e>
    15f0:	625f6773          	csrrsi	x14,0x625,30
    15f4:	616c                	flw	f11,68(x10)
    15f6:	6564                	flw	f9,76(x10)
    15f8:	7572                	flw	f10,60(x2)
    15fa:	6e6e                	flw	f28,216(x2)
    15fc:	7265                	lui	x4,0xffff9
    15fe:	6773622f          	0x6773622f
    1602:	6d5f 6e61 6379      	0x63796e616d5f
    1608:	2f65726f          	jal	x4,588fe <_bsg_elf_vcache_size+0x388fe>
    160c:	74666f73          	csrrsi	x30,0x746,12
    1610:	65726177          	0x65726177
    1614:	7369722f          	0x7369722f
    1618:	742d7663          	bgeu	x26,x2,1d64 <_gp+0x13c>
    161c:	736c6f6f          	jal	x30,c7d52 <_bsg_elf_vcache_size+0xa7d52>
    1620:	7369722f          	0x7369722f
    1624:	692d7663          	bgeu	x26,x18,1cb0 <_gp+0x88>
    1628:	736e                	flw	f6,248(x2)
    162a:	6174                	flw	f13,68(x10)
    162c:	6c6c                	flw	f11,92(x8)
    162e:	7369722f          	0x7369722f
    1632:	32337663          	bgeu	x6,x3,195e <_bsg_data_end_addr+0x13e>
    1636:	752d                	lui	x10,0xfffeb
    1638:	6b6e                	flw	f22,216(x2)
    163a:	6f6e                	flw	f30,216(x2)
    163c:	652d6e77          	0x652d6e77
    1640:	666c                	flw	f11,76(x12)
    1642:	636e692f          	0x636e692f
  FP_DIV_S (R, A, B);
    1646:	756c                	flw	f11,108(x10)
    1648:	6564                	flw	f9,76(x10)
    164a:	7379732f          	0x7379732f
    164e:	2f00                	fld	f8,24(x14)
    1650:	6f68                	flw	f10,92(x14)
    1652:	656d                	lui	x10,0x1b
    1654:	6e65632f          	0x6e65632f
    1658:	6f74                	flw	f13,92(x14)
    165a:	73622f73          	csrrs	x30,0x736,x4
    165e:	6c625f67          	0x6c625f67
    1662:	6461                	lui	x8,0x18
    1664:	7265                	lui	x4,0xffff9
    1666:	6e75                	lui	x28,0x1d
    1668:	656e                	flw	f10,216(x2)
    166a:	2f72                	fld	f30,280(x2)
    166c:	7362                	flw	f6,56(x2)
    166e:	616d5f67          	0x616d5f67
    1672:	796e                	flw	f18,248(x2)
    1674:	65726f63          	bltu	x4,x23,1cd2 <_gp+0xaa>
    1678:	666f732f          	0x666f732f
    167c:	7774                	flw	f13,108(x14)
    167e:	7261                	lui	x4,0xffff8
    1680:	2f65                	jal	1e38 <__init_param+0x18>
    1682:	6972                	flw	f18,28(x2)
    1684:	2d766373          	csrrsi	x6,0x2d7,12
    1688:	6f74                	flw	f13,92(x14)
    168a:	2f736c6f          	jal	x24,38180 <_bsg_elf_vcache_size+0x18180>
    168e:	6972                	flw	f18,28(x2)
    1690:	2d766373          	csrrsi	x6,0x2d7,12
    1694:	2d756e67          	0x2d756e67
    1698:	6f74                	flw	f13,92(x14)
    169a:	68636c6f          	jal	x24,37d20 <_bsg_elf_vcache_size+0x17d20>
    169e:	6961                	lui	x18,0x18
    16a0:	2f6e                	fld	f30,216(x2)
    16a2:	7562                	flw	f10,56(x2)
    16a4:	6c69                	lui	x24,0x1a
    16a6:	2d64                	fld	f9,216(x10)
    16a8:	2d636367          	0x2d636367
    16ac:	656e                	flw	f10,216(x2)
    16ae:	62696c77          	0x62696c77
    16b2:	732d                	lui	x6,0xfffeb
    16b4:	6174                	flw	f13,68(x10)
    16b6:	2f326567          	0x2f326567
    16ba:	2f636367          	0x2f636367
    16be:	6e69                	lui	x28,0x1a
    16c0:	64756c63          	bltu	x10,x7,1d18 <_gp+0xf0>
    16c4:	0065                	c.nop	25
    16c6:	6d6f682f          	0x6d6f682f
    16ca:	2f65                	jal	1e82 <__load_argument+0x32>
    16cc:	746e6563          	bltu	x28,x6,1e16 <main+0x12>
    16d0:	622f736f          	jal	x6,f8cf2 <_bsg_elf_vcache_size+0xd8cf2>
    16d4:	625f6773          	csrrsi	x14,0x625,30
    16d8:	616c                	flw	f11,68(x10)
    16da:	6564                	flw	f9,76(x10)
    16dc:	7572                	flw	f10,60(x2)
    16de:	6e6e                	flw	f28,216(x2)
    16e0:	7265                	lui	x4,0xffff9
    16e2:	6773622f          	0x6773622f
  FP_PACK_S (r, R);
    16e6:	6d5f 6e61 6379      	0x63796e616d5f
    16ec:	2f65726f          	jal	x4,589e2 <_bsg_elf_vcache_size+0x389e2>
    16f0:	74666f73          	csrrsi	x30,0x746,12
    16f4:	65726177          	0x65726177
    16f8:	7369722f          	0x7369722f
    16fc:	742d7663          	bgeu	x26,x2,1e48 <__init_param+0x28>
    1700:	736c6f6f          	jal	x30,c7e36 <_bsg_elf_vcache_size+0xa7e36>
    1704:	7369722f          	0x7369722f
    1708:	692d7663          	bgeu	x26,x18,1d94 <_gp+0x16c>
    170c:	736e                	flw	f6,248(x2)
    170e:	6174                	flw	f13,68(x10)
    1710:	6c6c                	flw	f11,92(x8)
    1712:	7369722f          	0x7369722f
    1716:	32337663          	bgeu	x6,x3,1a42 <__extendsfdf2+0x7a>
    171a:	752d                	lui	x10,0xfffeb
    171c:	6b6e                	flw	f22,216(x2)
    171e:	6f6e                	flw	f30,216(x2)
    1720:	652d6e77          	0x652d6e77
    1724:	666c                	flw	f11,76(x12)
    1726:	636e692f          	0x636e692f
    172a:	756c                	flw	f11,108(x10)
    172c:	6564                	flw	f9,76(x10)
    172e:	2e00                	fld	f8,24(x12)
    1730:	2f2e                	fld	f30,200(x2)
    1732:	2e2e                	fld	f28,200(x2)
    1734:	2f2e2e2f          	0x2f2e2e2f
    1738:	2f2e                	fld	f30,200(x2)
    173a:	6972                	flw	f18,28(x2)
    173c:	2d766373          	csrrsi	x6,0x2d7,12
    1740:	2f636367          	0x2f636367
    1744:	696c                	flw	f11,84(x10)
    1746:	6762                	flw	f14,24(x2)
    1748:	2e2f6363          	bltu	x30,x2,1a2e <__extendsfdf2+0x66>
    174c:	2f2e                	fld	f30,200(x2)
    174e:	6e69                	lui	x28,0x1a
    1750:	64756c63          	bltu	x10,x7,1da8 <_gp+0x180>
    1754:	0065                	c.nop	25
    1756:	2e2e                	fld	f28,200(x2)
    1758:	2f2e2e2f          	0x2f2e2e2f
    175c:	2e2e                	fld	f28,200(x2)
    175e:	722f2e2f          	0x722f2e2f
    1762:	7369                	lui	x6,0xffffa
  FP_HANDLE_EXCEPTIONS;
    1764:	672d7663          	bgeu	x26,x18,1dd0 <__clzsi2+0x24>
    1768:	6c2f6363          	bltu	x30,x2,1e2e <__init_param+0xe>
}
    176c:	6269                	lui	x4,0x1a
    176e:	2f636367          	0x2f636367
    1772:	2e2e                	fld	f28,200(x2)
    1774:	6363672f          	0x6363672f
    1778:	6e6f632f          	0x6e6f632f
    177c:	6966                	flw	f18,88(x2)
    177e:	69722f67          	0x69722f67
    1782:	00766373          	csrrsi	x6,0x7,12
    1786:	2e2e                	fld	f28,200(x2)
    1788:	2f2e2e2f          	0x2f2e2e2f
    178c:	2f2e                	fld	f30,200(x2)
    178e:	00636367          	0x636367
    1792:	6c00                	flw	f8,24(x8)
    1794:	6269                	lui	x4,0x1a
    1796:	32636367          	0x32636367
  FP_DIV_S (R, A, B);
    179a:	632e                	flw	f6,200(x2)
    179c:	0100                	addi	x8,x2,128
    179e:	0000                	unimp
    17a0:	6f6c                	flw	f11,92(x14)
    17a2:	682e6b63          	bltu	x28,x2,1e38 <__init_param+0x18>
  FP_UNPACK_S (A, a);
    17a6:	0200                	addi	x8,x2,256
  FP_DIV_S (R, A, B);
    17a8:	0000                	unimp
    17aa:	745f 7079 7365      	0x73657079745f
  FP_PACK_S (r, R);
    17b0:	682e                	flw	f16,200(x2)
    17b2:	0200                	addi	x8,x2,256
    17b4:	0000                	unimp
    17b6:	64647473          	csrrci	x8,0x646,8
    17ba:	6665                	lui	x12,0x19
    17bc:	682e                	flw	f16,200(x2)
    17be:	0300                	addi	x8,x2,384
    17c0:	0000                	unimp
    17c2:	6572                	flw	f10,28(x2)
    17c4:	6e65                	lui	x28,0x19
    17c6:	2e74                	fld	f13,216(x12)
    17c8:	0068                	addi	x10,x2,12
    17ca:	0002                	c.slli64	x0
  FP_UNPACK_S (B, b);
    17cc:	6500                	flw	f8,8(x10)
    17ce:	7272                	flw	f4,60(x2)
  FP_DIV_S (R, A, B);
    17d0:	6f6e                	flw	f30,216(x2)
    17d2:	682e                	flw	f16,200(x2)
    17d4:	0200                	addi	x8,x2,256
    17d6:	0000                	unimp
  FP_PACK_S (r, R);
    17d8:	6c647473          	csrrci	x8,0x6c6,8
    17dc:	6269                	lui	x4,0x1a
    17de:	682e                	flw	f16,200(x2)
    17e0:	0400                	addi	x8,x2,512
    17e2:	0000                	unimp
  FP_DIV_S (R, A, B);
    17e4:	6e75                	lui	x28,0x1d
    17e6:	7369                	lui	x6,0xffffa
    17e8:	6474                	flw	f13,76(x8)
    17ea:	682e                	flw	f16,200(x2)
    17ec:	0200                	addi	x8,x2,256
    17ee:	0000                	unimp
    17f0:	6974                	flw	f13,84(x10)
    17f2:	656d                	lui	x10,0x1b
  FP_PACK_S (r, R);
    17f4:	682e                	flw	f16,200(x2)
    17f6:	0400                	addi	x8,x2,512
    17f8:	0000                	unimp
    17fa:	6168                	flw	f10,68(x10)
    17fc:	61746873          	csrrsi	x16,0x617,8
    1800:	2e62                	fld	f28,24(x2)
    1802:	0068                	addi	x10,x2,12
    1804:	0005                	c.nop	1
    1806:	7200                	flw	f8,32(x12)
    1808:	7369                	lui	x6,0xffffa
    180a:	6f2d7663          	bgeu	x26,x18,1ef6 <__kernel_return+0x2e>
    180e:	7470                	flw	f12,108(x8)
    1810:	00682e73          	csrrs	x28,0x6,x16
    1814:	0006                	c.slli	x0,0x1
    1816:	6900                	flw	f8,16(x10)
    1818:	736e                	flw	f6,248(x2)
    181a:	2d6e                	fld	f26,216(x2)
    181c:	736e6f63          	bltu	x28,x22,1f5a <__kernel_return+0x92>
    1820:	6174                	flw	f13,68(x10)
    1822:	746e                	flw	f8,248(x2)
    1824:	00682e73          	csrrs	x28,0x6,x16
    1828:	6c000007          	0x6c000007
    182c:	6269                	lui	x4,0x1a
    182e:	32636367          	0x32636367
    1832:	682e                	flw	f16,200(x2)
    1834:	0100                	addi	x8,x2,128
    1836:	0000                	unimp
    1838:	0500                	addi	x8,x2,640
    183a:	0001                	nop
    183c:	0205                	addi	x4,x4,1
    183e:	1dac                	addi	x11,x2,760
    1840:	0000                	unimp
    1842:	0105c203          	lbu	x4,16(x11)
    1846:	0305                	addi	x6,x6,1
    1848:	00090103          	lb	x2,0(x18) # 18000 <_bsg_elf_stack_ptr+0x16004>
    184c:	0100                	addi	x8,x2,128
    184e:	00090203          	lb	x4,0(x18)
    1852:	0100                	addi	x8,x2,128
    1854:	00090003          	lb	x0,0(x18)
    1858:	0100                	addi	x8,x2,128
    185a:	00090003          	lb	x0,0(x18)
    185e:	0100                	addi	x8,x2,128
    1860:	00090003          	lb	x0,0(x18)
    1864:	0100                	addi	x8,x2,128
    1866:	00090003          	lb	x0,0(x18)
    186a:	0100                	addi	x8,x2,128
    186c:	0200                	addi	x8,x2,256
    186e:	0304                	addi	x9,x2,384
    1870:	0306                	slli	x6,x6,0x1
    1872:	0900                	addi	x8,x2,144
    1874:	0008                	0x8
    1876:	0001                	nop
    1878:	0402                	c.slli64	x8
    187a:	060e                	slli	x12,x12,0x3
    187c:	0c090003          	lb	x0,192(x18)
    1880:	0100                	addi	x8,x2,128
    1882:	0200                	addi	x8,x2,256
    1884:	0e04                	addi	x9,x2,784
    1886:	00090003          	lb	x0,0(x18)
    188a:	0100                	addi	x8,x2,128
    188c:	0200                	addi	x8,x2,256
    188e:	0e04                	addi	x9,x2,784
    1890:	00090203          	lb	x4,0(x18)
    1894:	0100                	addi	x8,x2,128
    1896:	0200                	addi	x8,x2,256
    1898:	0e04                	addi	x9,x2,784
    189a:	0306                	slli	x6,x6,0x1
    189c:	097e                	slli	x18,x18,0x1f
    189e:	0000                	unimp
    18a0:	0501                	addi	x10,x10,0
    18a2:	0001                	nop
    18a4:	0402                	c.slli64	x8
    18a6:	030e                	slli	x6,x6,0x3
    18a8:	001c0903          	lb	x18,1(x24) # 1a001 <_bsg_elf_stack_ptr+0x18005>
    18ac:	0501                	addi	x10,x10,0
    18ae:	04020003          	lb	x0,64(x4) # 1a040 <_bsg_elf_stack_ptr+0x18044>
    18b2:	0304                	addi	x9,x2,384
    18b4:	097d                	addi	x18,x18,31
    18b6:	0008                	0x8
    18b8:	0301                	addi	x6,x6,0
    18ba:	0900                	addi	x8,x2,144
    18bc:	000c                	0xc
    18be:	0901                	addi	x18,x18,0
    18c0:	0008                	0x8
    18c2:	0100                	addi	x8,x2,128
    18c4:	8a01                	andi	x12,x12,0
    18c6:	0002                	c.slli64	x0
    18c8:	0300                	addi	x8,x2,384
    18ca:	8400                	0x8400
    18cc:	0002                	c.slli64	x0
    18ce:	0100                	addi	x8,x2,128
    18d0:	fb01                	bnez	x14,17e0 <__clz_tab+0xc0>
    18d2:	0d0e                	slli	x26,x26,0x3
    18d4:	0100                	addi	x8,x2,128
    18d6:	0101                	addi	x2,x2,0
    18d8:	0001                	nop
    18da:	0000                	unimp
    18dc:	0001                	nop
    18de:	0100                	addi	x8,x2,128
    18e0:	6d6f682f          	0x6d6f682f
    18e4:	2f65                	jal	209c <_bsg_elf_stack_ptr+0xa0>
    18e6:	746e6563          	bltu	x28,x6,2030 <_bsg_elf_stack_ptr+0x34>
    18ea:	622f736f          	jal	x6,f8f0c <_bsg_elf_vcache_size+0xd8f0c>
    18ee:	625f6773          	csrrsi	x14,0x625,30
    18f2:	616c                	flw	f11,68(x10)
    18f4:	6564                	flw	f9,76(x10)
    18f6:	7572                	flw	f10,60(x2)
    18f8:	6e6e                	flw	f28,216(x2)
    18fa:	7265                	lui	x4,0xffff9
    18fc:	6773622f          	0x6773622f
    1900:	6d5f 6e61 6379      	0x63796e616d5f
    1906:	2f65726f          	jal	x4,58bfc <_bsg_elf_vcache_size+0x38bfc>
    190a:	74666f73          	csrrsi	x30,0x746,12
    190e:	65726177          	0x65726177
    1912:	7369722f          	0x7369722f
    1916:	742d7663          	bgeu	x26,x2,2062 <_bsg_elf_stack_ptr+0x66>
    191a:	736c6f6f          	jal	x30,c8050 <_bsg_elf_vcache_size+0xa8050>
    191e:	7369722f          	0x7369722f
    1922:	692d7663          	bgeu	x26,x18,1fae <__kernel_return+0xe6>
    1926:	736e                	flw	f6,248(x2)
    1928:	6174                	flw	f13,68(x10)
    192a:	6c6c                	flw	f11,92(x8)
    192c:	7369722f          	0x7369722f
    1930:	32337663          	bgeu	x6,x3,1c5c <_gp+0x34>
    1934:	752d                	lui	x10,0xfffeb
    1936:	6b6e                	flw	f22,216(x2)
    1938:	6f6e                	flw	f30,216(x2)
    193a:	652d6e77          	0x652d6e77
    193e:	666c                	flw	f11,76(x12)
    1940:	636e692f          	0x636e692f
    1944:	756c                	flw	f11,108(x10)
    1946:	6564                	flw	f9,76(x10)
    1948:	7379732f          	0x7379732f
    194c:	2f00                	fld	f8,24(x14)
    194e:	6f68                	flw	f10,92(x14)
    1950:	656d                	lui	x10,0x1b
    1952:	6e65632f          	0x6e65632f
    1956:	6f74                	flw	f13,92(x14)
    1958:	73622f73          	csrrs	x30,0x736,x4
    195c:	6c625f67          	0x6c625f67
    1960:	6461                	lui	x8,0x18
    1962:	7265                	lui	x4,0xffff9
    1964:	6e75                	lui	x28,0x1d
    1966:	656e                	flw	f10,216(x2)
    1968:	2f72                	fld	f30,280(x2)
    196a:	7362                	flw	f6,56(x2)
    196c:	616d5f67          	0x616d5f67
    1970:	796e                	flw	f18,248(x2)
    1972:	65726f63          	bltu	x4,x23,1fd0 <__kernel_return+0x108>
    1976:	666f732f          	0x666f732f
    197a:	7774                	flw	f13,108(x14)
    197c:	7261                	lui	x4,0xffff8
    197e:	2f65                	jal	2136 <_bsg_elf_stack_ptr+0x13a>
    1980:	6972                	flw	f18,28(x2)
    1982:	2d766373          	csrrsi	x6,0x2d7,12
    1986:	6f74                	flw	f13,92(x14)
    1988:	2f736c6f          	jal	x24,3847e <_bsg_elf_vcache_size+0x1847e>
    198c:	6972                	flw	f18,28(x2)
    198e:	2d766373          	csrrsi	x6,0x2d7,12
    1992:	2d756e67          	0x2d756e67
    1996:	6f74                	flw	f13,92(x14)
    1998:	68636c6f          	jal	x24,3801e <_bsg_elf_vcache_size+0x1801e>
    199c:	6961                	lui	x18,0x18
    199e:	2f6e                	fld	f30,216(x2)
    19a0:	7562                	flw	f10,56(x2)
    19a2:	6c69                	lui	x24,0x1a
    19a4:	2d64                	fld	f9,216(x10)
    19a6:	2d636367          	0x2d636367
  FP_DIV_S (R, A, B);
    19aa:	656e                	flw	f10,216(x2)
    19ac:	62696c77          	0x62696c77
  FP_PACK_S (r, R);
    19b0:	732d                	lui	x6,0xfffeb
    19b2:	6174                	flw	f13,68(x10)
    19b4:	2f326567          	0x2f326567
    19b8:	2f636367          	0x2f636367
    19bc:	6e69                	lui	x28,0x1a
    19be:	64756c63          	bltu	x10,x7,2016 <_bsg_elf_stack_ptr+0x1a>
    19c2:	0065                	c.nop	25
    19c4:	6d6f682f          	0x6d6f682f
{
    19c8:	2f65                	jal	2180 <_bsg_elf_stack_ptr+0x184>
    19ca:	746e6563          	bltu	x28,x6,2114 <_bsg_elf_stack_ptr+0x118>
    19ce:	622f736f          	jal	x6,f8ff0 <_bsg_elf_vcache_size+0xd8ff0>
    19d2:	625f6773          	csrrsi	x14,0x625,30
    19d6:	616c                	flw	f11,68(x10)
    19d8:	6564                	flw	f9,76(x10)
    19da:	7572                	flw	f10,60(x2)
  FP_INIT_EXCEPTIONS;
    19dc:	6e6e                	flw	f28,216(x2)
    19de:	7265                	lui	x4,0xffff9
  FP_UNPACK_RAW_S (A, a);
    19e0:	6773622f          	0x6773622f
    19e4:	6d5f 6e61 6379      	0x63796e616d5f
  FP_EXTEND (D, S, 2, 1, R, A);
    19ea:	2f65726f          	jal	x4,58ce0 <_bsg_elf_vcache_size+0x38ce0>
  FP_UNPACK_RAW_S (A, a);
    19ee:	74666f73          	csrrsi	x30,0x746,12
  FP_EXTEND (D, S, 2, 1, R, A);
    19f2:	65726177          	0x65726177
  FP_UNPACK_RAW_S (A, a);
    19f6:	7369722f          	0x7369722f
    19fa:	742d7663          	bgeu	x26,x2,2146 <_bsg_elf_stack_ptr+0x14a>
  FP_EXTEND (D, S, 2, 1, R, A);
    19fe:	736c6f6f          	jal	x30,c8134 <_bsg_elf_vcache_size+0xa8134>
    1a02:	7369722f          	0x7369722f
  FP_DECL_EX;
    1a06:	692d7663          	bgeu	x26,x18,2092 <_bsg_elf_stack_ptr+0x96>
  FP_EXTEND (D, S, 2, 1, R, A);
    1a0a:	736e                	flw	f6,248(x2)
    1a0c:	6174                	flw	f13,68(x10)
    1a0e:	6c6c                	flw	f11,92(x8)
  FP_PACK_RAW_D (r, R);
    1a10:	7369722f          	0x7369722f
    1a14:	32337663          	bgeu	x6,x3,1d40 <_gp+0x118>
    1a18:	752d                	lui	x10,0xfffeb
    1a1a:	6b6e                	flw	f22,216(x2)
    1a1c:	6f6e                	flw	f30,216(x2)
    1a1e:	652d6e77          	0x652d6e77
    1a22:	666c                	flw	f11,76(x12)
    1a24:	636e692f          	0x636e692f
    1a28:	756c                	flw	f11,108(x10)
    1a2a:	6564                	flw	f9,76(x10)
    1a2c:	2e00                	fld	f8,24(x12)
    1a2e:	2f2e                	fld	f30,200(x2)
  FP_HANDLE_EXCEPTIONS;
    1a30:	2e2e                	fld	f28,200(x2)
    1a32:	2f2e2e2f          	0x2f2e2e2f
    1a36:	2f2e                	fld	f30,200(x2)
}
    1a38:	6972                	flw	f18,28(x2)
    1a3a:	2d766373          	csrrsi	x6,0x2d7,12
    1a3e:	2f636367          	0x2f636367
    1a42:	696c                	flw	f11,84(x10)
    1a44:	6762                	flw	f14,24(x2)
    1a46:	2e2f6363          	bltu	x30,x2,1d2c <_gp+0x104>
    1a4a:	2f2e                	fld	f30,200(x2)
    1a4c:	6e69                	lui	x28,0x1a
    1a4e:	64756c63          	bltu	x10,x7,20a6 <_bsg_elf_stack_ptr+0xaa>
  FP_EXTEND (D, S, 2, 1, R, A);
    1a52:	0065                	c.nop	25
    1a54:	2e2e                	fld	f28,200(x2)
    1a56:	2f2e2e2f          	0x2f2e2e2f
    1a5a:	2e2e                	fld	f28,200(x2)
    1a5c:	722f2e2f          	0x722f2e2f
    1a60:	7369                	lui	x6,0xffffa
    1a62:	672d7663          	bgeu	x26,x18,20ce <_bsg_elf_stack_ptr+0xd2>
    1a66:	6c2f6363          	bltu	x30,x2,212c <_bsg_elf_stack_ptr+0x130>
    1a6a:	6269                	lui	x4,0x1a
    1a6c:	2f636367          	0x2f636367
    1a70:	2e2e                	fld	f28,200(x2)
    1a72:	6363672f          	0x6363672f
    1a76:	6e6f632f          	0x6e6f632f
    1a7a:	6966                	flw	f18,88(x2)
    1a7c:	69722f67          	0x69722f67
    1a80:	00766373          	csrrsi	x6,0x7,12
    1a84:	2e2e                	fld	f28,200(x2)
    1a86:	2f2e2e2f          	0x2f2e2e2f
    1a8a:	2f2e                	fld	f30,200(x2)
    1a8c:	00636367          	0x636367
    1a90:	2e2e                	fld	f28,200(x2)
    1a92:	2f2e2e2f          	0x2f2e2e2f
    1a96:	2e2e                	fld	f28,200(x2)
    1a98:	722f2e2f          	0x722f2e2f
    1a9c:	7369                	lui	x6,0xffffa
    1a9e:	672d7663          	bgeu	x26,x18,210a <_bsg_elf_stack_ptr+0x10e>
    1aa2:	6c2f6363          	bltu	x30,x2,2168 <_bsg_elf_stack_ptr+0x16c>
    1aa6:	6269                	lui	x4,0x1a
    1aa8:	00636367          	0x636367
    1aac:	6c00                	flw	f8,24(x8)
    1aae:	2e6b636f          	jal	x6,b7d94 <_bsg_elf_vcache_size+0x97d94>
    1ab2:	0068                	addi	x10,x2,12
    1ab4:	0001                	nop
    1ab6:	5f00                	lw	x8,56(x14)
    1ab8:	7974                	flw	f13,116(x10)
    1aba:	6570                	flw	f12,76(x10)
    1abc:	00682e73          	csrrs	x28,0x6,x16
    1ac0:	0001                	nop
    1ac2:	7300                	flw	f8,32(x14)
    1ac4:	6474                	flw	f13,76(x8)
    1ac6:	6564                	flw	f9,76(x10)
    1ac8:	2e66                	fld	f28,88(x2)
    1aca:	0068                	addi	x10,x2,12
    1acc:	0002                	c.slli64	x0
    1ace:	7200                	flw	f8,32(x12)
  FP_INIT_ROUNDMODE;
    1ad0:	6565                	lui	x10,0x19
    1ad2:	746e                	flw	f8,248(x2)
  FP_UNPACK_SEMIRAW_D (A, a);
    1ad4:	682e                	flw	f16,200(x2)
    1ad6:	0100                	addi	x8,x2,128
    1ad8:	0000                	unimp
    1ada:	7265                	lui	x4,0xffff9
    1adc:	6e72                	flw	f28,28(x2)
    1ade:	00682e6f          	jal	x28,83ae4 <_bsg_elf_vcache_size+0x63ae4>
    1ae2:	0001                	nop
    1ae4:	7300                	flw	f8,32(x14)
    1ae6:	6474                	flw	f13,76(x8)
  FP_TRUNC (S, D, 1, 2, R, A);
    1ae8:	696c                	flw	f11,84(x10)
    1aea:	2e62                	fld	f28,24(x2)
  FP_UNPACK_SEMIRAW_D (A, a);
    1aec:	0068                	addi	x10,x2,12
    1aee:	75000003          	lb	x0,1872(x0) # 750 <bsg_printf+0x248>
  FP_TRUNC (S, D, 1, 2, R, A);
    1af2:	696e                	flw	f18,216(x2)
  FP_UNPACK_SEMIRAW_D (A, a);
    1af4:	2e647473          	csrrci	x8,0x2e6,8
    1af8:	0068                	addi	x10,x2,12
    1afa:	0001                	nop
    1afc:	7400                	flw	f8,40(x8)
    1afe:	6d69                	lui	x26,0x1a
  FP_TRUNC (S, D, 1, 2, R, A);
    1b00:	2e65                	jal	1eb8 <__invoke_kernel+0x8>
    1b02:	0068                	addi	x10,x2,12
    1b04:	68000003          	lb	x0,1664(x0) # 680 <bsg_printf+0x178>
    1b08:	7361                	lui	x6,0xffff8
    1b0a:	7468                	flw	f10,108(x8)
    1b0c:	6261                	lui	x4,0x18
    1b0e:	682e                	flw	f16,200(x2)
    1b10:	0400                	addi	x8,x2,512
    1b12:	0000                	unimp
    1b14:	6972                	flw	f18,28(x2)
    1b16:	2d766373          	csrrsi	x6,0x2d7,12
    1b1a:	7374706f          	j	49a50 <_bsg_elf_vcache_size+0x29a50>
    1b1e:	682e                	flw	f16,200(x2)
    1b20:	0500                	addi	x8,x2,640
    1b22:	0000                	unimp
    1b24:	6e69                	lui	x28,0x1a
    1b26:	632d6e73          	csrrsi	x28,0x632,26
  FP_PACK_SEMIRAW_S (r, R);
    1b2a:	74736e6f          	jal	x28,38a70 <_bsg_elf_vcache_size+0x18a70>
  FP_TRUNC (S, D, 1, 2, R, A);
    1b2e:	6e61                	lui	x28,0x18
  FP_PACK_SEMIRAW_S (r, R);
    1b30:	7374                	flw	f13,100(x14)
    1b32:	682e                	flw	f16,200(x2)
    1b34:	0600                	addi	x8,x2,768
    1b36:	0000                	unimp
    1b38:	696c                	flw	f11,84(x10)
    1b3a:	6762                	flw	f14,24(x2)
    1b3c:	2e326363          	bltu	x4,x3,1e22 <__init_param+0x2>
    1b40:	0068                	addi	x10,x2,12
    1b42:	6c000007          	0x6c000007
    1b46:	6269                	lui	x4,0x1a
    1b48:	32636367          	0x32636367
    1b4c:	632e                	flw	f6,200(x2)
    1b4e:	0700                	addi	x8,x2,896
    1b50:	0000                	unimp
	...

Disassembly of section .debug_str:

00000000 <.debug_str>:
   0:	20554e47          	fmsub.s	f28,f10,f5,f4,rmm
   4:	20373143          	fmadd.s	f2,f14,f3,f4,rup
   8:	2e39                	jal	326 <number+0xd2>
   a:	2e32                	fld	f28,264(x2)
   c:	2030                	fld	f12,64(x8)
   e:	6d2d                	lui	x26,0xb
  10:	646f6d63          	bltu	x30,x6,66a <bsg_printf+0x162>
  14:	6c65                	lui	x24,0x19
  16:	6d3d                	lui	x26,0xf
  18:	6465                	lui	x8,0x19
  1a:	6f6c                	flw	f11,92(x14)
  1c:	6d2d2077          	0x6d2d2077
  20:	6f6e                	flw	f30,216(x2)
  22:	662d                	lui	x12,0xb
  24:	6964                	flw	f9,84(x10)
  26:	2076                	fld	f0,344(x2)
  28:	6d2d                	lui	x26,0xb
  2a:	646f6d63          	bltu	x30,x6,684 <bsg_printf+0x17c>
  2e:	6c65                	lui	x24,0x19
  30:	6d3d                	lui	x26,0xf
  32:	6465                	lui	x8,0x19
  34:	6f6c                	flw	f11,92(x14)
  36:	6d2d2077          	0x6d2d2077
  3a:	7574                	flw	f13,108(x10)
  3c:	656e                	flw	f10,216(x2)
  3e:	723d                	lui	x4,0xfffef
  40:	656b636f          	jal	x6,b6696 <_bsg_elf_vcache_size+0x96696>
  44:	2074                	fld	f13,192(x8)
  46:	6d2d                	lui	x26,0xb
  48:	7261                	lui	x4,0xffff8
  4a:	723d6863          	bltu	x26,x3,77a <bsg_printf+0x272>
  4e:	3376                	fld	f6,376(x2)
  50:	6932                	flw	f18,12(x2)
  52:	616d                	addi	x2,x2,240
  54:	2066                	fld	f0,88(x2)
  56:	6d2d                	lui	x26,0xb
  58:	6261                	lui	x4,0x18
  5a:	3d69                	jal	fffffef4 <_end+0x7efffe94>
  5c:	6c69                	lui	x24,0x1a
  5e:	3370                	fld	f12,224(x14)
  60:	2032                	fld	f0,264(x2)
  62:	672d                	lui	x14,0xb
  64:	2d20                	fld	f8,88(x10)
  66:	2d20734f          	0x2d20734f
  6a:	2d20324f          	0x2d20324f
  6e:	2d20734f          	0x2d20734f
  72:	6666                	flw	f12,88(x2)
  74:	2d70                	fld	f12,216(x10)
  76:	746e6f63          	bltu	x28,x6,7d4 <bsg_printf+0x2cc>
  7a:	6172                	flw	f2,28(x2)
  7c:	6f3d7463          	bgeu	x26,x19,764 <bsg_printf+0x25c>
  80:	6666                	flw	f12,88(x2)
  82:	2d20                	fld	f8,88(x10)
  84:	6e66                	flw	f28,88(x2)
  86:	6f632d6f          	jal	x26,3277c <_bsg_elf_vcache_size+0x1277c>
  8a:	6d6d                	lui	x26,0x1b
  8c:	2d206e6f          	jal	x28,635e <_bsg_elf_stack_ptr+0x4362>
  90:	6666                	flw	f12,88(x2)
  92:	2d70                	fld	f12,216(x10)
  94:	746e6f63          	bltu	x28,x6,7f2 <bsg_printf+0x2ea>
  98:	6172                	flw	f2,28(x2)
  9a:	6f3d7463          	bgeu	x26,x19,782 <bsg_printf+0x27a>
  9e:	6666                	flw	f12,88(x2)
  a0:	2d20                	fld	f8,88(x10)
  a2:	6266                	flw	f4,88(x2)
  a4:	6975                	lui	x18,0x1d
  a6:	646c                	flw	f11,76(x8)
  a8:	6e69                	lui	x28,0x1a
  aa:	696c2d67          	0x696c2d67
  ae:	6762                	flw	f14,24(x2)
  b0:	2d206363          	bltu	x0,x18,376 <number+0x122>
  b4:	6e66                	flw	f28,88(x2)
  b6:	74732d6f          	jal	x26,32ffc <_bsg_elf_vcache_size+0x12ffc>
  ba:	6361                	lui	x6,0x18
  bc:	72702d6b          	0x72702d6b
  c0:	6365746f          	jal	x8,576f6 <_bsg_elf_vcache_size+0x376f6>
  c4:	6f74                	flw	f13,92(x14)
  c6:	2072                	fld	f0,280(x2)
  c8:	662d                	lui	x12,0xb
  ca:	6976                	flw	f18,92(x2)
  cc:	69626973          	csrrsi	x18,0x696,4
  d0:	696c                	flw	f11,84(x10)
  d2:	7974                	flw	f13,116(x10)
  d4:	683d                	lui	x16,0xf
  d6:	6469                	lui	x8,0x1a
  d8:	6564                	flw	f9,76(x10)
  da:	006e                	c.slli	x0,0x1b
  dc:	465f 5f50 4150      	0x41505f50465f
  e2:	525f4b43          	fmadd.d	f22,f30,f5,f10,rmm
  e6:	5741                	li	x14,-16
  e8:	315f 665f 6f6c      	0x6f6c665f315f
  ee:	5f00                	lw	x8,56(x14)
  f0:	725f 0030 5f5f      	0x5f5f0030725f
  f6:	3172                	fld	f2,312(x2)
  f8:	5f00                	lw	x8,56(x14)
  fa:	715f 0030 5f5f      	0x5f5f0030715f
 100:	3171                	jal	fffffd8c <_end+0x7efffd2c>
 102:	5f00                	lw	x8,56(x14)
 104:	6566                	flw	f10,88(x2)
 106:	0078                	addi	x14,x2,12
 108:	465f 5f50 4150      	0x41505f50465f
 10e:	435f4b43          	fmadd.d	f22,f30,f21,f8,rmm
 112:	4e41                	li	x28,16
 114:	43494e4f          	fnmadd.d	f28,f18,f20,f8,rmm
 118:	4c41                	li	x24,16
 11a:	695f 5f73 6974      	0x69745f73695f
 120:	796e                	flw	f18,248(x2)
 122:	5f00                	lw	x8,56(x14)
 124:	5046                	0x5046
 126:	505f 4341 5f4b      	0x5f4b4341505f
 12c:	4f4e4143          	fmadd.q	f2,f28,f20,f9,rmm
 130:	494e                	lw	x18,208(x2)
 132:	5f4c4143          	fmadd.q	f2,f24,f20,f11,rmm
 136:	5f54                	lw	x13,60(x14)
 138:	0066                	c.slli	x0,0x19
 13a:	5f5f 3164 7500      	0x750031645f5f
 140:	736e                	flw	f6,248(x2)
 142:	6769                	lui	x14,0x1a
 144:	656e                	flw	f10,216(x2)
 146:	2064                	fld	f9,192(x8)
 148:	72616863          	bltu	x2,x6,878 <bsg_printf+0x370>
 14c:	5f00                	lw	x8,56(x14)
 14e:	5046                	0x5046
 150:	555f 504e 4341      	0x4341504e555f
 156:	41525f4b          	fnmsub.s	f30,f4,f21,f8,unknown
 15a:	5f315f57          	0x5f315f57
 15e:	6c66                	flw	f24,88(x2)
 160:	5f5f006f          	j	f0f54 <_bsg_elf_vcache_size+0xd0f54>
 164:	6964                	flw	f9,84(x10)
 166:	7376                	flw	f6,124(x2)
 168:	3366                	fld	f6,120(x2)
 16a:	7300                	flw	f8,32(x14)
 16c:	6f68                	flw	f10,92(x14)
 16e:	7472                	flw	f8,60(x2)
 170:	7520                	flw	f8,104(x10)
 172:	736e                	flw	f6,248(x2)
 174:	6769                	lui	x14,0x1a
 176:	656e                	flw	f10,216(x2)
 178:	2064                	fld	f9,192(x8)
 17a:	6e69                	lui	x28,0x1a
 17c:	0074                	addi	x13,x2,12
 17e:	465f 5f50 4150      	0x41505f50465f
 184:	435f4b43          	fmadd.d	f22,f30,f21,f8,rmm
 188:	4e41                	li	x28,16
 18a:	43494e4f          	fnmadd.d	f28,f18,f20,f8,rmm
 18e:	4c41                	li	x24,16
 190:	545f 655f 5f00      	0x5f00655f545f
 196:	5046                	0x5046
 198:	445f 5649 4d5f      	0x4d5f5649445f
 19e:	4145                	li	x2,17
 1a0:	5f54                	lw	x13,60(x14)
 1a2:	5f31                	li	x30,-20
 1a4:	6475                	lui	x8,0x1d
 1a6:	7669                	lui	x12,0xffffa
 1a8:	6e5f 726f 5f6d      	0x5f6d726f6e5f
 1ae:	686e                	flw	f16,216(x2)
 1b0:	5f00                	lw	x8,56(x14)
 1b2:	5046                	0x5046
 1b4:	445f 5649 4d5f      	0x4d5f5649445f
 1ba:	4145                	li	x2,17
 1bc:	5f54                	lw	x13,60(x14)
 1be:	5f31                	li	x30,-20
 1c0:	6475                	lui	x8,0x1d
 1c2:	7669                	lui	x12,0xffffa
 1c4:	6e5f 726f 5f6d      	0x5f6d726f6e5f
 1ca:	0072                	c.slli	x0,0x1c
 1cc:	465f 5f50 4150      	0x41505f50465f
 1d2:	435f4b43          	fmadd.d	f22,f30,f21,f8,rmm
 1d6:	4e41                	li	x28,16
 1d8:	43494e4f          	fnmadd.d	f28,f18,f20,f8,rmm
 1dc:	4c41                	li	x24,16
 1de:	545f 635f 5500      	0x5500635f545f
 1e4:	4951                	li	x18,20
 1e6:	7974                	flw	f13,116(x10)
 1e8:	6570                	flw	f12,76(x10)
 1ea:	5f00                	lw	x8,56(x14)
 1ec:	635f 7a6c 745f      	0x745f7a6c635f
 1f2:	6261                	lui	x4,0x18
 1f4:	6600                	flw	f8,8(x12)
 1f6:	6172                	flw	f2,28(x2)
 1f8:	6f6c0063          	beq	x24,x22,8d8 <bsg_printf+0x3d0>
 1fc:	676e                	flw	f14,216(x2)
 1fe:	6c20                	flw	f8,88(x8)
 200:	20676e6f          	jal	x28,76406 <_bsg_elf_vcache_size+0x56406>
 204:	6e75                	lui	x28,0x1d
 206:	6e676973          	csrrsi	x18,0x6e6,14
 20a:	6465                	lui	x8,0x19
 20c:	6920                	flw	f8,80(x10)
 20e:	746e                	flw	f8,248(x2)
 210:	2f00                	fld	f8,24(x14)
 212:	6f68                	flw	f10,92(x14)
 214:	656d                	lui	x10,0x1b
 216:	6e65632f          	0x6e65632f
 21a:	6f74                	flw	f13,92(x14)
 21c:	73622f73          	csrrs	x30,0x736,x4
 220:	6c625f67          	0x6c625f67
 224:	6461                	lui	x8,0x18
 226:	7265                	lui	x4,0xffff9
 228:	6e75                	lui	x28,0x1d
 22a:	656e                	flw	f10,216(x2)
 22c:	2f72                	fld	f30,280(x2)
 22e:	7362                	flw	f6,56(x2)
 230:	616d5f67          	0x616d5f67
 234:	796e                	flw	f18,248(x2)
 236:	65726f63          	bltu	x4,x23,894 <bsg_printf+0x38c>
 23a:	666f732f          	0x666f732f
 23e:	7774                	flw	f13,108(x14)
 240:	7261                	lui	x4,0xffff8
 242:	2f65                	jal	9fa <bsg_printf+0x4f2>
 244:	6972                	flw	f18,28(x2)
 246:	2d766373          	csrrsi	x6,0x2d7,12
 24a:	6f74                	flw	f13,92(x14)
 24c:	2f736c6f          	jal	x24,36d42 <_bsg_elf_vcache_size+0x16d42>
 250:	6972                	flw	f18,28(x2)
 252:	2d766373          	csrrsi	x6,0x2d7,12
 256:	2d756e67          	0x2d756e67
 25a:	6f74                	flw	f13,92(x14)
 25c:	68636c6f          	jal	x24,368e2 <_bsg_elf_vcache_size+0x168e2>
 260:	6961                	lui	x18,0x18
 262:	2f6e                	fld	f30,216(x2)
 264:	7562                	flw	f10,56(x2)
 266:	6c69                	lui	x24,0x1a
 268:	2d64                	fld	f9,216(x10)
 26a:	2d636367          	0x2d636367
 26e:	656e                	flw	f10,216(x2)
 270:	62696c77          	0x62696c77
 274:	732d                	lui	x6,0xfffeb
 276:	6174                	flw	f13,68(x10)
 278:	2f326567          	0x2f326567
 27c:	6972                	flw	f18,28(x2)
 27e:	33766373          	csrrsi	x6,mhpmevent23,12
 282:	2d32                	fld	f26,264(x2)
 284:	6e75                	lui	x28,0x1d
 286:	776f6e6b          	0x776f6e6b
 28a:	2d6e                	fld	f26,216(x2)
 28c:	6c65                	lui	x24,0x19
 28e:	2f66                	fld	f30,88(x2)
 290:	696c                	flw	f11,84(x10)
 292:	6762                	flw	f14,24(x2)
 294:	5f006363          	bltu	x0,x16,87a <bsg_printf+0x372>
 298:	5046                	0x5046
 29a:	505f 4341 5f4b      	0x5f4b4341505f
 2a0:	4f4e4143          	fmadd.q	f2,f28,f20,f9,rmm
 2a4:	494e                	lw	x18,208(x2)
 2a6:	5f4c4143          	fmadd.q	f2,f24,f20,f11,rmm
 2aa:	5f54                	lw	x13,60(x14)
 2ac:	2e2e0073          	0x2e2e0073
 2b0:	2f2e2e2f          	0x2f2e2e2f
 2b4:	2e2e                	fld	f28,200(x2)
 2b6:	722f2e2f          	0x722f2e2f
 2ba:	7369                	lui	x6,0xffffa
 2bc:	672d7663          	bgeu	x26,x18,928 <bsg_printf+0x420>
 2c0:	6c2f6363          	bltu	x30,x2,986 <bsg_printf+0x47e>
 2c4:	6269                	lui	x4,0x1a
 2c6:	2f636367          	0x2f636367
 2ca:	74666f73          	csrrsi	x30,0x746,12
 2ce:	662d                	lui	x12,0xb
 2d0:	2f70                	fld	f12,216(x14)
 2d2:	6964                	flw	f9,84(x10)
 2d4:	7376                	flw	f6,124(x2)
 2d6:	3366                	fld	f6,120(x2)
 2d8:	632e                	flw	f6,200(x2)
 2da:	5f00                	lw	x8,56(x14)
 2dc:	645f 0030 465f      	0x465f0030645f
 2e2:	5f50                	lw	x12,60(x14)
 2e4:	4944                	lw	x9,20(x10)
 2e6:	5f56                	lw	x30,116(x2)
 2e8:	454d                	li	x10,19
 2ea:	5441                	li	x8,-16
 2ec:	315f 755f 6964      	0x6964755f315f
 2f2:	5f76                	lw	x30,124(x2)
 2f4:	6f6e                	flw	f30,216(x2)
 2f6:	6d72                	flw	f26,28(x2)
 2f8:	715f 6c00 6e6f      	0x6e6f6c00715f
 2fe:	6f6c2067          	0x6f6c2067
 302:	676e                	flw	f14,216(x2)
 304:	6920                	flw	f8,80(x10)
 306:	746e                	flw	f8,248(x2)
 308:	6200                	flw	f8,0(x12)
 30a:	7469                	lui	x8,0xffffa
 30c:	465f0073          	0x465f0073
 310:	5f50                	lw	x12,60(x14)
 312:	4944                	lw	x9,20(x10)
 314:	5f56                	lw	x30,116(x2)
 316:	454d                	li	x10,19
 318:	5441                	li	x8,-16
 31a:	315f 755f 6964      	0x6964755f315f
 320:	5f76                	lw	x30,124(x2)
 322:	6f6e                	flw	f30,216(x2)
 324:	6d72                	flw	f26,28(x2)
 326:	795f 5f00 5046      	0x50465f00795f
 32c:	555f 494e 4e4f      	0x4e4f494e555f
 332:	535f 5300 7446      	0x74465300535f
 338:	7079                	c.lui	x0,0xffffe
 33a:	0065                	c.nop	25
 33c:	465f 5f50 4944      	0x49445f50465f
 342:	5f56                	lw	x30,116(x2)
 344:	454d                	li	x10,19
 346:	5441                	li	x8,-16
 348:	315f 755f 6964      	0x6964755f315f
 34e:	5f76                	lw	x30,124(x2)
 350:	6f6e                	flw	f30,216(x2)
 352:	6d72                	flw	f26,28(x2)
 354:	6e5f 006c 465f      	0x465f006c6e5f
 35a:	5f50                	lw	x12,60(x14)
 35c:	4e55                	li	x28,21
 35e:	4150                	lw	x12,4(x10)
 360:	435f4b43          	fmadd.d	f22,f30,f21,f8,rmm
 364:	4e41                	li	x28,16
 366:	43494e4f          	fnmadd.d	f28,f18,f20,f8,rmm
 36a:	4c41                	li	x24,16
 36c:	735f 6968 7466      	0x74666968735f
 372:	5f00                	lw	x8,56(x14)
 374:	7266                	flw	f4,120(x2)
 376:	006d                	c.nop	27
 378:	5046                	0x5046
 37a:	455f 5458 4e45      	0x4e455458455f
 380:	5f44                	lw	x9,60(x14)
 382:	7a6c                	flw	f11,116(x12)
 384:	6600                	flw	f8,8(x12)
 386:	6172                	flw	f2,28(x2)
 388:	66003063          	0x66003063
 38c:	6172                	flw	f2,28(x2)
 38e:	5f003163          	0x5f003163
 392:	5046                	0x5046
 394:	505f 4341 5f4b      	0x5f4b4341505f
 39a:	4152                	lw	x2,20(x2)
 39c:	5f325f57          	0x5f325f57
 3a0:	6c66                	flw	f24,88(x2)
 3a2:	4644006f          	j	40806 <_bsg_elf_vcache_size+0x20806>
 3a6:	7974                	flw	f13,116(x10)
 3a8:	6570                	flw	f12,76(x10)
 3aa:	5200                	lw	x8,32(x12)
 3ac:	665f 0030 2e2e      	0x2e2e0030665f
 3b2:	2f2e2e2f          	0x2f2e2e2f
 3b6:	2e2e                	fld	f28,200(x2)
 3b8:	722f2e2f          	0x722f2e2f
 3bc:	7369                	lui	x6,0xffffa
 3be:	672d7663          	bgeu	x26,x18,a2a <bsg_printf+0x522>
 3c2:	6c2f6363          	bltu	x30,x2,a88 <bsg_printf+0x580>
 3c6:	6269                	lui	x4,0x1a
 3c8:	2f636367          	0x2f636367
 3cc:	74666f73          	csrrsi	x30,0x746,12
 3d0:	662d                	lui	x12,0xb
 3d2:	2f70                	fld	f12,216(x14)
 3d4:	7865                	lui	x16,0xffff9
 3d6:	6574                	flw	f13,76(x10)
 3d8:	646e                	flw	f8,216(x2)
 3da:	66646673          	csrrsi	x12,0x666,8
 3de:	2e32                	fld	f28,264(x2)
 3e0:	465f0063          	beq	x30,x5,840 <bsg_printf+0x338>
 3e4:	5f50                	lw	x12,60(x14)
 3e6:	4e55                	li	x28,21
 3e8:	4f49                	li	x30,18
 3ea:	5f4e                	lw	x30,240(x2)
 3ec:	0044                	addi	x9,x2,4
 3ee:	5f5f 7865 6574      	0x657478655f5f
 3f4:	646e                	flw	f8,216(x2)
 3f6:	66646673          	csrrsi	x12,0x666,8
 3fa:	0032                	c.slli	x0,0xc
 3fc:	5f52                	lw	x30,52(x2)
 3fe:	3166                	fld	f2,120(x2)
 400:	5f00                	lw	x8,56(x14)
 402:	745f 7572 636e      	0x636e7572745f
 408:	6664                	flw	f9,76(x12)
 40a:	00326673          	csrrsi	x12,fcsr,4
 40e:	465f 5f50 4150      	0x41505f50465f
 414:	535f4b43          	fmadd.d	f22,f30,f21,f10,rmm
 418:	4d45                	li	x26,17
 41a:	5249                	li	x4,-14
 41c:	5741                	li	x14,-16
 41e:	545f 665f 5f00      	0x5f00665f545f
 424:	5046                	0x5046
 426:	555f 504e 4341      	0x4341504e555f
 42c:	41525f4b          	fnmsub.s	f30,f4,f21,f8,unknown
 430:	5f325f57          	0x5f325f57
 434:	6c66                	flw	f24,88(x2)
 436:	465f006f          	j	f109a <_bsg_elf_vcache_size+0xd109a>
 43a:	5f50                	lw	x12,60(x14)
 43c:	4150                	lw	x12,4(x10)
 43e:	535f4b43          	fmadd.d	f22,f30,f21,f10,rmm
 442:	4d45                	li	x26,17
 444:	5249                	li	x4,-14
 446:	5741                	li	x14,-16
 448:	545f 735f 4100      	0x4100735f545f
 44e:	665f 0031 465f      	0x465f0031665f
 454:	5f50                	lw	x12,60(x14)
 456:	4150                	lw	x12,4(x10)
 458:	535f4b43          	fmadd.d	f22,f30,f21,f10,rmm
 45c:	4d45                	li	x26,17
 45e:	5249                	li	x4,-14
 460:	5741                	li	x14,-16
 462:	545f 635f 5f00      	0x5f00635f545f
 468:	5046                	0x5046
 46a:	505f 4341 5f4b      	0x5f4b4341505f
 470:	494d4553          	0x494d4553
 474:	4152                	lw	x2,20(x2)
 476:	5f545f57          	0x5f545f57
 47a:	0065                	c.nop	25
 47c:	5f41                	li	x30,-16
 47e:	3066                	fld	f0,120(x2)
 480:	5f00                	lw	x8,56(x14)
 482:	5046                	0x5046
 484:	505f 4341 5f4b      	0x5f4b4341505f
 48a:	494d4553          	0x494d4553
 48e:	4152                	lw	x2,20(x2)
 490:	73695f57          	0x73695f57
 494:	745f 6e69 0079      	0x796e69745f
 49a:	2e2e                	fld	f28,200(x2)
 49c:	2f2e2e2f          	0x2f2e2e2f
 4a0:	2e2e                	fld	f28,200(x2)
 4a2:	722f2e2f          	0x722f2e2f
 4a6:	7369                	lui	x6,0xffffa
 4a8:	672d7663          	bgeu	x26,x18,b14 <bsg_printf+0x60c>
 4ac:	6c2f6363          	bltu	x30,x2,b72 <bsg_printf+0x66a>
 4b0:	6269                	lui	x4,0x1a
 4b2:	2f636367          	0x2f636367
 4b6:	74666f73          	csrrsi	x30,0x746,12
 4ba:	662d                	lui	x12,0xb
 4bc:	2f70                	fld	f12,216(x14)
 4be:	7274                	flw	f13,100(x12)
 4c0:	6e75                	lui	x28,0x1d
 4c2:	73666463          	bltu	x12,x22,bea <bsg_printf+0x6e2>
 4c6:	3266                	fld	f4,120(x2)
 4c8:	632e                	flw	f6,200(x2)
 4ca:	7300                	flw	f8,32(x14)
 4cc:	6f68                	flw	f10,92(x14)
 4ce:	7472                	flw	f8,60(x2)
 4d0:	6920                	flw	f8,80(x10)
 4d2:	746e                	flw	f8,248(x2)
 4d4:	6800                	flw	f8,16(x8)
 4d6:	6174                	flw	f13,68(x10)
 4d8:	5f62                	lw	x30,56(x2)
 4da:	6168                	flw	f10,68(x10)
 4dc:	705f6873          	csrrsi	x16,0x705,30
 4e0:	746e696f          	jal	x18,e6c26 <_bsg_elf_vcache_size+0xc6c26>
 4e4:	7265                	lui	x4,0xffff9
 4e6:	5f00                	lw	x8,56(x14)
 4e8:	657a6973          	csrrsi	x18,0x657,20
 4ec:	5f00                	lw	x8,56(x14)
 4ee:	6172                	flw	f2,28(x2)
 4f0:	646e                	flw	f8,216(x2)
 4f2:	3834                	fld	f13,112(x8)
 4f4:	5f00                	lw	x8,56(x14)
 4f6:	6d65                	lui	x26,0x19
 4f8:	7265                	lui	x4,0xffff9
 4fa:	636e6567          	0x636e6567
 4fe:	0079                	c.nop	30
 500:	645f 7961 696c      	0x696c7961645f
 506:	00746867          	0x746867
 50a:	706d6f63          	bltu	x26,x6,c28 <bsg_printf+0x720>
 50e:	656c                	flw	f11,76(x10)
 510:	2078                	fld	f14,192(x8)
 512:	6f64                	flw	f9,92(x14)
 514:	6275                	lui	x4,0x1d
 516:	656c                	flw	f11,76(x10)
 518:	5f00                	lw	x8,56(x14)
 51a:	64746567          	0x64746567
 51e:	7461                	lui	x8,0xffff8
 520:	5f65                	li	x30,-7
 522:	7265                	lui	x4,0xffff9
 524:	0072                	c.slli	x0,0x1c
 526:	645f 7461 0061      	0x617461645f
 52c:	775f 7263 6f74      	0x6f747263775f
 532:	626d                	lui	x4,0x1b
 534:	735f 6174 6574      	0x65746174735f
 53a:	7200                	flw	f8,32(x12)
 53c:	7369                	lui	x6,0xffffa
 53e:	6d5f7663          	bgeu	x30,x21,c0a <bsg_printf+0x702>
 542:	6369                	lui	x6,0x1a
 544:	6f72                	flw	f30,28(x2)
 546:	7261                	lui	x4,0xffff8
 548:	74696863          	bltu	x18,x6,c98 <bsg_printf+0x790>
 54c:	6365                	lui	x6,0x19
 54e:	7574                	flw	f13,108(x10)
 550:	6572                	flw	f10,28(x2)
 552:	745f 7079 0065      	0x657079745f
 558:	775f 7363 7472      	0x74727363775f
 55e:	73626d6f          	jal	x26,26c94 <_bsg_elf_vcache_size+0x6c94>
 562:	735f 6174 6574      	0x65746174735f
 568:	5f00                	lw	x8,56(x14)
 56a:	626c                	flw	f11,68(x12)
 56c:	7366                	flw	f6,120(x2)
 56e:	7a69                	lui	x20,0xffffa
 570:	0065                	c.nop	25
 572:	706d6f63          	bltu	x26,x6,c90 <bsg_printf+0x788>
 576:	656c                	flw	f11,76(x10)
 578:	2078                	fld	f14,192(x8)
 57a:	6f6c                	flw	f11,92(x14)
 57c:	676e                	flw	f14,216(x2)
 57e:	6420                	flw	f8,72(x8)
 580:	6c62756f          	jal	x10,27c46 <_bsg_elf_vcache_size+0x7c46>
 584:	0065                	c.nop	25
 586:	6972                	flw	f18,28(x2)
 588:	5f766373          	csrrsi	x6,0x5f7,12
 58c:	6261                	lui	x4,0x18
 58e:	0069                	c.nop	26
 590:	5f5f 6f6c 6163      	0x61636f6c5f5f
 596:	656c                	flw	f11,76(x10)
 598:	745f 5f00 626d      	0x626d5f00745f
 59e:	7472                	flw	f8,60(x2)
 5a0:	5f63776f          	jal	x14,37b96 <_bsg_elf_vcache_size+0x17b96>
 5a4:	74617473          	csrrci	x8,0x746,2
 5a8:	0065                	c.nop	25
 5aa:	745f 6e7a 6d61      	0x6d616e7a745f
 5b0:	0065                	c.nop	25
 5b2:	775f 7463 6d6f      	0x6d6f7463775f
 5b8:	5f62                	lw	x30,56(x2)
 5ba:	74617473          	csrrci	x8,0x746,2
 5be:	0065                	c.nop	25
 5c0:	5f5f 6d74 735f      	0x735f6d745f5f
 5c6:	6365                	lui	x6,0x19
 5c8:	5f00                	lw	x8,56(x14)
 5ca:	736f6c63          	bltu	x30,x22,d02 <bsg_printf+0x7fa>
 5ce:	0065                	c.nop	25
 5d0:	755f 7562 0066      	0x667562755f
 5d6:	625f 7361 0065      	0x657361625f
 5dc:	5f5f 6d74 685f      	0x685f6d745f5f
 5e2:	0072756f          	jal	x10,27de8 <_bsg_elf_vcache_size+0x7de8>
 5e6:	6e75                	lui	x28,0x1d
 5e8:	63657073          	csrci	0x636,10
 5ec:	5f76                	lw	x30,124(x2)
 5ee:	69727473          	csrrci	x8,0x697,4
 5f2:	676e                	flw	f14,216(x2)
 5f4:	5f5f0073          	0x5f5f0073
 5f8:	5f006673          	csrrsi	x12,0x5f0,0
 5fc:	655f6e6f          	jal	x28,f7450 <_bsg_elf_vcache_size+0xd7450>
 600:	6978                	flw	f14,84(x10)
 602:	5f74                	lw	x13,124(x14)
 604:	7261                	lui	x4,0xffff8
 606:	5f007367          	0x5f007367
 60a:	6b6f6f63          	bltu	x30,x22,cc8 <bsg_printf+0x7c0>
 60e:	6569                	lui	x10,0x1a
 610:	5f00                	lw	x8,56(x14)
 612:	735f 6c67 6575      	0x65756c67735f
 618:	5f00                	lw	x8,56(x14)
 61a:	6c66                	flw	f24,88(x2)
 61c:	6761                	lui	x14,0x18
 61e:	695f0073          	0x695f0073
 622:	78635f73          	csrrwi	x30,0x786,6
 626:	0061                	c.nop	24
 628:	775f 7364 5f00      	0x5f007364775f
 62e:	465f 4c49 0045      	0x454c49465f
 634:	725f 7365 6c75      	0x6c757365725f
 63a:	5f74                	lw	x13,124(x14)
 63c:	5355006b          	0x5355006b
 640:	7449                	lui	x8,0xffff2
 642:	7079                	c.lui	x0,0xffffe
 644:	0065                	c.nop	25
 646:	6972                	flw	f18,28(x2)
 648:	5f766373          	csrrsi	x6,0x5f7,12
 64c:	696d                	lui	x18,0x1b
 64e:	616f7263          	bgeu	x30,x22,c52 <bsg_printf+0x74a>
 652:	6372                	flw	f6,28(x2)
 654:	6968                	flw	f10,84(x10)
 656:	6574                	flw	f13,76(x10)
 658:	72757463          	bgeu	x10,x7,d80 <bsg_printf+0x878>
 65c:	0065                	c.nop	25
 65e:	735f 7379 655f      	0x655f7379735f
 664:	7272                	flw	f4,60(x2)
 666:	696c                	flw	f11,84(x10)
 668:	5f007473          	csrrci	x8,0x5f0,0
 66c:	62747663          	bgeu	x8,x7,c98 <bsg_printf+0x790>
 670:	6675                	lui	x12,0x1d
 672:	5f00                	lw	x8,56(x14)
 674:	626d                	lui	x4,0x1b
 676:	6f747273          	csrrci	x4,0x6f7,8
 67a:	5f736377          	0x5f736377
 67e:	74617473          	csrrci	x8,0x746,2
 682:	0065                	c.nop	25
 684:	6d5f 7262 656c      	0x656c72626d5f
 68a:	5f6e                	lw	x30,248(x2)
 68c:	74617473          	csrrci	x8,0x746,2
 690:	0065                	c.nop	25
 692:	6972                	flw	f18,28(x2)
 694:	5f766373          	csrrsi	x6,0x5f7,12
 698:	646f6d63          	bltu	x30,x6,cf2 <bsg_printf+0x7ea>
 69c:	6c65                	lui	x24,0x19
 69e:	5f00                	lw	x8,56(x14)
 6a0:	6e66                	flw	f28,88(x2)
 6a2:	7261                	lui	x4,0xffff8
 6a4:	5f007367          	0x5f007367
 6a8:	6e66                	flw	f28,88(x2)
 6aa:	735f0073          	0x735f0073
 6ae:	6769                	lui	x14,0x1a
 6b0:	006e                	c.slli	x0,0x1b
 6b2:	735f 6474 7265      	0x72656474735f
 6b8:	0072                	c.slli	x0,0x1c
 6ba:	425f 6769 6e69      	0x6e696769425f
 6c0:	0074                	addi	x13,x2,12
 6c2:	675f 6d61 616d      	0x616d6d61675f
 6c8:	735f 6769 676e      	0x676e6769735f
 6ce:	6d61                	lui	x26,0x18
 6d0:	5f00                	lw	x8,56(x14)
 6d2:	6d6e                	flw	f26,216(x2)
 6d4:	6c61                	lui	x24,0x18
 6d6:	6f6c                	flw	f11,92(x14)
 6d8:	5f5f0063          	beq	x30,x21,cb8 <bsg_printf+0x7b0>
 6dc:	6d74                	flw	f13,92(x10)
 6de:	7200                	flw	f8,32(x12)
 6e0:	7369                	lui	x6,0xffffa
 6e2:	615f7663          	bgeu	x30,x21,cee <bsg_printf+0x7e6>
 6e6:	6962                	flw	f18,24(x2)
 6e8:	745f 7079 0065      	0x657079745f
 6ee:	6d5f 7362 6174      	0x617473626d5f
 6f4:	6574                	flw	f13,76(x10)
 6f6:	5f00                	lw	x8,56(x14)
 6f8:	775f 6863 0062      	0x626863775f
 6fe:	635f 7476 656c      	0x656c7476635f
 704:	006e                	c.slli	x0,0x1b
 706:	665f 6c69 0065      	0x656c69665f
 70c:	6168                	flw	f10,68(x10)
 70e:	61766873          	csrrsi	x16,0x617,12
 712:	5f6c                	lw	x11,124(x14)
 714:	0074                	addi	x13,x2,12
 716:	6e5f 6f69 7362      	0x73626f696e5f
 71c:	5f00                	lw	x8,56(x14)
 71e:	635f 7a6c 6973      	0x69737a6c635f
 724:	0032                	c.slli	x0,0xc
 726:	615f 6574 6978      	0x69786574615f
 72c:	3074                	fld	f13,224(x8)
 72e:	5f00                	lw	x8,56(x14)
 730:	6e676973          	csrrsi	x18,0x6e6,14
 734:	6c61                	lui	x24,0x18
 736:	625f 6675 5f00      	0x5f006675625f
 73c:	7361                	lui	x6,0xffff8
 73e:	6d697463          	bgeu	x18,x22,e06 <bsg_tile_group_barrier+0x62>
 742:	5f65                	li	x30,-7
 744:	7562                	flw	f10,56(x2)
 746:	0066                	c.slli	x0,0x19
 748:	725f 7365 6c75      	0x6c757365725f
 74e:	0074                	addi	x13,x2,12
 750:	5f5f 6377 0068      	0x6863775f5f
 756:	4241                	li	x4,16
 758:	5f49                	li	x30,-14
 75a:	4c49                	li	x24,18
 75c:	3350                	fld	f12,160(x14)
 75e:	4632                	lw	x12,12(x2)
 760:	6500                	flw	f8,8(x10)
 762:	766e                	flw	f12,248(x2)
 764:	7269                	lui	x4,0xffffa
 766:	77006e6f          	jal	x28,6ed6 <_bsg_elf_stack_ptr+0x4eda>
 76a:	6e69                	lui	x28,0x1a
 76c:	5f74                	lw	x13,124(x14)
 76e:	0074                	addi	x13,x2,12
 770:	6c5f 636f 006b      	0x6b636f6c5f
 776:	4241                	li	x4,16
 778:	5f49                	li	x30,-14
 77a:	4c49                	li	x24,18
 77c:	3350                	fld	f12,160(x14)
 77e:	4432                	lw	x8,12(x2)
 780:	4100                	lw	x8,0(x10)
 782:	4942                	lw	x18,16(x2)
 784:	495f 504c 3233      	0x3233504c495f
 78a:	0045                	c.nop	17
 78c:	6d5f 6c75 0074      	0x746c756d5f
 792:	6e75                	lui	x28,0x1d
 794:	63657073          	csrci	0x636,10
 798:	735f 7274 6e69      	0x6e697274735f
 79e:	6f007367          	0x6f007367
 7a2:	7470                	flw	f12,108(x8)
 7a4:	6572                	flw	f10,28(x2)
 7a6:	00746573          	csrrsi	x10,0x7,8
 7aa:	775f 6972 6574      	0x65746972775f
 7b0:	5f00                	lw	x8,56(x14)
 7b2:	745f 5f6d 6579      	0x65795f6d745f
 7b8:	7261                	lui	x4,0xffff8
 7ba:	5f00                	lw	x8,56(x14)
 7bc:	6e75                	lui	x28,0x1d
 7be:	7375                	lui	x6,0xffffd
 7c0:	6465                	lui	x8,0x19
 7c2:	725f 6e61 0064      	0x646e61725f
 7c8:	6972                	flw	f18,28(x2)
 7ca:	5f766373          	csrrsi	x6,0x5f7,12
 7ce:	65646f63          	bltu	x8,x22,e2c <bsg_tile_group_barrier+0x88>
 7d2:	6d5f 646f 6c65      	0x6c65646f6d5f
 7d8:	5f00                	lw	x8,56(x14)
 7da:	7366666f          	jal	x12,66f10 <_bsg_elf_vcache_size+0x46f10>
 7de:	7465                	lui	x8,0xffff9
 7e0:	6f00                	flw	f8,24(x14)
 7e2:	7470                	flw	f12,108(x8)
 7e4:	6e69                	lui	x28,0x1a
 7e6:	0064                	addi	x9,x2,12
 7e8:	6e5f 7865 6674      	0x667478656e5f
 7ee:	6300                	flw	f8,0(x14)
 7f0:	6c706d6f          	jal	x26,76b6 <_bsg_elf_stack_ptr+0x56ba>
 7f4:	7865                	lui	x16,0xffff9
 7f6:	6620                	flw	f8,72(x12)
 7f8:	6f6c                	flw	f11,92(x14)
 7fa:	7461                	lui	x8,0xffff8
 7fc:	5f00                	lw	x8,56(x14)
 7fe:	745f 5f6d 6f6d      	0x6f6d5f6d745f
 804:	006e                	c.slli	x0,0x1b
 806:	615f 6574 6978      	0x69786574615f
 80c:	0074                	addi	x13,x2,12
 80e:	6f627573          	csrrci	x10,0x6f6,4
 812:	7470                	flw	f12,108(x8)
 814:	7261                	lui	x4,0xffff8
 816:	5f5f0067          	jr	1525(x30) # 8975d <_bsg_elf_vcache_size+0x6975d>
 81a:	64696473          	csrrsi	x8,0x646,18
 81e:	6e69                	lui	x28,0x1a
 820:	7469                	lui	x8,0xffffa
 822:	5f00                	lw	x8,56(x14)
 824:	5f66666f          	jal	x12,66e1a <_bsg_elf_vcache_size+0x46e1a>
 828:	0074                	addi	x13,x2,12
 82a:	665f 6572 6c65      	0x6c656572665f
 830:	7369                	lui	x6,0xffffa
 832:	0074                	addi	x13,x2,12
 834:	745f 6d69 7a65      	0x7a656d69745f
 83a:	00656e6f          	jal	x28,56840 <_bsg_elf_vcache_size+0x36840>
 83e:	6d5f 7362 6174      	0x617473626d5f
 844:	6574                	flw	f13,76(x10)
 846:	745f 5f00 4f4c      	0x4f4c5f00745f
 84c:	525f4b43          	fmadd.d	f22,f30,f5,f10,rmm
 850:	4345                	li	x6,17
 852:	5255                	li	x4,-11
 854:	45564953          	0x45564953
 858:	545f 5f00 6572      	0x65725f00545f
 85e:	6461                	lui	x8,0x18
 860:	4100                	lw	x8,0(x10)
 862:	4942                	lw	x18,16(x2)
 864:	4c5f 3650 0034      	0x3436504c5f
 86a:	4241                	li	x4,16
 86c:	5f49                	li	x30,-14
 86e:	4c49                	li	x24,18
 870:	3350                	fld	f12,160(x14)
 872:	0032                	c.slli	x0,0xc
 874:	645f 6f73 685f      	0x685f6f73645f
 87a:	6e61                	lui	x28,0x18
 87c:	6c64                	flw	f9,92(x8)
 87e:	0065                	c.nop	25
 880:	4d5f4d43          	0x4d5f4d43
 884:	4445                	li	x8,17
 886:	4e41                	li	x28,16
 888:	0059                	c.nop	22
 88a:	6e5f 7765 5f00      	0x5f0077656e5f
 890:	5f68                	lw	x10,124(x14)
 892:	7265                	lui	x4,0xffff9
 894:	6e72                	flw	f28,28(x2)
 896:	665f006f          	j	f16fa <_bsg_elf_vcache_size+0xd16fa>
 89a:	6f6c                	flw	f11,92(x14)
 89c:	745f6b63          	bltu	x30,x5,ff2 <expf+0x2>
 8a0:	5f00                	lw	x8,56(x14)
 8a2:	745f 5f6d 6479      	0x64795f6d745f
 8a8:	7961                	lui	x18,0xffff8
 8aa:	5f00                	lw	x8,56(x14)
 8ac:	735f 7562 0066      	0x667562735f
 8b2:	665f 616c 7367      	0x7367616c665f
 8b8:	0032                	c.slli	x0,0xc
 8ba:	695f 626f 0073      	0x73626f695f
 8c0:	4d5f4d43          	0x4d5f4d43
 8c4:	4445                	li	x8,17
 8c6:	4f4c                	lw	x11,28(x14)
 8c8:	74680057          	0x74680057
 8cc:	6261                	lui	x4,0x18
 8ce:	685f 7361 0068      	0x687361685f
 8d4:	5f5f 4673 4c49      	0x4c4946735f5f
 8da:	0045                	c.nop	17
 8dc:	735f 7379 6e5f      	0x6e5f7379735f
 8e2:	7265                	lui	x4,0xffff9
 8e4:	0072                	c.slli	x0,0x1c
 8e6:	725f 6e61 5f64      	0x5f646e61725f
 8ec:	656e                	flw	f10,216(x2)
 8ee:	7478                	flw	f14,108(x8)
 8f0:	5f00                	lw	x8,56(x14)
 8f2:	626d                	lui	x4,0x1b
 8f4:	656c                	flw	f11,76(x10)
 8f6:	5f6e                	lw	x30,248(x2)
 8f8:	74617473          	csrrci	x8,0x746,2
 8fc:	0065                	c.nop	25
 8fe:	695f 636e 5f00      	0x5f00636e695f
 904:	6e69                	lui	x28,0x1a
 906:	0064                	addi	x9,x2,12
 908:	6c5f 636f 6c61      	0x6c61636f6c5f
 90e:	0065                	c.nop	25
 910:	5f5f 6c63 6165      	0x61656c635f5f
 916:	756e                	flw	f10,248(x2)
 918:	0070                	addi	x12,x2,12
 91a:	755f 736e 6570      	0x6570736e755f
 920:	69666963          	bltu	x12,x22,fb2 <kernel_float_vec_exp+0x7a>
 924:	6465                	lui	x8,0x19
 926:	6c5f 636f 6c61      	0x6c61636f6c5f
 92c:	5f65                	li	x30,-7
 92e:	6e69                	lui	x28,0x1a
 930:	6f66                	flw	f30,88(x2)
 932:	5f00                	lw	x8,56(x14)
 934:	616d                	addi	x2,x2,240
 936:	7778                	flw	f14,108(x14)
 938:	7364                	flw	f9,100(x14)
 93a:	5f00                	lw	x8,56(x14)
 93c:	6572                	flw	f10,28(x2)
 93e:	6e65                	lui	x28,0x19
 940:	0074                	addi	x13,x2,12
 942:	735f 6565 0064      	0x646565735f
 948:	5f5f 6f63 6e75      	0x6e756f635f5f
 94e:	0074                	addi	x13,x2,12
 950:	5f5f 6176 756c      	0x756c61765f5f
 956:	0065                	c.nop	25
 958:	735f 6565 006b      	0x6b6565735f
 95e:	665f 6f70 5f73      	0x5f736f70665f
 964:	0074                	addi	x13,x2,12
 966:	69666973          	csrrsi	x18,0x696,12
 96a:	6576                	flw	f10,92(x2)
 96c:	375f 5f00 6c62      	0x6c625f00375f
 972:	7a69736b          	0x7a69736b
 976:	0065                	c.nop	25
 978:	656e6567          	0x656e6567
 97c:	6972                	flw	f18,28(x2)
 97e:	706f0063          	beq	x30,x6,107e <_bsg_data_start_addr+0x7e>
 982:	6574                	flw	f13,76(x10)
 984:	7272                	flw	f4,60(x2)
 986:	5f00                	lw	x8,56(x14)
 988:	74727473          	csrrci	x8,0x747,4
 98c:	6c5f6b6f          	jal	x22,f7850 <_bsg_elf_vcache_size+0xd7850>
 990:	7361                	lui	x6,0xffff8
 992:	0074                	addi	x13,x2,12
 994:	505f4d43          	fmadd.s	f26,f30,f5,f10,rmm
 998:	4349                	li	x6,18
 99a:	5f00                	lw	x8,56(x14)
 99c:	6e66                	flw	f28,88(x2)
 99e:	7974                	flw	f13,116(x10)
 9a0:	6570                	flw	f12,76(x10)
 9a2:	615f0073          	0x615f0073
 9a6:	6464                	flw	f9,76(x8)
 9a8:	5f00                	lw	x8,56(x14)
 9aa:	555f 6f4c 676e      	0x676e6f4c555f
 9b0:	6800                	flw	f8,16(x8)
 9b2:	6174                	flw	f13,68(x10)
 9b4:	5f62                	lw	x30,56(x2)
 9b6:	7165                	addi	x2,x2,-400
 9b8:	705f 696f 746e      	0x746e696f705f
 9be:	7265                	lui	x4,0xffff9
 9c0:	5f00                	lw	x8,56(x14)
 9c2:	785f 0072 675f      	0x675f0072785f
 9c8:	6f6c                	flw	f11,92(x14)
 9ca:	6162                	flw	f2,24(x2)
 9cc:	5f6c                	lw	x11,124(x14)
 9ce:	6d69                	lui	x26,0x1a
 9d0:	7570                	flw	f12,108(x10)
 9d2:	6572                	flw	f10,28(x2)
 9d4:	705f 7274 5f00      	0x5f007274705f
 9da:	6f647473          	csrrci	x8,0x6f6,8
 9de:	7475                	lui	x8,0xffffd
 9e0:	5f00                	lw	x8,56(x14)
 9e2:	745f 5f6d 6477      	0x64775f6d745f
 9e8:	7961                	lui	x18,0xffff8
 9ea:	5f00                	lw	x8,56(x14)
 9ec:	65756c67          	0x65756c67
 9f0:	5f00                	lw	x8,56(x14)
 9f2:	69647473          	csrrci	x8,0x696,8
 9f6:	006e                	c.slli	x0,0x1b
 9f8:	735f 6973 657a      	0x657a6973735f
 9fe:	745f 5f00 366c      	0x366c5f00745f
 a04:	6134                	flw	f13,64(x10)
 a06:	625f 6675 5f00      	0x5f006675625f
 a0c:	5f676973          	csrrsi	x18,0x5f6,14
 a10:	7566                	flw	f10,120(x2)
 a12:	636e                	flw	f6,216(x2)
 a14:	5f00                	lw	x8,56(x14)
 a16:	705f 706f 6f63      	0x6f63706f705f
 a1c:	6e75                	lui	x28,0x1d
 a1e:	5f74                	lw	x13,124(x14)
 a20:	6174                	flw	f13,68(x10)
 a22:	0062                	c.slli	x0,0x18
 a24:	6e5f 7562 0066      	0x6675626e5f
 a2a:	755f 756e 6573      	0x6573756e755f
 a30:	0064                	addi	x9,x2,12
 a32:	5f5f 6d74 695f      	0x695f6d745f5f
 a38:	74736473          	csrrsi	x8,0x747,6
 a3c:	5f00                	lw	x8,56(x14)
 a3e:	6f6c                	flw	f11,92(x14)
 a40:	746c6163          	bltu	x24,x6,1182 <_bsg_data_start_addr+0x182>
 a44:	6d69                	lui	x26,0x1a
 a46:	5f65                	li	x30,-7
 a48:	7562                	flw	f10,56(x2)
 a4a:	0066                	c.slli	x0,0x19
 a4c:	5f5f 6d74 6d5f      	0x6d5f6d745f5f
 a52:	6e69                	lui	x28,0x1a
 a54:	5f00                	lw	x8,56(x14)
 a56:	3472                	fld	f8,312(x2)
 a58:	0038                	addi	x14,x2,8
 a5a:	4241                	li	x4,16
 a5c:	5f49                	li	x30,-14
 a5e:	504c                	lw	x11,36(x8)
 a60:	3436                	fld	f8,360(x2)
 a62:	0044                	addi	x9,x2,4
 a64:	6f74706f          	j	4895a <_bsg_elf_vcache_size+0x2895a>
 a68:	7470                	flw	f12,108(x8)
 a6a:	4100                	lw	x8,0(x10)
 a6c:	4942                	lw	x18,16(x2)
 a6e:	4c5f 3650 4634      	0x463436504c5f
 a74:	5f00                	lw	x8,56(x14)
 a76:	626d                	lui	x4,0x1b
 a78:	6f74                	flw	f13,92(x14)
 a7a:	735f6377          	0x735f6377
 a7e:	6174                	flw	f13,68(x10)
 a80:	6574                	flw	f13,76(x10)
 a82:	5f00                	lw	x8,56(x14)
 a84:	3570                	fld	f12,232(x10)
 a86:	2e2e0073          	0x2e2e0073
 a8a:	2f2e2e2f          	0x2f2e2e2f
 a8e:	2e2e                	fld	f28,200(x2)
 a90:	722f2e2f          	0x722f2e2f
 a94:	7369                	lui	x6,0xffffa
 a96:	672d7663          	bgeu	x26,x18,1102 <_bsg_data_start_addr+0x102>
 a9a:	6c2f6363          	bltu	x30,x2,1160 <_bsg_data_start_addr+0x160>
 a9e:	6269                	lui	x4,0x1a
 aa0:	2f636367          	0x2f636367
 aa4:	696c                	flw	f11,84(x10)
 aa6:	6762                	flw	f14,24(x2)
 aa8:	2e326363          	bltu	x4,x3,d8e <bsg_printf+0x886>
 aac:	5f5f0063          	beq	x30,x21,108c <_bsg_data_start_addr+0x8c>
 ab0:	6d74                	flw	f13,92(x10)
 ab2:	6d5f 6164 0079      	0x7961646d5f
 ab8:	7468                	flw	f10,108(x8)
 aba:	6261                	lui	x4,0x18
 abc:	655f 0071       	0x71655f

Disassembly of section .debug_frame:

00000000 <.debug_frame>:
   0:	000c                	0xc
   2:	0000                	unimp
   4:	ffff                	0xffff
   6:	ffff                	0xffff
   8:	0001                	nop
   a:	7c01                	lui	x24,0xfffe0
   c:	0d01                	addi	x26,x26,0
   e:	0002                	c.slli64	x0
  10:	003c                	addi	x15,x2,8
  12:	0000                	unimp
  14:	0000                	unimp
  16:	0000                	unimp
  18:	14c0                	addi	x8,x2,612
  1a:	0000                	unimp
  1c:	0508                	addi	x10,x2,640
  1e:	0000                	unimp
  20:	0e44                	addi	x9,x2,788
  22:	6430                	flw	f12,72(x8)
  24:	0896                	slli	x17,x17,0x5
  26:	0181                	addi	x3,x3,0
  28:	0288                	addi	x10,x2,320
  2a:	0389                	addi	x7,x7,2
  2c:	0492                	slli	x9,x9,0x4
  2e:	06940593          	addi	x11,x8,105 # ffffd069 <_end+0x7effd009>
  32:	0795                	addi	x15,x15,5
  34:	88030997          	auipc	x19,0x88030
  38:	0a02                	c.slli64	x20
  3a:	44c1                	li	x9,16
  3c:	44c8                	lw	x10,12(x9)
  3e:	44c9                	li	x9,18
  40:	44d2                	lw	x9,20(x2)
  42:	44d444d3          	0x44d444d3
  46:	44d5                	li	x9,21
  48:	44d6                	lw	x9,84(x2)
  4a:	000e44d7          	0xe44d7
  4e:	0b44                	addi	x9,x2,404
  50:	000c                	0xc
  52:	0000                	unimp
  54:	ffff                	0xffff
  56:	ffff                	0xffff
  58:	0001                	nop
  5a:	7c01                	lui	x24,0xfffe0
  5c:	0d01                	addi	x26,x26,0
  5e:	0002                	c.slli64	x0
  60:	0028                	addi	x10,x2,8
  62:	0000                	unimp
  64:	0050                	addi	x12,x2,4
  66:	0000                	unimp
  68:	19c8                	addi	x10,x2,244
  6a:	0000                	unimp
  6c:	0108                	addi	x10,x2,128
  6e:	0000                	unimp
  70:	0e44                	addi	x9,x2,788
  72:	5010                	lw	x12,32(x8)
  74:	0181                	addi	x3,x3,0
  76:	0288                	addi	x10,x2,320
  78:	0389                	addi	x7,x7,2
  7a:	0492                	slli	x9,x9,0x4
  7c:	6002                	flw	f0,0(x2)
  7e:	c10a                	sw	x2,128(x2)
  80:	c844                	sw	x9,20(x8)
  82:	c944                	sw	x9,20(x10)
  84:	d244                	sw	x9,36(x12)
  86:	0e44                	addi	x9,x2,788
  88:	4400                	lw	x8,8(x8)
  8a:	000c000b          	0xc000b
  8e:	0000                	unimp
  90:	ffff                	0xffff
  92:	ffff                	0xffff
  94:	0001                	nop
  96:	7c01                	lui	x24,0xfffe0
  98:	0d01                	addi	x26,x26,0
  9a:	0002                	c.slli64	x0
  9c:	000c                	0xc
  9e:	0000                	unimp
  a0:	008c                	addi	x11,x2,64
  a2:	0000                	unimp
  a4:	1ad0                	addi	x12,x2,372
  a6:	0000                	unimp
  a8:	02dc                	addi	x15,x2,324
  aa:	0000                	unimp
  ac:	000c                	0xc
  ae:	0000                	unimp
  b0:	ffff                	0xffff
  b2:	ffff                	0xffff
  b4:	0001                	nop
  b6:	7c01                	lui	x24,0xfffe0
  b8:	0d01                	addi	x26,x26,0
  ba:	0002                	c.slli64	x0
  bc:	000c                	0xc
  be:	0000                	unimp
  c0:	00ac                	addi	x11,x2,72
  c2:	0000                	unimp
  c4:	1dac                	addi	x11,x2,760
  c6:	0000                	unimp
  c8:	004c                	addi	x11,x2,4
	...
