80000678 <vector_sum>:
80000678:	fb010113          	addi	sp,sp,-80
8000067c:	04112623          	sw	ra,76(sp)
80000680:	04912423          	sw	s1,72(sp)
80000684:	05212223          	sw	s2,68(sp)
80000688:	05312023          	sw	s3,64(sp)
8000068c:	03412e23          	sw	s4,60(sp)
80000690:	03512c23          	sw	s5,56(sp)
80000694:	03612a23          	sw	s6,52(sp)
80000698:	03712823          	sw	s7,48(sp)
8000069c:	03812623          	sw	s8,44(sp)
800006a0:	03912423          	sw	s9,40(sp)
800006a4:	03a12223          	sw	s10,36(sp)
800006a8:	03b12023          	sw	s11,32(sp)
800006ac:	18000593          	li	a1,384
800006b0:	00a12623          	sw	a0,12(sp)
800006b4:	3fc010ef          	jal	ra,80001ab0 <__mulsi3>
800006b8:	000015b7          	lui	a1,0x1
800006bc:	02058593          	addi	a1,a1,32 # 1020 <A>
800006c0:	00b50cb3          	add	s9,a0,a1
800006c4:	00001537          	lui	a0,0x1
800006c8:	02050d13          	addi	s10,a0,32 # 1020 <A>
800006cc:	00c00a13          	li	s4,12
800006d0:	01000c37          	lui	s8,0x1000
800006d4:	00040bb7          	lui	s7,0x40
800006d8:	20000b37          	lui	s6,0x20000
800006dc:	00000d93          	li	s11,0
800006e0:	00000a93          	li	s5,0
800006e4:	01bc84b3          	add	s1,s9,s11
800006e8:	41a48533          	sub	a0,s1,s10
800006ec:	000a0593          	mv	a1,s4
800006f0:	3ec010ef          	jal	ra,80001adc <__udivsi3>
800006f4:	01851593          	slli	a1,a0,0x18
800006f8:	0185f5b3          	and	a1,a1,s8
800006fc:	01151613          	slli	a2,a0,0x11
80000700:	01767633          	and	a2,a2,s7
80000704:	00b66933          	or	s2,a2,a1
80000708:	00255513          	srli	a0,a0,0x2
8000070c:	000a0593          	mv	a1,s4
80000710:	3a0010ef          	jal	ra,80001ab0 <__mulsi3>
80000714:	01a50533          	add	a0,a0,s10
80000718:	00a96933          	or	s2,s2,a0
8000071c:	00448513          	addi	a0,s1,4
80000720:	41a50533          	sub	a0,a0,s10
80000724:	000a0593          	mv	a1,s4
80000728:	3b4010ef          	jal	ra,80001adc <__udivsi3>
8000072c:	01851593          	slli	a1,a0,0x18
80000730:	0185f5b3          	and	a1,a1,s8
80000734:	01151613          	slli	a2,a0,0x11
80000738:	01767633          	and	a2,a2,s7
8000073c:	00b669b3          	or	s3,a2,a1
80000740:	00255513          	srli	a0,a0,0x2
80000744:	000a0593          	mv	a1,s4
80000748:	368010ef          	jal	ra,80001ab0 <__mulsi3>
8000074c:	01a50533          	add	a0,a0,s10
80000750:	00450513          	addi	a0,a0,4
80000754:	00a9e9b3          	or	s3,s3,a0
80000758:	01696533          	or	a0,s2,s6
8000075c:	00052503          	lw	a0,0(a0)
80000760:	00a12e23          	sw	a0,28(sp)
80000764:	01550933          	add	s2,a0,s5
80000768:	00848513          	addi	a0,s1,8
8000076c:	41a50533          	sub	a0,a0,s10
80000770:	000a0593          	mv	a1,s4
80000774:	368010ef          	jal	ra,80001adc <__udivsi3>
80000778:	01851593          	slli	a1,a0,0x18
8000077c:	0185f5b3          	and	a1,a1,s8
80000780:	01151613          	slli	a2,a0,0x11
80000784:	01767633          	and	a2,a2,s7
80000788:	0169e6b3          	or	a3,s3,s6
8000078c:	0006c683          	lbu	a3,0(a3) # 1000000 <_gp+0xffe7ec>
80000790:	00d10c23          	sb	a3,24(sp)
80000794:	00648703          	lb	a4,6(s1)
80000798:	00871713          	slli	a4,a4,0x8
8000079c:	0054c783          	lbu	a5,5(s1)
800007a0:	00f76733          	or	a4,a4,a5
800007a4:	00748783          	lb	a5,7(s1)
800007a8:	00f10b23          	sb	a5,22(sp)
800007ac:	00e11a23          	sh	a4,20(sp)
800007b0:	00d90933          	add	s2,s2,a3
800007b4:	00b664b3          	or	s1,a2,a1
800007b8:	00255513          	srli	a0,a0,0x2
800007bc:	000a0593          	mv	a1,s4
800007c0:	2f0010ef          	jal	ra,80001ab0 <__mulsi3>
800007c4:	01a50533          	add	a0,a0,s10
800007c8:	00850513          	addi	a0,a0,8
800007cc:	00a4e533          	or	a0,s1,a0
800007d0:	01656533          	or	a0,a0,s6
800007d4:	00052503          	lw	a0,0(a0)
800007d8:	00a12823          	sw	a0,16(sp)
800007dc:	00a90ab3          	add	s5,s2,a0
800007e0:	00cd8d93          	addi	s11,s11,12
800007e4:	18000513          	li	a0,384
800007e8:	eead9ee3          	bne	s11,a0,800006e4 <vector_sum+0x6c>
800007ec:	00001537          	lui	a0,0x1
800007f0:	62050513          	addi	a0,a0,1568 # 1620 <B>
800007f4:	00c12583          	lw	a1,12(sp)
800007f8:	00259613          	slli	a2,a1,0x2
800007fc:	00a60533          	add	a0,a2,a0
80000800:	41a50533          	sub	a0,a0,s10
80000804:	01651613          	slli	a2,a0,0x16
80000808:	018676b3          	and	a3,a2,s8
8000080c:	00f51613          	slli	a2,a0,0xf
80000810:	01767633          	and	a2,a2,s7
80000814:	00d666b3          	or	a3,a2,a3
80000818:	00255513          	srli	a0,a0,0x2
8000081c:	40000637          	lui	a2,0x40000
80000820:	ffc60613          	addi	a2,a2,-4 # 3ffffffc <_gp+0x3fffe7e8>
80000824:	00c57533          	and	a0,a0,a2
80000828:	01a50533          	add	a0,a0,s10
8000082c:	00a6e533          	or	a0,a3,a0
80000830:	01656533          	or	a0,a0,s6
80000834:	01552023          	sw	s5,0(a0)
80000838:	80002537          	lui	a0,0x80002
8000083c:	b8850513          	addi	a0,a0,-1144 # 80001b88 <_bsg_dram_end_addr+0xfffff998>
80000840:	000a8613          	mv	a2,s5
80000844:	200000ef          	jal	ra,80000a44 <bsg_printf>
80000848:	02012d83          	lw	s11,32(sp)
8000084c:	02412d03          	lw	s10,36(sp)
80000850:	02812c83          	lw	s9,40(sp)
80000854:	02c12c03          	lw	s8,44(sp)
80000858:	03012b83          	lw	s7,48(sp)
8000085c:	03412b03          	lw	s6,52(sp)
80000860:	03812a83          	lw	s5,56(sp)
80000864:	03c12a03          	lw	s4,60(sp)
80000868:	04012983          	lw	s3,64(sp)
8000086c:	04412903          	lw	s2,68(sp)
80000870:	04812483          	lw	s1,72(sp)
80000874:	04c12083          	lw	ra,76(sp)
80000878:	05010113          	addi	sp,sp,80
8000087c:	00008067          	ret

80000880 <main>:
80000880:	fe010113          	addi	sp,sp,-32
80000884:	00112e23          	sw	ra,28(sp)
80000888:	00912c23          	sw	s1,24(sp)
8000088c:	01212a23          	sw	s2,20(sp)
80000890:	01312823          	sw	s3,16(sp)
80000894:	01412623          	sw	s4,12(sp)
80000898:	01512423          	sw	s5,8(sp)
8000089c:	01612223          	sw	s6,4(sp)
800008a0:	0b4000ef          	jal	ra,80000954 <bsg_set_tile_x_y>
800008a4:	80002537          	lui	a0,0x80002
800008a8:	bf050513          	addi	a0,a0,-1040 # 80001bf0 <_bsg_dram_end_addr+0xfffffa00>
800008ac:	000015b7          	lui	a1,0x1
800008b0:	0085a583          	lw	a1,8(a1) # 1008 <__bsg_id>
800008b4:	00259593          	slli	a1,a1,0x2
800008b8:	00a58b33          	add	s6,a1,a0
800008bc:	00001537          	lui	a0,0x1
800008c0:	02050a13          	addi	s4,a0,32 # 1020 <A>
800008c4:	00001537          	lui	a0,0x1
800008c8:	02050513          	addi	a0,a0,32 # 1020 <A>
800008cc:	41450933          	sub	s2,a0,s4
800008d0:	00c00993          	li	s3,12
800008d4:	18000a93          	li	s5,384
800008d8:	00000493          	li	s1,0
800008dc:	00090513          	mv	a0,s2
800008e0:	00098593          	mv	a1,s3
800008e4:	1f8010ef          	jal	ra,80001adc <__udivsi3>
800008e8:	00255513          	srli	a0,a0,0x2
800008ec:	00098593          	mv	a1,s3
800008f0:	1c0010ef          	jal	ra,80001ab0 <__mulsi3>
800008f4:	00950533          	add	a0,a0,s1
800008f8:	01450533          	add	a0,a0,s4
800008fc:	000b2583          	lw	a1,0(s6) # 20000000 <_gp+0x1fffe7ec>
80000900:	00b52023          	sw	a1,0(a0)
80000904:	010b0b13          	addi	s6,s6,16
80000908:	00448493          	addi	s1,s1,4
8000090c:	fd5498e3          	bne	s1,s5,800008dc <main+0x5c>
80000910:	000014b7          	lui	s1,0x1
80000914:	0004a503          	lw	a0,0(s1) # 1000 <__bsg_x>
80000918:	00151513          	slli	a0,a0,0x1
8000091c:	00001937          	lui	s2,0x1
80000920:	00492583          	lw	a1,4(s2) # 1004 <__bsg_y>
80000924:	00b50533          	add	a0,a0,a1
80000928:	d51ff0ef          	jal	ra,80000678 <vector_sum>
8000092c:	0004a583          	lw	a1,0(s1)
80000930:	00100513          	li	a0,1
80000934:	00a59e63          	bne	a1,a0,80000950 <main+0xd0>
80000938:	00492583          	lw	a1,4(s2)
8000093c:	00059a63          	bnez	a1,80000950 <main+0xd0>
80000940:	4004f5b7          	lui	a1,0x4004f
80000944:	ad058593          	addi	a1,a1,-1328 # 4004ead0 <_gp+0x4004d2bc>
80000948:	00a5a023          	sw	a0,0(a1)
8000094c:	0000006f          	j	8000094c <main+0xcc>
80000950:	0000006f          	j	80000950 <main+0xd0>
